\b(\nS
\b4\rS
\b4@9h
\bD@9H
\b@D9h
\bTG9h
C:\\c2\\p4\\rom-launch\\work\\build\\vs2015.built\\cross2app+standalone\\NX64\\Release\\cross2_Release.nss
R\b\b 
AB 0
! T@
\b \"\b \"
(@\n!
 $@\b
(\b\t\b
\n@@\"
 ?c8-
\"(/Ep
,i5[i#
.+l!CH
[\x1B;d:,U
3i *Ra
2V|o\v@
T=8'\r
\x1B=ukgO
NYEIJS
VW_MvO
qDy32
g\\\tWf
d3s`v
)'{s-
t-6\b$c*
ry|6De}
=bG:'
/\t@S(
9f'\vQ
\\S`Z.
J\"HdV
q\tqUA6F0t
[pWKVj\v
_f3L3
Lq)J}
&Mn;\b4
33I[s
r[|ixJId
g7T):_
T)ipN
TA2_\v
W4kub
?\b\\a*6
aVSg6I
q!ZE!
S-z\"{V
w4M;E
\aYw7`
0\\*#}
AYM\a/t
F2CB\b/#
?Ou\tR|
SOk=W
8\\\rnx
BZ@0C
P]=QA
KqZd'V
n9CL);
397I(`
oLgH.
tW-t\\f
S\ru_y
$bV|&
6@{JN
f3-#_,+
eNM|-]
-ly}\n
,0-N1\a
'M{a5
.1Y7wr
R\v\\Ui
=&]\"{\x1B
w$\t:gUa
\rkm\a*
\n?*tj
JI\n[k
mjK\a!g
DWarP;
O{IEaCj:
f8QK{
k<nBPd
Hh>~*u
OTm0q
O$sD
}! d\x1B(
 &\ab_
Aw%;M&O
!0\v&f69
4VzHi
MUCm|
\x1BA&qq
|o&bku
~;U+Y
|M'ai
Dyp<,jm
H[e^#\t
N*`)r
F.-<1
'y\x1B[)
T+!5%
s)f2_|
HP~[UVvM
:~5&F
JI(Gk
GIq#4
C:/c2/p4/rom-launch/work/build/vs2015.built/cross2app+standalone/NX64/Release///lua2cpp_common.nrs
C:/c2/p4/rom-launch/work/build/vs2015.built/cross2app+standalone/NX64/Release///lua2cpp_bayonetta.nrs
C:/c2/p4/rom-launch/work/build/vs2015.built/cross2app+standalone/NX64/Release///lua2cpp_captain.nrs
C:/c2/p4/rom-launch/work/build/vs2015.built/cross2app+standalone/NX64/Release///lua2cpp_chrom.nrs
C:/c2/p4/rom-launch/work/build/vs2015.built/cross2app+standalone/NX64/Release///lua2cpp_cloud.nrs
C:/c2/p4/rom-launch/work/build/vs2015.built/cross2app+standalone/NX64/Release///lua2cpp_daisy.nrs
C:/c2/p4/rom-launch/work/build/vs2015.built/cross2app+standalone/NX64/Release///lua2cpp_dedede.nrs
C:/c2/p4/rom-launch/work/build/vs2015.built/cross2app+standalone/NX64/Release///lua2cpp_diddy.nrs
C:/c2/p4/rom-launch/work/build/vs2015.built/cross2app+standalone/NX64/Release///lua2cpp_donkey.nrs
C:/c2/p4/rom-launch/work/build/vs2015.built/cross2app+standalone/NX64/Release///lua2cpp_duckhunt.nrs
C:/c2/p4/rom-launch/work/build/vs2015.built/cross2app+standalone/NX64/Release///lua2cpp_falco.nrs
C:/c2/p4/rom-launch/work/build/vs2015.built/cross2app+standalone/NX64/Release///lua2cpp_fox.nrs
C:/c2/p4/rom-launch/work/build/vs2015.built/cross2app+standalone/NX64/Release///lua2cpp_gamewatch.nrs
C:/c2/p4/rom-launch/work/build/vs2015.built/cross2app+standalone/NX64/Release///lua2cpp_ganon.nrs
C:/c2/p4/rom-launch/work/build/vs2015.built/cross2app+standalone/NX64/Release///lua2cpp_gaogaen.nrs
C:/c2/p4/rom-launch/work/build/vs2015.built/cross2app+standalone/NX64/Release///lua2cpp_gekkouga.nrs
C:/c2/p4/rom-launch/work/build/vs2015.built/cross2app+standalone/NX64/Release///lua2cpp_ike.nrs
C:/c2/p4/rom-launch/work/build/vs2015.built/cross2app+standalone/NX64/Release///lua2cpp_inkling.nrs
C:/c2/p4/rom-launch/work/build/vs2015.built/cross2app+standalone/NX64/Release///lua2cpp_kamui.nrs
C:/c2/p4/rom-launch/work/build/vs2015.built/cross2app+standalone/NX64/Release///lua2cpp_ken.nrs
C:/c2/p4/rom-launch/work/build/vs2015.built/cross2app+standalone/NX64/Release///lua2cpp_kirby.nrs
C:/c2/p4/rom-launch/work/build/vs2015.built/cross2app+standalone/NX64/Release///lua2cpp_koopa.nrs
C:/c2/p4/rom-launch/work/build/vs2015.built/cross2app+standalone/NX64/Release///lua2cpp_koopag.nrs
C:/c2/p4/rom-launch/work/build/vs2015.built/cross2app+standalone/NX64/Release///lua2cpp_koopajr.nrs
C:/c2/p4/rom-launch/work/build/vs2015.built/cross2app+standalone/NX64/Release///lua2cpp_krool.nrs
C:/c2/p4/rom-launch/work/build/vs2015.built/cross2app+standalone/NX64/Release///lua2cpp_link.nrs
C:/c2/p4/rom-launch/work/build/vs2015.built/cross2app+standalone/NX64/Release///lua2cpp_littlemac.nrs
C:/c2/p4/rom-launch/work/build/vs2015.built/cross2app+standalone/NX64/Release///lua2cpp_lucario.nrs
C:/c2/p4/rom-launch/work/build/vs2015.built/cross2app+standalone/NX64/Release///lua2cpp_lucas.nrs
C:/c2/p4/rom-launch/work/build/vs2015.built/cross2app+standalone/NX64/Release///lua2cpp_lucina.nrs
C:/c2/p4/rom-launch/work/build/vs2015.built/cross2app+standalone/NX64/Release///lua2cpp_luigi.nrs
C:/c2/p4/rom-launch/work/build/vs2015.built/cross2app+standalone/NX64/Release///lua2cpp_mario.nrs
C:/c2/p4/rom-launch/work/build/vs2015.built/cross2app+standalone/NX64/Release///lua2cpp_mariod.nrs
C:/c2/p4/rom-launch/work/build/vs2015.built/cross2app+standalone/NX64/Release///lua2cpp_marth.nrs
C:/c2/p4/rom-launch/work/build/vs2015.built/cross2app+standalone/NX64/Release///lua2cpp_metaknight.nrs
C:/c2/p4/rom-launch/work/build/vs2015.built/cross2app+standalone/NX64/Release///lua2cpp_mewtwo.nrs
C:/c2/p4/rom-launch/work/build/vs2015.built/cross2app+standalone/NX64/Release///lua2cpp_miienemyf.nrs
C:/c2/p4/rom-launch/work/build/vs2015.built/cross2app+standalone/NX64/Release///lua2cpp_miienemyg.nrs
C:/c2/p4/rom-launch/work/build/vs2015.built/cross2app+standalone/NX64/Release///lua2cpp_miienemys.nrs
C:/c2/p4/rom-launch/work/build/vs2015.built/cross2app+standalone/NX64/Release///lua2cpp_miifighter.nrs
C:/c2/p4/rom-launch/work/build/vs2015.built/cross2app+standalone/NX64/Release///lua2cpp_miigunner.nrs
C:/c2/p4/rom-launch/work/build/vs2015.built/cross2app+standalone/NX64/Release///lua2cpp_miiswordsman.nrs
C:/c2/p4/rom-launch/work/build/vs2015.built/cross2app+standalone/NX64/Release///lua2cpp_murabito.nrs
C:/c2/p4/rom-launch/work/build/vs2015.built/cross2app+standalone/NX64/Release///lua2cpp_nana.nrs
C:/c2/p4/rom-launch/work/build/vs2015.built/cross2app+standalone/NX64/Release///lua2cpp_ness.nrs
C:/c2/p4/rom-launch/work/build/vs2015.built/cross2app+standalone/NX64/Release///lua2cpp_pacman.nrs
C:/c2/p4/rom-launch/work/build/vs2015.built/cross2app+standalone/NX64/Release///lua2cpp_palutena.nrs
C:/c2/p4/rom-launch/work/build/vs2015.built/cross2app+standalone/NX64/Release///lua2cpp_peach.nrs
C:/c2/p4/rom-launch/work/build/vs2015.built/cross2app+standalone/NX64/Release///lua2cpp_pfushigisou.nrs
C:/c2/p4/rom-launch/work/build/vs2015.built/cross2app+standalone/NX64/Release///lua2cpp_pichu.nrs
C:/c2/p4/rom-launch/work/build/vs2015.built/cross2app+standalone/NX64/Release///lua2cpp_pikachu.nrs
C:/c2/p4/rom-launch/work/build/vs2015.built/cross2app+standalone/NX64/Release///lua2cpp_pikmin.nrs
C:/c2/p4/rom-launch/work/build/vs2015.built/cross2app+standalone/NX64/Release///lua2cpp_pit.nrs
C:/c2/p4/rom-launch/work/build/vs2015.built/cross2app+standalone/NX64/Release///lua2cpp_pitb.nrs
C:/c2/p4/rom-launch/work/build/vs2015.built/cross2app+standalone/NX64/Release///lua2cpp_plizardon.nrs
C:/c2/p4/rom-launch/work/build/vs2015.built/cross2app+standalone/NX64/Release///lua2cpp_popo.nrs
C:/c2/p4/rom-launch/work/build/vs2015.built/cross2app+standalone/NX64/Release///lua2cpp_purin.nrs
C:/c2/p4/rom-launch/work/build/vs2015.built/cross2app+standalone/NX64/Release///lua2cpp_pzenigame.nrs
C:/c2/p4/rom-launch/work/build/vs2015.built/cross2app+standalone/NX64/Release///lua2cpp_reflet.nrs
C:/c2/p4/rom-launch/work/build/vs2015.built/cross2app+standalone/NX64/Release///lua2cpp_richter.nrs
C:/c2/p4/rom-launch/work/build/vs2015.built/cross2app+standalone/NX64/Release///lua2cpp_ridley.nrs
C:/c2/p4/rom-launch/work/build/vs2015.built/cross2app+standalone/NX64/Release///lua2cpp_robot.nrs
C:/c2/p4/rom-launch/work/build/vs2015.built/cross2app+standalone/NX64/Release///lua2cpp_rockman.nrs
C:/c2/p4/rom-launch/work/build/vs2015.built/cross2app+standalone/NX64/Release///lua2cpp_rosetta.nrs
C:/c2/p4/rom-launch/work/build/vs2015.built/cross2app+standalone/NX64/Release///lua2cpp_roy.nrs
C:/c2/p4/rom-launch/work/build/vs2015.built/cross2app+standalone/NX64/Release///lua2cpp_ryu.nrs
C:/c2/p4/rom-launch/work/build/vs2015.built/cross2app+standalone/NX64/Release///lua2cpp_samus.nrs
C:/c2/p4/rom-launch/work/build/vs2015.built/cross2app+standalone/NX64/Release///lua2cpp_samusd.nrs
C:/c2/p4/rom-launch/work/build/vs2015.built/cross2app+standalone/NX64/Release///lua2cpp_sheik.nrs
C:/c2/p4/rom-launch/work/build/vs2015.built/cross2app+standalone/NX64/Release///lua2cpp_shizue.nrs
C:/c2/p4/rom-launch/work/build/vs2015.built/cross2app+standalone/NX64/Release///lua2cpp_shulk.nrs
C:/c2/p4/rom-launch/work/build/vs2015.built/cross2app+standalone/NX64/Release///lua2cpp_simon.nrs
C:/c2/p4/rom-launch/work/build/vs2015.built/cross2app+standalone/NX64/Release///lua2cpp_snake.nrs
C:/c2/p4/rom-launch/work/build/vs2015.built/cross2app+standalone/NX64/Release///lua2cpp_sonic.nrs
C:/c2/p4/rom-launch/work/build/vs2015.built/cross2app+standalone/NX64/Release///lua2cpp_szerosuit.nrs
C:/c2/p4/rom-launch/work/build/vs2015.built/cross2app+standalone/NX64/Release///lua2cpp_toonlink.nrs
C:/c2/p4/rom-launch/work/build/vs2015.built/cross2app+standalone/NX64/Release///lua2cpp_wario.nrs
C:/c2/p4/rom-launch/work/build/vs2015.built/cross2app+standalone/NX64/Release///lua2cpp_wiifit.nrs
C:/c2/p4/rom-launch/work/build/vs2015.built/cross2app+standalone/NX64/Release///lua2cpp_wolf.nrs
C:/c2/p4/rom-launch/work/build/vs2015.built/cross2app+standalone/NX64/Release///lua2cpp_yoshi.nrs
C:/c2/p4/rom-launch/work/build/vs2015.built/cross2app+standalone/NX64/Release///lua2cpp_younglink.nrs
C:/c2/p4/rom-launch/work/build/vs2015.built/cross2app+standalone/NX64/Release///lua2cpp_zelda.nrs
C:/c2/p4/rom-launch/work/build/vs2015.built/cross2app+standalone/NX64/Release///lua2cpp_ptrainer.nrs
C:/c2/p4/rom-launch/work/build/vs2015.built/cross2app+standalone/NX64/Release///lua2cpp_item.nrs
C:/c2/nintendo/NintendoSDK-NXAddon/NintendoSDK/Libraries/NX-NXFP2-a64/Release//multimedia.nss
nnSdk.nss
__nnDetailNintendoSdkRuntimeObjectFile
__nnmusl_fini_dso
__nnmusl_init_dso
__rel_dyn_end
__rel_dyn_start
__rel_plt_end
__rel_plt_start
nnMain
nninitStartup
_ZN2nu9Thread_NX5YieldEv
__cxa_guard_acquire
__cxa_guard_release
_ZNSt3__15mutexD1Ev
_ZN2nu6ResultC1Ei
_ZN2nu6ResultD1Ev
_ZN2nu14GraphicsModuleC1Ev
_ZN2nu14GraphicsModuleD1Ev
_ZN2nu18GraphicsModuleDescC1Ev
_ZN2nn2os11GetHostArgcEv
_ZN2nn2os11GetHostArgvEv
strcmp
__cxa_pure_virtual
_ZdlPv
_ZNKSt3__121__basic_string_commonILb1EE20__throw_length_errorEv
_ZNSt3__15mutex4lockEv
_ZNSt3__15mutex6unlockEv
_ZNK3app14FighterManager17get_fighter_entryENS_14FighterEntryIDE
log10f
_Znwm
_ZN3phx6detail10CRC32Table6table_E
_ZN2nn4util8Vector4f12ConstantZeroE
_ZN3lib9SingletonIN3app14FighterManagerEE9instance_E
_ZN3lib9SingletonIN3app11ItemManagerEE9instance_E
sinf
cosf
sqrtf
_ZN3lib9SingletonIN3app19BattleObjectManagerEE9instance_E
_ZNK3app11ItemManager26get_num_of_active_item_allEv
_ZN3app11ItemManager15get_active_itemEm
_Znam
_ZdaPv
_ZN3lib9SingletonIN3app12StageManagerEE9instance_E
atan2f
_ZNK3app14FighterManager23get_fighter_informationENS_14FighterEntryIDE
_ZNKSt3__120__vector_base_commonILb1EE20__throw_length_errorEv
abort
_ZN3lib9SingletonINS_10LuaManagerEE9instance_E
_ZN3app14KineticUtility16get_jump_speed_yEff
_ZNK3app23FighterMotionModuleImpl16get_cancel_frameEN3phx6Hash40Eb
_ZNSt3__119__shared_weak_count14__release_weakEv
_ZN3lib9SingletonIN3app17ItemParamAccessorEE9instance_E
_ZN3lib9SingletonIN3app16BattleObjectSlowEE9instance_E
_ZN3lib9SingletonIN3app21FighterParamAccessor2EE9instance_E
_ZN3app11ItemManager24find_active_item_from_idEj
_ZNK3app11ItemManager23get_num_of_ownered_itemEjNS_8ItemKindE
_ZNK3app14FighterManager11entry_countEv
_ZN3app23FighterSpecializer_Popo23is_enable_couple_condorERKNS_26BattleObjectModuleAccessorE
_ZN3app2ai9target_idEP9lua_State
_ZN3app2ai15is_valid_targetEP9lua_State
_ZN3app2ai12fighter_kindEP9lua_State
_ZN3app2ai17copy_fighter_kindEP9lua_State
_ZN3app2ai4rankEP9lua_State
_ZN3app2ai7cp_typeEP9lua_State
_ZN3app2ai7cp_flagEP9lua_State
_ZN3app2ai13cp_slide_typeEP9lua_State
_ZN3app2ai6act_idEP9lua_State
_ZN3app2ai27current_attack_cancel_frameEP9lua_State
_ZN3app2ai9uniq_statEP9lua_State
_ZN3app2ai12attack_phaseEP9lua_State
_ZN3app2ai14check_stat_airEP9lua_State
_ZN3app2ai20check_stat_build_maxEP9lua_State
_ZN3app2ai19check_stat_build_upEP9lua_State
_ZN3app2ai19check_stat_gorogoroEP9lua_State
_ZN3app2ai20check_stat_attentionEP9lua_State
_ZN3app2ai16check_stat_finalEP9lua_State
_ZN3app2ai20check_stat_final_actEP9lua_State
_ZN3app2ai21check_stat_invincibleEP9lua_State
_ZN3app2ai22check_stat_damage_elecEP9lua_State
_ZN3app2ai17check_stat_sp_dirEP9lua_State
_ZN3app2ai25check_stat_unguarded_hindEP9lua_State
_ZN3app2ai20check_stat_unguardedEP9lua_State
_ZN3app2ai15check_stat_dashEP9lua_State
_ZN3app2ai15check_stat_piyoEP9lua_State
_ZN3app2ai18check_stat_dragoonEP9lua_State
_ZN3app2ai18check_stat_genesisEP9lua_State
_ZN3app2ai16check_stat_catchEP9lua_State
_ZN3app2ai17check_stat_damageEP9lua_State
_ZN3app2ai16check_stat_guardEP9lua_State
_ZN3app2ai21check_stat_floor_passEP9lua_State
_ZN3app2ai22check_stat_ground_freeEP9lua_State
_ZN3app2ai19check_stat_air_freeEP9lua_State
_ZN3app2ai29check_stat_cannot_catch_cliffEP9lua_State
_ZN3app2ai15check_stat_diveEP9lua_State
_ZN3app2ai27check_stat_unable_cliff_xluEP9lua_State
_ZN3app2ai28check_stat_unable_escape_airEP9lua_State
_ZN3app2ai24check_stat_unable_attackEP9lua_State
_ZN3app2ai25check_stat_unable_specialEP9lua_State
_ZN3app2ai22check_stat_unable_jumpEP9lua_State
_ZN3app2ai24check_stat_unable_shieldEP9lua_State
_ZN3app2ai15check_stat_haveEP9lua_State
_ZN3app2ai19check_stat_put_bombEP9lua_State
_ZN3app2ai28check_stat_can_use_superleafEP9lua_State
_ZN3app2ai29check_stat_can_use_rocketbeltEP9lua_State
_ZN3app2ai21check_stat_have_throwEP9lua_State
_ZN3app2ai21check_stat_have_shootEP9lua_State
_ZN3app2ai21check_stat_have_swingEP9lua_State
_ZN3app2ai25check_stat_dogs_blind_ownEP9lua_State
_ZN3app2ai27check_stat_target_invisibleEP9lua_State
_ZN3app2ai16check_skill_statEP9lua_StateNS_13FighterAIStat11SkillStatusE
_ZN3app2ai24check_spirits_event_statEP9lua_StateNS_13FighterAIStat18SpiritsEventStatusE
_ZN3app2ai14check_chr_statEP9lua_StateNS_13FighterAIStat15CharacterStatusENS_11FighterKindE
_ZN3app2ai15air_lasso_countEP9lua_State
_ZN3app2ai15check_cliffableEP9lua_State
_ZN3app2ai24check_cliffable_floor_lrEP9lua_Statef
_ZN3app2ai14check_passableEP9lua_State
_ZN3app2ai11shield_rateEP9lua_State
_ZN3app2ai10stop_frameEP9lua_State
_ZN3app2ai6heightEP9lua_State
_ZN3app2ai5pos_xEP9lua_State
_ZN3app2ai5pos_yEP9lua_State
_ZN3app2ai7speed_xEP9lua_State
_ZN3app2ai7speed_yEP9lua_State
_ZN3app2ai5scaleEP9lua_State
_ZN3app2ai11status_kindEP9lua_State
_ZN3app2ai16prev_status_kindEP9lua_State
_ZN3app2ai11motion_kindEP9lua_State
_ZN3app2ai12motion_frameEP9lua_State
_ZN3app2ai11motion_rateEP9lua_State
_ZN3app2ai19motion_cancel_frameEP9lua_State
_ZN3app2ai19jump_rest_availableEP9lua_State
_ZN3app2ai17is_sp_u_availableEP9lua_State
_ZN3app2ai24is_sp_u_weaken_availableEP9lua_State
_ZN3app2ai6damageEP9lua_State
_ZN3app2ai2lrEP9lua_State
_ZN3app2ai11customize_nEP9lua_State
_ZN3app2ai11customize_sEP9lua_State
_ZN3app2ai12customize_hiEP9lua_State
_ZN3app2ai12customize_lwEP9lua_State
_ZN3app2ai17check_use_commandEP9lua_State
_ZN3app2ai22check_command_236_stepEP9lua_State
_ZN3app2ai24check_command_41236_stepEP9lua_State
_ZN3app2ai22check_command_214_stepEP9lua_State
_ZN3app2ai22check_command_623_stepEP9lua_State
_ZN3app2ai18fighter_uniq_valueEP9lua_State
_ZN3app2ai18line_segment_checkEP9lua_StateRKN3phx8Vector2fE
_ZN3app2ai28line_segment_check_only_roofEP9lua_StateRKN3phx8Vector2fE
_ZN3app2ai12weapon_pos_xEP9lua_State
_ZN3app2ai12weapon_pos_yEP9lua_State
_ZN3app2ai14weapon_speed_xEP9lua_State
_ZN3app2ai14weapon_speed_yEP9lua_State
_ZN3app2ai19target_fighter_kindEP9lua_State
_ZN3app2ai33target_current_attack_start_frameEP9lua_State
_ZN3app2ai37target_current_attack_combo_end_frameEP9lua_State
_ZN3app2ai34target_current_attack_cancel_frameEP9lua_State
_ZN3app2ai21check_target_stat_airEP9lua_State
_ZN3app2ai27check_target_stat_attentionEP9lua_State
_ZN3app2ai22check_target_stat_deadEP9lua_State
_ZN3app2ai28check_target_stat_invincibleEP9lua_State
_ZN3app2ai30check_target_stat_attack_catchEP9lua_State
_ZN3app2ai25check_target_stat_reflectEP9lua_State
_ZN3app2ai32check_target_stat_unguarded_hindEP9lua_State
_ZN3app2ai27check_target_stat_unguardedEP9lua_State
_ZN3app2ai22check_target_stat_downEP9lua_State
_ZN3app2ai25check_target_stat_fall_spEP9lua_State
_ZN3app2ai22check_target_stat_piyoEP9lua_State
_ZN3app2ai24check_target_stat_piyo_lEP9lua_State
_ZN3app2ai25check_target_stat_dragoonEP9lua_State
_ZN3app2ai23check_target_stat_cliffEP9lua_State
_ZN3app2ai27check_target_stat_cliff_actEP9lua_State
_ZN3app2ai23check_target_stat_catchEP9lua_State
_ZN3app2ai24check_target_stat_damageEP9lua_State
_ZN3app2ai23check_target_stat_guardEP9lua_State
_ZN3app2ai24check_target_stat_escapeEP9lua_State
_ZN3app2ai25check_target_stat_rebirthEP9lua_State
_ZN3app2ai24check_target_stat_attackEP9lua_State
_ZN3app2ai29check_target_stat_attack_holdEP9lua_State
_ZN3app2ai23check_target_stat_squatEP9lua_State
_ZN3app2ai35check_target_stat_specialflag_hoistEP9lua_State
_ZN3app2ai21check_target_chr_statEP9lua_StateNS_13FighterAIStat15CharacterStatusENS_11FighterKindE
_ZN3app2ai12target_widthEP9lua_State
_ZN3app2ai13target_heightEP9lua_State
_ZN3app2ai12target_pos_xEP9lua_State
_ZN3app2ai12target_pos_yEP9lua_State
_ZN3app2ai14target_speed_xEP9lua_State
_ZN3app2ai14target_speed_yEP9lua_State
_ZN3app2ai12target_scaleEP9lua_State
_ZN3app2ai13target_damageEP9lua_State
_ZN3app2ai9target_lrEP9lua_State
_ZN3app2ai18target_status_kindEP9lua_State
_ZN3app2ai18target_motion_kindEP9lua_State
_ZN3app2ai19target_motion_frameEP9lua_State
_ZN3app2ai12lr_to_targetEP9lua_State
_ZN3app2ai20is_looking_at_targetEP9lua_State
_ZN3app2ai18distance_to_targetEP9lua_State
_ZN3app2ai20distance_x_to_targetEP9lua_State
_ZN3app2ai20distance_y_to_targetEP9lua_State
_ZN3app2ai23is_target_on_same_floorEP9lua_State
_ZN3app2ai23check_any_danger_targetEP9lua_State
_ZN3app2ai22floor_edge_distance_lrEP9lua_Statef
_ZN3app2ai21floor_edge_distance_fEP9lua_State
_ZN3app2ai21floor_edge_distance_bEP9lua_State
_ZN3app2ai28floor_edge_distance_floor_lrEP9lua_State
_ZN3app2ai34floor_edge_distance_floor_lr_movedEP9lua_Statef
_ZN3app2ai11floor_widthEP9lua_State
_ZN3app2ai12floor_centerEP9lua_State
_ZN3app2ai8floor_lrEP9lua_State
_ZN3app2ai29target_floor_edge_distance_lrEP9lua_Statef
_ZN3app2ai17check_over_groundEP9lua_State
_ZN3app2ai26check_over_ground_distanceEP9lua_Statef
_ZN3app2ai24check_target_over_groundEP9lua_State
_ZN3app2ai15check_over_goalEP9lua_State
_ZN3app2ai9floor_posEP9lua_Stateb
_ZN3app2ai15floor_pos_movedEP9lua_Statefb
_ZN3app2ai18floor_pos_floor_lrEP9lua_Statefb
_ZN3app2ai10return_posEP9lua_Stateb
_ZN3app2ai15safe_return_posEP9lua_Stateb
_ZN3app2ai8goal_posEP9lua_State
_ZN3app2ai16check_away_floorEP9lua_State
_ZN3app2ai24is_offensive_on_strategyEP9lua_State
_ZN3app2ai24is_defensive_on_strategyEP9lua_State
_ZN3app2ai11press_frameEP9lua_State
_ZN3app2ai9push_waitEP9lua_State
_ZN3app2ai13change_actionEP9lua_Statet
_ZN3app2ai13set_auto_stopEP9lua_Statei
_ZN3app2ai12update_countEP9lua_State
_ZN3app2ai19is_update_count_oddEP9lua_State
_ZN3app2ai18reset_return_countEP9lua_State
_ZN3app2ai19set_no_return_frameEP9lua_Statei
_ZN3app2ai22get_cmd_id_from_req_idEP9lua_StateNS_12FighterAIAct5ReqIdE
_ZN3app2ai35get_cmd_id_from_req_id_with_predictEP9lua_StateNS_12FighterAIAct5ReqIdEff
_ZN3app2ai31get_cmd_probability_from_req_idEP9lua_StateNS_12FighterAIAct5ReqIdENS3_5CmdIdE
_ZN3app2ai14enable_commandEP9lua_StateNS_12FighterAIAct5CmdIdE
_ZN3app2ai15disable_commandEP9lua_StateNS_12FighterAIAct5CmdIdE
_ZN3app2ai26disable_command_ground_allEP9lua_State
_ZN3app2ai23disable_command_air_allEP9lua_State
_ZN3app2ai32reset_cmd_id_probability_add_2ndEP9lua_State
_ZN3app2ai30set_cmd_id_probability_add_2ndEP9lua_StateNS_12FighterAIAct5CmdIdEf
_ZN3app2ai32reset_cmd_id_probability_mul_2ndEP9lua_State
_ZN3app2ai30set_cmd_id_probability_mul_2ndEP9lua_StateNS_12FighterAIAct5CmdIdEf
_ZN3app2ai26get_cmd_id_probability_mulEP9lua_StateNS_12FighterAIAct5CmdIdE
_ZN3app2ai21predict_landing_frameEP9lua_State
_ZN3app2ai28predict_target_landing_frameEP9lua_State
_ZN3app2ai28predict_hit_in_target_attackEP9lua_StateNS_12FighterAIAct5CmdIdEff
_ZN3app2ai40predict_hit_in_target_attack_from_motionEP9lua_StateN3phx6Hash40Eff
_ZN3app2ai28predict_target_hit_in_attackEP9lua_StateNS_12FighterAIAct5CmdIdEfff
_ZN3app2ai35check_line_segment_vs_target_attackEP9lua_StateN3phx6Hash40ERKNS3_8Vector2fES7_RNS3_8Vector4fE
_ZN3app2ai18attack_start_frameEP9lua_StateNS_12FighterAIAct5CmdIdE
_ZN3app2ai25target_attack_start_frameEP9lua_StateNS_12FighterAIAct5CmdIdE
_ZN3app2ai16attack_end_frameEP9lua_StateNS_12FighterAIAct5CmdIdE
_ZN3app2ai19attack_cancel_frameEP9lua_StateNS_12FighterAIAct5CmdIdE
_ZN3app2ai14attack_data_x1EP9lua_StateN3phx6Hash40E
_ZN3app2ai22attack_info_needs_turnEP9lua_StateNS_12FighterAIAct5CmdIdE
_ZN3app2ai20attack_info_reactionEP9lua_StateNS_12FighterAIAct5CmdIdE
_ZN3app2ai18attack_info_meteorEP9lua_StateNS_12FighterAIAct5CmdIdE
_ZN3app2ai23attack_info_reflectableEP9lua_StateNS_12FighterAIAct5CmdIdE
_ZN3app2ai19attack_is_as_weaponEP9lua_StateNS_12FighterAIAct5CmdIdE
_ZN3app2ai20attack_info_distanceEP9lua_StateNS_12FighterAIAct5CmdIdE
_ZN3app2ai16motion_to_cmd_idEP9lua_StateN3phx6Hash40E
_ZN3app2ai28target_attack_info_no_shieldEP9lua_StateNS_12FighterAIAct5CmdIdE
_ZN3app2ai23target_motion_to_cmd_idEP9lua_StateN3phx6Hash40E
_ZN3app2ai32current_attack_combo_next_motionEP9lua_State
_ZN3app2ai39target_current_attack_combo_next_motionEP9lua_State
_ZN3app2ai37target_attack_start_frame_from_motionEP9lua_StateN3phx6Hash40E
_ZN3app15ai_notify_event11status_kindEP9lua_State
_ZN3app15ai_notify_event11motion_kindEP9lua_State
_ZN3app13ai_deprecated8range_inEP9lua_Stateff
_ZN3app13ai_deprecated11distance_inEP9lua_Stateff
_ZN3app13ai_deprecated8other_inEP9lua_Stateff
_ZN3app13ai_deprecated17get_target_vectorEP9lua_Statef
_ZN3app13ai_deprecated13get_safe_fallEP9lua_State
_ZN3app13ai_deprecated21get_safe_fall_currentEP9lua_State
_ZN3app13ai_deprecated18find_meteor_targetEP9lua_State
_ZN3app9ai_weapon14have_item_kindEP9lua_State
_ZN3app9ai_weapon20most_earliest_weaponEP9lua_State
_ZN3app9ai_weapon23most_earliest_hit_frameEP9lua_State
_ZN3app9ai_weapon4typeEP9lua_StatePKNS_15FighterAIWeaponE
_ZN3app9ai_weapon4kindEP9lua_StatePKNS_15FighterAIWeaponE
_ZN3app9ai_weapon4flagEP9lua_StatePKNS_15FighterAIWeaponE
_ZN3app9ai_weapon7speed_xEP9lua_StatePKNS_15FighterAIWeaponE
_ZN3app9ai_weapon12speed_lengthEP9lua_StatePKNS_15FighterAIWeaponE
_ZN3app9ai_camera8dead_topEv
_ZN3app9ai_camera11dead_bottomEv
_ZN3app9ai_camera9dead_leftEv
_ZN3app9ai_camera10dead_rightEv
_ZN3app8ai_stage10current_idEv
_ZN3app8ai_stage8is_smallEv
_ZN3app8ai_stage10is_gimmickEv
_ZN3app8ai_stage9is_smoothEv
_ZN3app13ai_dangerzone8is_existEv
_ZN3app13ai_dangerzone18check_line_segmentEP9lua_StateRKN3phx8Vector2fES6_
_ZN3app13ai_dangerzone10center_posEi
_ZN3app13ai_dangerzone5widthEi
_ZN3app7ai_rule17is_blow_rate_highEP9lua_State
_ZN3app8ai_param5widthEP9lua_State
_ZN3app8ai_param9jump_highEP9lua_State
_ZN3app8ai_param8air_highEP9lua_State
_ZN3app8ai_param10air_lengthEP9lua_State
_ZN3app8ai_param9sp_u_highEP9lua_State
_ZN3app8ai_param11sp_u_lengthEP9lua_State
_ZN3app8ai_param19return_sp_u_cliff_xEP9lua_State
_ZN3app8ai_param19return_sp_u_cliff_yEP9lua_State
_ZN3app8ai_param13return_goal_xEP9lua_State
_ZN3app8ai_param20return_goal_x_strictEP9lua_State
_ZN3app8ai_param24return_goal_pad_x_strictEP9lua_State
_ZN3app8ai_param25catch_attack_cancel_frameEP9lua_State
_ZN3app8ai_param10jump_g_mulEP9lua_State
_ZN3app8ai_param6jump_gEP9lua_State
_ZN3app8ai_param16fall_speed_y_maxEP9lua_State
_ZN3app8ai_param16dive_speed_y_maxEP9lua_State
_ZN3app8ai_param30escape_air_slide_move_distanceEP9lua_State
_ZN3app8ai_param23escape_air_cancel_frameEP9lua_State
_ZN3app8ai_param17num_of_attack_123EP9lua_State
_ZN3app8ai_param14has_attack_100EP9lua_State
_ZN3app8ai_param10closed_mulEP9lua_State
_ZN3app8ai_param12my_range_mulEP9lua_State
_ZN3app8ai_param14safe_range_mulEP9lua_State
_ZN3app8ai_param10opened_mulEP9lua_State
_ZN3app8ai_param12range_middleEP9lua_State
_ZN3app8ai_param10range_longEP9lua_State
_ZN3app8ai_param19target_range_middleEP9lua_State
_ZN3app8ai_param17target_range_longEP9lua_State
_ZN3app8ai_param15wire_length_minEP9lua_State
_ZN3app8ai_param15wire_length_maxEP9lua_State
_ZN3app8ai_param16wire_reach_frameEP9lua_State
_ZN3app8ai_param10wire_rangeEP9lua_State
_ZN3app8ai_param17wire_range_offsetEP9lua_State
_ZN3app8ai_param18zako2_search_rangeEP9lua_State
_ZN3app8ai_param23training_smash_intervalEP9lua_State
_ZN3app8ai_param25training_special_intervalEP9lua_State
_ZN3app8ai_param21challenger_guard_rateEP9lua_State
_ZN3app3nfp10is_enabledEP9lua_State
_ZN3app3nfp13has_air_catchENS_11FighterKindE
_ZN3app3nfp16personality_rateEP9lua_StateNS_18NfpPersonalityKindE
_ZN3app3nfp24personality_rate_inverseEP9lua_StateNS_18NfpPersonalityKindE
_ZN3app3nfp19personality_up_rateEP9lua_StateNS_18NfpPersonalityKindE
_ZN3app3nfp21personality_down_rateEP9lua_StateNS_18NfpPersonalityKindE
_ZN3app3nfp23personality_probabilityEP9lua_StateNS_18NfpPersonalityKindE
_ZN3app3nfp31personality_probability_inverseEP9lua_StateNS_18NfpPersonalityKindE
_ZN3app3nfp11param_floatEN3phx6Hash40E
_ZN3app9ai_system9add_stickEP9lua_StateRKN3phx8Vector2fE
_ZN3app9ai_system13add_stick_absEP9lua_StateRKN3phx8Vector2fE
_ZN3app9ai_system13add_stick_degEP9lua_Statef
_ZN3app9ai_system11reset_stickEP9lua_State
_ZN3app9ai_system10add_buttonEP9lua_StateNS_20ControlPadButtonKindE
_ZN3app9ai_system18set_action_id_noneEP9lua_State
_ZN3app9ai_system16set_update_countEP9lua_Statei
_ZN3app9ai_system18change_mode_actionEP9lua_State
_ZN3app9ai_system4modeEP9lua_State
_ZN3app9ai_system9prev_modeEP9lua_State
_ZN3app9ai_system11change_modeEP9lua_StateNS_9FighterAI4ModeE
_ZN3app9ai_system13change_targetEP9lua_State
_ZN3app9ai_system20change_target_randomEP9lua_State
_ZN3app9ai_random9range_intEii
_ZN3app9ai_system28is_input_available_for_entryEP9lua_State
_ZN3app9ai_random9get_floatEv
_ZN3app9ai_random11range_floatEff
_ZN3app9ai_random10is_percentEf
_ZN3app10ai_utility8get_kindEj
_ZN3app7analyst13change_statusEP9lua_StateNS_16FighterAIAnalyst8AIStatusE
_ZN3app7analyst6statusEP9lua_State
_ZN3app7analyst11status_prevEP9lua_State
_ZN3app7analyst13target_statusEP9lua_State
_ZN3app7analyst18target_status_prevEP9lua_State
_ZN3app7analyst12status_countEP9lua_State
_ZN3app7analyst19target_status_countEP9lua_State
_ZN3app7analyst17set_chanced_frameEP9lua_Statei
_ZN3app7analyst13chanced_frameEP9lua_State
_ZN3app7analyst20target_chanced_frameEP9lua_State
_ZN3app8ai_debug20set_mode_action_nameEP9lua_StatePKc
_ZN3app8ai_debug13draw_line_redERKN3phx8Vector2fES4_i
_ZN3app8ai_debug15draw_line_greenERKN3phx8Vector2fES4_i
_ZN3app8ai_debug15draw_circle_redERKN3phx8Vector2fEfi
_ZN3app8ai_debug17draw_circle_greenERKN3phx8Vector2fEfi
_ZN3app9ai_koopag27move_interval_min_level_minEv
_ZNK3app17ItemParamAccessor20get_self_param_floatENS_8ItemKindEN3phx6Hash40E
_ZN3app9ai_koopag27move_interval_min_level_maxEv
_ZN3app9ai_koopag27move_interval_max_level_minEv
_ZN3app9ai_koopag27move_interval_max_level_maxEv
_ZN3app9ai_koopag38move_interval_random_add_min_level_minEv
_ZN3app9ai_koopag38move_interval_random_add_min_level_maxEv
_ZN3app9ai_koopag38move_interval_random_add_max_level_minEv
_ZN3app9ai_koopag38move_interval_random_add_max_level_maxEv
_ZN3app9ai_koopag37move_interval_0_probability_level_minEv
_ZN3app9ai_koopag37move_interval_0_probability_level_maxEv
_ZN3app9ai_koopag29attack_interval_min_level_minEv
_ZN3app9ai_koopag29attack_interval_min_level_maxEv
_ZN3app9ai_koopag29attack_interval_max_level_minEv
_ZN3app9ai_koopag29attack_interval_max_level_maxEv
_ZN3app9ai_koopag40attack_interval_random_add_min_level_minEv
_ZN3app9ai_koopag40attack_interval_random_add_min_level_maxEv
_ZN3app9ai_koopag40attack_interval_random_add_max_level_minEv
_ZN3app9ai_koopag40attack_interval_random_add_max_level_maxEv
_ZN3app9ai_koopag39attack_interval_0_probability_level_minEv
_ZN3app9ai_koopag39attack_interval_0_probability_level_maxEv
_ZN3app9ai_koopag29attack_interval_on_initializeEv
_ZN3app9ai_koopag18special_n_intervalEv
_ZN7lua2cpp36create_agent_fighter_ai_action_marioEN3phx6Hash40EPN3app12BattleObjectEPNS2_26BattleObjectModuleAccessorEP9lua_State
_ZN7lua2cpp37create_agent_fighter_ai_action_donkeyEN3phx6Hash40EPN3app12BattleObjectEPNS2_26BattleObjectModuleAccessorEP9lua_State
_ZN7lua2cpp35create_agent_fighter_ai_action_linkEN3phx6Hash40EPN3app12BattleObjectEPNS2_26BattleObjectModuleAccessorEP9lua_State
_ZN7lua2cpp36create_agent_fighter_ai_action_samusEN3phx6Hash40EPN3app12BattleObjectEPNS2_26BattleObjectModuleAccessorEP9lua_State
_ZN7lua2cpp37create_agent_fighter_ai_action_samusdEN3phx6Hash40EPN3app12BattleObjectEPNS2_26BattleObjectModuleAccessorEP9lua_State
_ZN7lua2cpp36create_agent_fighter_ai_action_yoshiEN3phx6Hash40EPN3app12BattleObjectEPNS2_26BattleObjectModuleAccessorEP9lua_State
_ZN7lua2cpp36create_agent_fighter_ai_action_kirbyEN3phx6Hash40EPN3app12BattleObjectEPNS2_26BattleObjectModuleAccessorEP9lua_State
_ZN7lua2cpp34create_agent_fighter_ai_action_foxEN3phx6Hash40EPN3app12BattleObjectEPNS2_26BattleObjectModuleAccessorEP9lua_State
_ZN7lua2cpp38create_agent_fighter_ai_action_pikachuEN3phx6Hash40EPN3app12BattleObjectEPNS2_26BattleObjectModuleAccessorEP9lua_State
_ZN7lua2cpp36create_agent_fighter_ai_action_luigiEN3phx6Hash40EPN3app12BattleObjectEPNS2_26BattleObjectModuleAccessorEP9lua_State
_ZN7lua2cpp35create_agent_fighter_ai_action_nessEN3phx6Hash40EPN3app12BattleObjectEPNS2_26BattleObjectModuleAccessorEP9lua_State
_ZN7lua2cpp38create_agent_fighter_ai_action_captainEN3phx6Hash40EPN3app12BattleObjectEPNS2_26BattleObjectModuleAccessorEP9lua_State
_ZN7lua2cpp36create_agent_fighter_ai_action_purinEN3phx6Hash40EPN3app12BattleObjectEPNS2_26BattleObjectModuleAccessorEP9lua_State
_ZN7lua2cpp36create_agent_fighter_ai_action_peachEN3phx6Hash40EPN3app12BattleObjectEPNS2_26BattleObjectModuleAccessorEP9lua_State
_ZN7lua2cpp36create_agent_fighter_ai_action_daisyEN3phx6Hash40EPN3app12BattleObjectEPNS2_26BattleObjectModuleAccessorEP9lua_State
_ZN7lua2cpp36create_agent_fighter_ai_action_koopaEN3phx6Hash40EPN3app12BattleObjectEPNS2_26BattleObjectModuleAccessorEP9lua_State
_ZN7lua2cpp36create_agent_fighter_ai_action_sheikEN3phx6Hash40EPN3app12BattleObjectEPNS2_26BattleObjectModuleAccessorEP9lua_State
_ZN7lua2cpp36create_agent_fighter_ai_action_zeldaEN3phx6Hash40EPN3app12BattleObjectEPNS2_26BattleObjectModuleAccessorEP9lua_State
_ZN7lua2cpp37create_agent_fighter_ai_action_mariodEN3phx6Hash40EPN3app12BattleObjectEPNS2_26BattleObjectModuleAccessorEP9lua_State
_ZN7lua2cpp36create_agent_fighter_ai_action_pichuEN3phx6Hash40EPN3app12BattleObjectEPNS2_26BattleObjectModuleAccessorEP9lua_State
_ZN7lua2cpp36create_agent_fighter_ai_action_falcoEN3phx6Hash40EPN3app12BattleObjectEPNS2_26BattleObjectModuleAccessorEP9lua_State
_ZN7lua2cpp36create_agent_fighter_ai_action_marthEN3phx6Hash40EPN3app12BattleObjectEPNS2_26BattleObjectModuleAccessorEP9lua_State
_ZN7lua2cpp37create_agent_fighter_ai_action_lucinaEN3phx6Hash40EPN3app12BattleObjectEPNS2_26BattleObjectModuleAccessorEP9lua_State
_ZN7lua2cpp40create_agent_fighter_ai_action_younglinkEN3phx6Hash40EPN3app12BattleObjectEPNS2_26BattleObjectModuleAccessorEP9lua_State
_ZN7lua2cpp36create_agent_fighter_ai_action_ganonEN3phx6Hash40EPN3app12BattleObjectEPNS2_26BattleObjectModuleAccessorEP9lua_State
_ZN7lua2cpp37create_agent_fighter_ai_action_mewtwoEN3phx6Hash40EPN3app12BattleObjectEPNS2_26BattleObjectModuleAccessorEP9lua_State
_ZN7lua2cpp34create_agent_fighter_ai_action_royEN3phx6Hash40EPN3app12BattleObjectEPNS2_26BattleObjectModuleAccessorEP9lua_State
_ZN7lua2cpp36create_agent_fighter_ai_action_chromEN3phx6Hash40EPN3app12BattleObjectEPNS2_26BattleObjectModuleAccessorEP9lua_State
_ZN7lua2cpp40create_agent_fighter_ai_action_gamewatchEN3phx6Hash40EPN3app12BattleObjectEPNS2_26BattleObjectModuleAccessorEP9lua_State
_ZN7lua2cpp41create_agent_fighter_ai_action_metaknightEN3phx6Hash40EPN3app12BattleObjectEPNS2_26BattleObjectModuleAccessorEP9lua_State
_ZN7lua2cpp34create_agent_fighter_ai_action_pitEN3phx6Hash40EPN3app12BattleObjectEPNS2_26BattleObjectModuleAccessorEP9lua_State
_ZN7lua2cpp35create_agent_fighter_ai_action_pitbEN3phx6Hash40EPN3app12BattleObjectEPNS2_26BattleObjectModuleAccessorEP9lua_State
_ZN7lua2cpp40create_agent_fighter_ai_action_szerosuitEN3phx6Hash40EPN3app12BattleObjectEPNS2_26BattleObjectModuleAccessorEP9lua_State
_ZN7lua2cpp36create_agent_fighter_ai_action_warioEN3phx6Hash40EPN3app12BattleObjectEPNS2_26BattleObjectModuleAccessorEP9lua_State
_ZN7lua2cpp36create_agent_fighter_ai_action_snakeEN3phx6Hash40EPN3app12BattleObjectEPNS2_26BattleObjectModuleAccessorEP9lua_State
_ZN7lua2cpp34create_agent_fighter_ai_action_ikeEN3phx6Hash40EPN3app12BattleObjectEPNS2_26BattleObjectModuleAccessorEP9lua_State
_ZN7lua2cpp40create_agent_fighter_ai_action_pzenigameEN3phx6Hash40EPN3app12BattleObjectEPNS2_26BattleObjectModuleAccessorEP9lua_State
_ZN7lua2cpp42create_agent_fighter_ai_action_pfushigisouEN3phx6Hash40EPN3app12BattleObjectEPNS2_26BattleObjectModuleAccessorEP9lua_State
_ZN7lua2cpp40create_agent_fighter_ai_action_plizardonEN3phx6Hash40EPN3app12BattleObjectEPNS2_26BattleObjectModuleAccessorEP9lua_State
_ZN7lua2cpp36create_agent_fighter_ai_action_diddyEN3phx6Hash40EPN3app12BattleObjectEPNS2_26BattleObjectModuleAccessorEP9lua_State
_ZN7lua2cpp36create_agent_fighter_ai_action_lucasEN3phx6Hash40EPN3app12BattleObjectEPNS2_26BattleObjectModuleAccessorEP9lua_State
_ZN7lua2cpp36create_agent_fighter_ai_action_sonicEN3phx6Hash40EPN3app12BattleObjectEPNS2_26BattleObjectModuleAccessorEP9lua_State
_ZN7lua2cpp37create_agent_fighter_ai_action_dededeEN3phx6Hash40EPN3app12BattleObjectEPNS2_26BattleObjectModuleAccessorEP9lua_State
_ZN7lua2cpp37create_agent_fighter_ai_action_pikminEN3phx6Hash40EPN3app12BattleObjectEPNS2_26BattleObjectModuleAccessorEP9lua_State
_ZN7lua2cpp38create_agent_fighter_ai_action_lucarioEN3phx6Hash40EPN3app12BattleObjectEPNS2_26BattleObjectModuleAccessorEP9lua_State
_ZN7lua2cpp36create_agent_fighter_ai_action_robotEN3phx6Hash40EPN3app12BattleObjectEPNS2_26BattleObjectModuleAccessorEP9lua_State
_ZN7lua2cpp39create_agent_fighter_ai_action_toonlinkEN3phx6Hash40EPN3app12BattleObjectEPNS2_26BattleObjectModuleAccessorEP9lua_State
_ZN7lua2cpp35create_agent_fighter_ai_action_wolfEN3phx6Hash40EPN3app12BattleObjectEPNS2_26BattleObjectModuleAccessorEP9lua_State
_ZN7lua2cpp39create_agent_fighter_ai_action_murabitoEN3phx6Hash40EPN3app12BattleObjectEPNS2_26BattleObjectModuleAccessorEP9lua_State
_ZN7lua2cpp38create_agent_fighter_ai_action_rockmanEN3phx6Hash40EPN3app12BattleObjectEPNS2_26BattleObjectModuleAccessorEP9lua_State
_ZN7lua2cpp37create_agent_fighter_ai_action_wiifitEN3phx6Hash40EPN3app12BattleObjectEPNS2_26BattleObjectModuleAccessorEP9lua_State
_ZN7lua2cpp38create_agent_fighter_ai_action_rosettaEN3phx6Hash40EPN3app12BattleObjectEPNS2_26BattleObjectModuleAccessorEP9lua_State
_ZN7lua2cpp40create_agent_fighter_ai_action_littlemacEN3phx6Hash40EPN3app12BattleObjectEPNS2_26BattleObjectModuleAccessorEP9lua_State
_ZN7lua2cpp39create_agent_fighter_ai_action_gekkougaEN3phx6Hash40EPN3app12BattleObjectEPNS2_26BattleObjectModuleAccessorEP9lua_State
_ZN7lua2cpp39create_agent_fighter_ai_action_palutenaEN3phx6Hash40EPN3app12BattleObjectEPNS2_26BattleObjectModuleAccessorEP9lua_State
_ZN7lua2cpp37create_agent_fighter_ai_action_pacmanEN3phx6Hash40EPN3app12BattleObjectEPNS2_26BattleObjectModuleAccessorEP9lua_State
_ZN7lua2cpp37create_agent_fighter_ai_action_refletEN3phx6Hash40EPN3app12BattleObjectEPNS2_26BattleObjectModuleAccessorEP9lua_State
_ZN7lua2cpp36create_agent_fighter_ai_action_shulkEN3phx6Hash40EPN3app12BattleObjectEPNS2_26BattleObjectModuleAccessorEP9lua_State
_ZN7lua2cpp38create_agent_fighter_ai_action_koopajrEN3phx6Hash40EPN3app12BattleObjectEPNS2_26BattleObjectModuleAccessorEP9lua_State
_ZN7lua2cpp39create_agent_fighter_ai_action_duckhuntEN3phx6Hash40EPN3app12BattleObjectEPNS2_26BattleObjectModuleAccessorEP9lua_State
_ZN7lua2cpp34create_agent_fighter_ai_action_ryuEN3phx6Hash40EPN3app12BattleObjectEPNS2_26BattleObjectModuleAccessorEP9lua_State
_ZN7lua2cpp34create_agent_fighter_ai_action_kenEN3phx6Hash40EPN3app12BattleObjectEPNS2_26BattleObjectModuleAccessorEP9lua_State
_ZN7lua2cpp36create_agent_fighter_ai_action_cloudEN3phx6Hash40EPN3app12BattleObjectEPNS2_26BattleObjectModuleAccessorEP9lua_State
_ZN7lua2cpp36create_agent_fighter_ai_action_kamuiEN3phx6Hash40EPN3app12BattleObjectEPNS2_26BattleObjectModuleAccessorEP9lua_State
_ZN7lua2cpp40create_agent_fighter_ai_action_bayonettaEN3phx6Hash40EPN3app12BattleObjectEPNS2_26BattleObjectModuleAccessorEP9lua_State
_ZN7lua2cpp38create_agent_fighter_ai_action_inklingEN3phx6Hash40EPN3app12BattleObjectEPNS2_26BattleObjectModuleAccessorEP9lua_State
_ZN7lua2cpp37create_agent_fighter_ai_action_ridleyEN3phx6Hash40EPN3app12BattleObjectEPNS2_26BattleObjectModuleAccessorEP9lua_State
_ZN7lua2cpp36create_agent_fighter_ai_action_simonEN3phx6Hash40EPN3app12BattleObjectEPNS2_26BattleObjectModuleAccessorEP9lua_State
_ZN7lua2cpp38create_agent_fighter_ai_action_richterEN3phx6Hash40EPN3app12BattleObjectEPNS2_26BattleObjectModuleAccessorEP9lua_State
_ZN7lua2cpp36create_agent_fighter_ai_action_kroolEN3phx6Hash40EPN3app12BattleObjectEPNS2_26BattleObjectModuleAccessorEP9lua_State
_ZN7lua2cpp37create_agent_fighter_ai_action_shizueEN3phx6Hash40EPN3app12BattleObjectEPNS2_26BattleObjectModuleAccessorEP9lua_State
_ZN7lua2cpp38create_agent_fighter_ai_action_gaogaenEN3phx6Hash40EPN3app12BattleObjectEPNS2_26BattleObjectModuleAccessorEP9lua_State
_ZN7lua2cpp41create_agent_fighter_ai_action_miifighterEN3phx6Hash40EPN3app12BattleObjectEPNS2_26BattleObjectModuleAccessorEP9lua_State
_ZN7lua2cpp43create_agent_fighter_ai_action_miiswordsmanEN3phx6Hash40EPN3app12BattleObjectEPNS2_26BattleObjectModuleAccessorEP9lua_State
_ZN7lua2cpp40create_agent_fighter_ai_action_miigunnerEN3phx6Hash40EPN3app12BattleObjectEPNS2_26BattleObjectModuleAccessorEP9lua_State
_ZN7lua2cpp35create_agent_fighter_ai_action_popoEN3phx6Hash40EPN3app12BattleObjectEPNS2_26BattleObjectModuleAccessorEP9lua_State
_ZN7lua2cpp35create_agent_fighter_ai_action_nanaEN3phx6Hash40EPN3app12BattleObjectEPNS2_26BattleObjectModuleAccessorEP9lua_State
_ZN7lua2cpp37create_agent_fighter_ai_action_koopagEN3phx6Hash40EPN3app12BattleObjectEPNS2_26BattleObjectModuleAccessorEP9lua_State
_ZN7lua2cpp40create_agent_fighter_ai_action_miienemyfEN3phx6Hash40EPN3app12BattleObjectEPNS2_26BattleObjectModuleAccessorEP9lua_State
_ZN7lua2cpp40create_agent_fighter_ai_action_miienemysEN3phx6Hash40EPN3app12BattleObjectEPNS2_26BattleObjectModuleAccessorEP9lua_State
_ZN7lua2cpp40create_agent_fighter_ai_action_miienemygEN3phx6Hash40EPN3app12BattleObjectEPNS2_26BattleObjectModuleAccessorEP9lua_State
_ZN7lua2cpp34create_agent_fighter_ai_mode_marioEN3phx6Hash40EPN3app12BattleObjectEPNS2_26BattleObjectModuleAccessorEP9lua_State
_ZN7lua2cpp35create_agent_fighter_ai_mode_donkeyEN3phx6Hash40EPN3app12BattleObjectEPNS2_26BattleObjectModuleAccessorEP9lua_State
_ZN7lua2cpp33create_agent_fighter_ai_mode_linkEN3phx6Hash40EPN3app12BattleObjectEPNS2_26BattleObjectModuleAccessorEP9lua_State
_ZN7lua2cpp34create_agent_fighter_ai_mode_samusEN3phx6Hash40EPN3app12BattleObjectEPNS2_26BattleObjectModuleAccessorEP9lua_State
_ZN7lua2cpp35create_agent_fighter_ai_mode_samusdEN3phx6Hash40EPN3app12BattleObjectEPNS2_26BattleObjectModuleAccessorEP9lua_State
_ZN7lua2cpp34create_agent_fighter_ai_mode_yoshiEN3phx6Hash40EPN3app12BattleObjectEPNS2_26BattleObjectModuleAccessorEP9lua_State
_ZN7lua2cpp34create_agent_fighter_ai_mode_kirbyEN3phx6Hash40EPN3app12BattleObjectEPNS2_26BattleObjectModuleAccessorEP9lua_State
_ZN7lua2cpp32create_agent_fighter_ai_mode_foxEN3phx6Hash40EPN3app12BattleObjectEPNS2_26BattleObjectModuleAccessorEP9lua_State
_ZN7lua2cpp36create_agent_fighter_ai_mode_pikachuEN3phx6Hash40EPN3app12BattleObjectEPNS2_26BattleObjectModuleAccessorEP9lua_State
_ZN7lua2cpp34create_agent_fighter_ai_mode_luigiEN3phx6Hash40EPN3app12BattleObjectEPNS2_26BattleObjectModuleAccessorEP9lua_State
_ZN7lua2cpp33create_agent_fighter_ai_mode_nessEN3phx6Hash40EPN3app12BattleObjectEPNS2_26BattleObjectModuleAccessorEP9lua_State
_ZN7lua2cpp36create_agent_fighter_ai_mode_captainEN3phx6Hash40EPN3app12BattleObjectEPNS2_26BattleObjectModuleAccessorEP9lua_State
_ZN7lua2cpp34create_agent_fighter_ai_mode_purinEN3phx6Hash40EPN3app12BattleObjectEPNS2_26BattleObjectModuleAccessorEP9lua_State
_ZN7lua2cpp34create_agent_fighter_ai_mode_peachEN3phx6Hash40EPN3app12BattleObjectEPNS2_26BattleObjectModuleAccessorEP9lua_State
_ZN7lua2cpp34create_agent_fighter_ai_mode_daisyEN3phx6Hash40EPN3app12BattleObjectEPNS2_26BattleObjectModuleAccessorEP9lua_State
_ZN7lua2cpp34create_agent_fighter_ai_mode_koopaEN3phx6Hash40EPN3app12BattleObjectEPNS2_26BattleObjectModuleAccessorEP9lua_State
_ZN7lua2cpp34create_agent_fighter_ai_mode_sheikEN3phx6Hash40EPN3app12BattleObjectEPNS2_26BattleObjectModuleAccessorEP9lua_State
_ZN7lua2cpp34create_agent_fighter_ai_mode_zeldaEN3phx6Hash40EPN3app12BattleObjectEPNS2_26BattleObjectModuleAccessorEP9lua_State
_ZN7lua2cpp35create_agent_fighter_ai_mode_mariodEN3phx6Hash40EPN3app12BattleObjectEPNS2_26BattleObjectModuleAccessorEP9lua_State
_ZN7lua2cpp34create_agent_fighter_ai_mode_pichuEN3phx6Hash40EPN3app12BattleObjectEPNS2_26BattleObjectModuleAccessorEP9lua_State
_ZN7lua2cpp34create_agent_fighter_ai_mode_falcoEN3phx6Hash40EPN3app12BattleObjectEPNS2_26BattleObjectModuleAccessorEP9lua_State
_ZN7lua2cpp34create_agent_fighter_ai_mode_marthEN3phx6Hash40EPN3app12BattleObjectEPNS2_26BattleObjectModuleAccessorEP9lua_State
_ZN7lua2cpp35create_agent_fighter_ai_mode_lucinaEN3phx6Hash40EPN3app12BattleObjectEPNS2_26BattleObjectModuleAccessorEP9lua_State
_ZN7lua2cpp38create_agent_fighter_ai_mode_younglinkEN3phx6Hash40EPN3app12BattleObjectEPNS2_26BattleObjectModuleAccessorEP9lua_State
_ZN7lua2cpp34create_agent_fighter_ai_mode_ganonEN3phx6Hash40EPN3app12BattleObjectEPNS2_26BattleObjectModuleAccessorEP9lua_State
_ZN7lua2cpp35create_agent_fighter_ai_mode_mewtwoEN3phx6Hash40EPN3app12BattleObjectEPNS2_26BattleObjectModuleAccessorEP9lua_State
_ZN7lua2cpp32create_agent_fighter_ai_mode_royEN3phx6Hash40EPN3app12BattleObjectEPNS2_26BattleObjectModuleAccessorEP9lua_State
_ZN7lua2cpp34create_agent_fighter_ai_mode_chromEN3phx6Hash40EPN3app12BattleObjectEPNS2_26BattleObjectModuleAccessorEP9lua_State
_ZN7lua2cpp38create_agent_fighter_ai_mode_gamewatchEN3phx6Hash40EPN3app12BattleObjectEPNS2_26BattleObjectModuleAccessorEP9lua_State
_ZN7lua2cpp39create_agent_fighter_ai_mode_metaknightEN3phx6Hash40EPN3app12BattleObjectEPNS2_26BattleObjectModuleAccessorEP9lua_State
_ZN7lua2cpp32create_agent_fighter_ai_mode_pitEN3phx6Hash40EPN3app12BattleObjectEPNS2_26BattleObjectModuleAccessorEP9lua_State
_ZN7lua2cpp33create_agent_fighter_ai_mode_pitbEN3phx6Hash40EPN3app12BattleObjectEPNS2_26BattleObjectModuleAccessorEP9lua_State
_ZN7lua2cpp38create_agent_fighter_ai_mode_szerosuitEN3phx6Hash40EPN3app12BattleObjectEPNS2_26BattleObjectModuleAccessorEP9lua_State
_ZN7lua2cpp34create_agent_fighter_ai_mode_warioEN3phx6Hash40EPN3app12BattleObjectEPNS2_26BattleObjectModuleAccessorEP9lua_State
_ZN7lua2cpp34create_agent_fighter_ai_mode_snakeEN3phx6Hash40EPN3app12BattleObjectEPNS2_26BattleObjectModuleAccessorEP9lua_State
_ZN7lua2cpp32create_agent_fighter_ai_mode_ikeEN3phx6Hash40EPN3app12BattleObjectEPNS2_26BattleObjectModuleAccessorEP9lua_State
_ZN7lua2cpp38create_agent_fighter_ai_mode_pzenigameEN3phx6Hash40EPN3app12BattleObjectEPNS2_26BattleObjectModuleAccessorEP9lua_State
_ZN7lua2cpp40create_agent_fighter_ai_mode_pfushigisouEN3phx6Hash40EPN3app12BattleObjectEPNS2_26BattleObjectModuleAccessorEP9lua_State
_ZN7lua2cpp38create_agent_fighter_ai_mode_plizardonEN3phx6Hash40EPN3app12BattleObjectEPNS2_26BattleObjectModuleAccessorEP9lua_State
_ZN7lua2cpp34create_agent_fighter_ai_mode_diddyEN3phx6Hash40EPN3app12BattleObjectEPNS2_26BattleObjectModuleAccessorEP9lua_State
_ZN7lua2cpp34create_agent_fighter_ai_mode_lucasEN3phx6Hash40EPN3app12BattleObjectEPNS2_26BattleObjectModuleAccessorEP9lua_State
_ZN7lua2cpp34create_agent_fighter_ai_mode_sonicEN3phx6Hash40EPN3app12BattleObjectEPNS2_26BattleObjectModuleAccessorEP9lua_State
_ZN7lua2cpp35create_agent_fighter_ai_mode_dededeEN3phx6Hash40EPN3app12BattleObjectEPNS2_26BattleObjectModuleAccessorEP9lua_State
_ZN7lua2cpp35create_agent_fighter_ai_mode_pikminEN3phx6Hash40EPN3app12BattleObjectEPNS2_26BattleObjectModuleAccessorEP9lua_State
_ZN7lua2cpp36create_agent_fighter_ai_mode_lucarioEN3phx6Hash40EPN3app12BattleObjectEPNS2_26BattleObjectModuleAccessorEP9lua_State
_ZN7lua2cpp34create_agent_fighter_ai_mode_robotEN3phx6Hash40EPN3app12BattleObjectEPNS2_26BattleObjectModuleAccessorEP9lua_State
_ZN7lua2cpp37create_agent_fighter_ai_mode_toonlinkEN3phx6Hash40EPN3app12BattleObjectEPNS2_26BattleObjectModuleAccessorEP9lua_State
_ZN7lua2cpp33create_agent_fighter_ai_mode_wolfEN3phx6Hash40EPN3app12BattleObjectEPNS2_26BattleObjectModuleAccessorEP9lua_State
_ZN7lua2cpp37create_agent_fighter_ai_mode_murabitoEN3phx6Hash40EPN3app12BattleObjectEPNS2_26BattleObjectModuleAccessorEP9lua_State
_ZN7lua2cpp36create_agent_fighter_ai_mode_rockmanEN3phx6Hash40EPN3app12BattleObjectEPNS2_26BattleObjectModuleAccessorEP9lua_State
_ZN7lua2cpp35create_agent_fighter_ai_mode_wiifitEN3phx6Hash40EPN3app12BattleObjectEPNS2_26BattleObjectModuleAccessorEP9lua_State
_ZN7lua2cpp36create_agent_fighter_ai_mode_rosettaEN3phx6Hash40EPN3app12BattleObjectEPNS2_26BattleObjectModuleAccessorEP9lua_State
_ZN7lua2cpp38create_agent_fighter_ai_mode_littlemacEN3phx6Hash40EPN3app12BattleObjectEPNS2_26BattleObjectModuleAccessorEP9lua_State
_ZN7lua2cpp37create_agent_fighter_ai_mode_gekkougaEN3phx6Hash40EPN3app12BattleObjectEPNS2_26BattleObjectModuleAccessorEP9lua_State
_ZN7lua2cpp37create_agent_fighter_ai_mode_palutenaEN3phx6Hash40EPN3app12BattleObjectEPNS2_26BattleObjectModuleAccessorEP9lua_State
_ZN7lua2cpp35create_agent_fighter_ai_mode_pacmanEN3phx6Hash40EPN3app12BattleObjectEPNS2_26BattleObjectModuleAccessorEP9lua_State
_ZN7lua2cpp35create_agent_fighter_ai_mode_refletEN3phx6Hash40EPN3app12BattleObjectEPNS2_26BattleObjectModuleAccessorEP9lua_State
_ZN7lua2cpp34create_agent_fighter_ai_mode_shulkEN3phx6Hash40EPN3app12BattleObjectEPNS2_26BattleObjectModuleAccessorEP9lua_State
_ZN7lua2cpp36create_agent_fighter_ai_mode_koopajrEN3phx6Hash40EPN3app12BattleObjectEPNS2_26BattleObjectModuleAccessorEP9lua_State
_ZN7lua2cpp37create_agent_fighter_ai_mode_duckhuntEN3phx6Hash40EPN3app12BattleObjectEPNS2_26BattleObjectModuleAccessorEP9lua_State
_ZN7lua2cpp32create_agent_fighter_ai_mode_ryuEN3phx6Hash40EPN3app12BattleObjectEPNS2_26BattleObjectModuleAccessorEP9lua_State
_ZN7lua2cpp32create_agent_fighter_ai_mode_kenEN3phx6Hash40EPN3app12BattleObjectEPNS2_26BattleObjectModuleAccessorEP9lua_State
_ZN7lua2cpp34create_agent_fighter_ai_mode_cloudEN3phx6Hash40EPN3app12BattleObjectEPNS2_26BattleObjectModuleAccessorEP9lua_State
_ZN7lua2cpp34create_agent_fighter_ai_mode_kamuiEN3phx6Hash40EPN3app12BattleObjectEPNS2_26BattleObjectModuleAccessorEP9lua_State
_ZN7lua2cpp38create_agent_fighter_ai_mode_bayonettaEN3phx6Hash40EPN3app12BattleObjectEPNS2_26BattleObjectModuleAccessorEP9lua_State
_ZN7lua2cpp36create_agent_fighter_ai_mode_inklingEN3phx6Hash40EPN3app12BattleObjectEPNS2_26BattleObjectModuleAccessorEP9lua_State
_ZN7lua2cpp35create_agent_fighter_ai_mode_ridleyEN3phx6Hash40EPN3app12BattleObjectEPNS2_26BattleObjectModuleAccessorEP9lua_State
_ZN7lua2cpp34create_agent_fighter_ai_mode_simonEN3phx6Hash40EPN3app12BattleObjectEPNS2_26BattleObjectModuleAccessorEP9lua_State
_ZN7lua2cpp36create_agent_fighter_ai_mode_richterEN3phx6Hash40EPN3app12BattleObjectEPNS2_26BattleObjectModuleAccessorEP9lua_State
_ZN7lua2cpp34create_agent_fighter_ai_mode_kroolEN3phx6Hash40EPN3app12BattleObjectEPNS2_26BattleObjectModuleAccessorEP9lua_State
_ZN7lua2cpp35create_agent_fighter_ai_mode_shizueEN3phx6Hash40EPN3app12BattleObjectEPNS2_26BattleObjectModuleAccessorEP9lua_State
_ZN7lua2cpp36create_agent_fighter_ai_mode_gaogaenEN3phx6Hash40EPN3app12BattleObjectEPNS2_26BattleObjectModuleAccessorEP9lua_State
_ZN7lua2cpp39create_agent_fighter_ai_mode_miifighterEN3phx6Hash40EPN3app12BattleObjectEPNS2_26BattleObjectModuleAccessorEP9lua_State
_ZN7lua2cpp41create_agent_fighter_ai_mode_miiswordsmanEN3phx6Hash40EPN3app12BattleObjectEPNS2_26BattleObjectModuleAccessorEP9lua_State
_ZN7lua2cpp38create_agent_fighter_ai_mode_miigunnerEN3phx6Hash40EPN3app12BattleObjectEPNS2_26BattleObjectModuleAccessorEP9lua_State
_ZN7lua2cpp33create_agent_fighter_ai_mode_popoEN3phx6Hash40EPN3app12BattleObjectEPNS2_26BattleObjectModuleAccessorEP9lua_State
_ZN7lua2cpp33create_agent_fighter_ai_mode_nanaEN3phx6Hash40EPN3app12BattleObjectEPNS2_26BattleObjectModuleAccessorEP9lua_State
_ZN7lua2cpp35create_agent_fighter_ai_mode_koopagEN3phx6Hash40EPN3app12BattleObjectEPNS2_26BattleObjectModuleAccessorEP9lua_State
_ZN7lua2cpp38create_agent_fighter_ai_mode_miienemyfEN3phx6Hash40EPN3app12BattleObjectEPNS2_26BattleObjectModuleAccessorEP9lua_State
_ZN7lua2cpp38create_agent_fighter_ai_mode_miienemysEN3phx6Hash40EPN3app12BattleObjectEPNS2_26BattleObjectModuleAccessorEP9lua_State
_ZN7lua2cpp38create_agent_fighter_ai_mode_miienemygEN3phx6Hash40EPN3app12BattleObjectEPNS2_26BattleObjectModuleAccessorEP9lua_State
_ZN7lua2cpp38create_agent_fighter_ai_analyst_commonEN3phx6Hash40EPN3app12BattleObjectEPNS2_26BattleObjectModuleAccessorEP9lua_State
_ZN3lib7utility8VariadicC1Ev
_ZN3lib7utility8VariadicD1Ev
_ZNKSt3__120__vector_base_commonILb1EE20__throw_out_of_rangeEv
memcmp
vsnprintf
_ZN3app19BattleObjectManager28is_active_find_battle_objectEj
_ZNK3app4Item8owner_idEv
_ZN2nn4util8Vector3f12ConstantZeroE
_ZNSt3__115recursive_mutexD2Ev
_ZNSt3__115recursive_mutexC2Ev
_ZNSt3__115recursive_mutex4lockEv
_ZNSt3__115recursive_mutex6unlockEv
_ZN3lib9SingletonIN3app17BattleObjectWorldEE9instance_E
_ZN2nn4util6detail15FloatPiDivided2E
_ZN2nn4util6detail7FloatPiE
_ZN2nn4util6detail15SinCoefficientsE
_ZN2nn4util6detail15CosCoefficientsE
_ZN2nn4util6detail16Float1Divided2PiE
_ZN2nn4util6detail8Float2PiE
_ZN2nn4util6detail22FloatQuaternionEpsilonE
_ZNSt3__112__next_primeEm
ceilf
_ZN3app11FighterUtil14get_team_colorERKNS_26BattleObjectModuleAccessorE
_ZNKSt3__119__shared_weak_count13__get_deleterERKSt9type_info
_ZNSt3__119__shared_weak_countD2Ev
_ZN2nn4util8Vector3f13ConstantUnitXE
_ZN2nn4util8Vector3f13ConstantUnitYE
_ZN2nn4util8Vector3f13ConstantUnitZE
tanf
_ZTVN3app16LinkEventCaptureE
_ZTVN3app9LinkEventE
acosf
_ZN3app20DamageTransactorImpl19calc_reaction_frameEf
floorf
_ZN3lib9SingletonINS_13EffectManagerEE9instance_E
_ZNSt3__115recursive_mutexC1Ev
_ZNSt3__115recursive_mutexD1Ev
_ZN3app17SlopeModuleSimple13gravity_angleERKNS_26BattleObjectModuleAccessorE
_ZN3lib13EffectManager7set_posEjRKN3phx8Vector3fE
_ZN3lib13EffectManager8is_existEj
_ZN3app13GroundUtility15check_dead_areaERKN3phx8Vector3fE
_ZN3lib9SingletonIN3app19FighterCutInManagerEE9instance_E
_ZN3app13GroundUtility16check_dead_area2ERKN3phx8Vector3fEff
_ZN3app13GroundUtility18get_degree_gravityERKN3phx8Vector3fEf
_ZNK3app4Item6is_hadEb
_ZNK3app4Item16common_param_intENS_18ItemCommonParamIntE
_ZN3app4Item12throw_attackEfRKN3phx8Vector3fEf
_ZN3app4Item4fallEfRKN3phx8Vector3fE
_ZN3app11ItemManager19remove_item_from_idEj
_ZN3app11ItemManager29find_active_item_from_area_idEj
_ZN3app14KineticUtility15brake_speed_subEffff
_ZN3app14KineticUtility19reset_enable_energyEiRNS_26BattleObjectModuleAccessorEiRKN3phx8Vector2fERKNS3_8Vector3fE
_ZN3app14KineticUtility19clear_unable_energyEiRNS_26BattleObjectModuleAccessorE
_ZTVN3app14LinkEventThrowE
_ZTVN3app12LinkEventPosE
_ZNSt3__119__shared_weak_count4lockEv
modff
_ZN2nn4util10Quaternion16ConstantIdentityE
_ZN3app19FighterCutInManager13request_startERNS_26BattleObjectModuleAccessorEPNS_15CutInTransactorENS_9CutInTypeEPKNS_9CutInDataENS_13CutInPriorityE
_ZNK3app14FighterManager12get_entry_idEi
_ZN3app12StageManager14stage_all_stopEb
_ZN3app14FighterManager25set_controller_rumble_allEN3phx6Hash40Eibj
_ZN3app11BossManager21notify_on_boss_defeatENS_11FighterKindE
_ZN3app11BossManager19notify_on_boss_deadENS_11FighterKindE
_ZN3lib9SingletonIN3app11BossManagerEE9instance_E
atanf
asinf
_ZNSt3__112basic_stringIcNS_11char_traitsIcEENS_9allocatorIcEEEC1ERKS5_
powf
sprintf
swprintf
fmodf
_ZN2nn4util8Vector3f11ConstantOneE
_ZN3app14FighterManager30notify_log_event_collision_hitEjjfib
_ZNK3app14FighterManager12get_entry_noENS_14FighterEntryIDE
_ZNK3app12FighterEntry18current_fighter_idEv
_ZN3app11FighterUtil24is_miienemy_fighter_kindEi
_ZN3app11FighterUtil24get_shield_type_of_guardEi
_ZN3app19FighterCutInManager11request_endEv
_ZNK3app14FighterManager16one_on_one_ratioEv
_ZN3app14FighterManager9set_finalENS_14FighterEntryIDENS_21FighterAvailableFinalEj
_ZN3app11FighterUtil14exec_big_smallERNS_26BattleObjectModuleAccessorE
_ZNK3app21FighterStopModuleImpl14is_damage_stopEv
_ZNK3app19FighterCutInManager7is_playEv
_ZNK3app23FighterMotionModuleImpl21is_valid_cancel_frameEib
_ZN3app11FighterUtil14exit_big_smallERNS_26BattleObjectModuleAccessorE
_ZNK3app18FighterInformation10dead_countEi
_ZN3app11FighterUtil14flash_eye_infoERNS_26BattleObjectModuleAccessorE
_ZN3app11FighterUtil33get_ground_correct_kind_air_transERNS_26BattleObjectModuleAccessorEi
_ZNK3app14FighterManager23get_top_rank_player_numEv
_ZNK3app14FighterManager19get_top_rank_playerEi
_ZN3app21GimmickEventPresenter27dispatch_event_from_fighterERNS_12GimmickEventE
_ZN3app11FighterUtil21get_effect_team_colorENS_10EColorKindEN3phx6Hash40E
_ZNK3app4Item23specialized_param_floatENS_25ItemSpecializedParamFloatE
_ZN3app11FighterUtil18get_item_fix_scaleERNS_26BattleObjectModuleAccessorEii
_ZN3app23FighterMotionModuleImpl18add_body_type_hashEN3phx6Hash40Ei
_ZN3app11FighterUtil23tread_remove_constraintERNS_26BattleObjectModuleAccessorE
_ZN3app11FighterUtil27set_face_motion_by_priorityERNS_26BattleObjectModuleAccessorENS_13FighterFacialEN3phx6Hash40E
_ZN3app11FighterUtil30cancel_face_motion_by_priorityERNS_26BattleObjectModuleAccessorENS_13FighterFacialE
_ZNK3app14FighterManager24get_final_actor_entry_idEv
_ZNK3app21FighterStopModuleImpl21get_damage_stop_frameEv
_ZNK3app18FighterInformation13suicide_countEi
_ZNK3app18FighterInformation16total_beat_countEi
_ZTVN3app12GimmickEventE
_ZTVN3app18GimmickEventBarrelE
_ZTVN3app17GimmickEventCatchE
_ZN3lib9SingletonIN3app21GimmickEventPresenterEE9instance_E
_ZN7lua2cpp40create_agent_fighter_status_script_marioEN3phx6Hash40EPN3app12BattleObjectEPNS2_26BattleObjectModuleAccessorEP9lua_State
_ZN7lua2cpp41create_agent_fighter_status_script_donkeyEN3phx6Hash40EPN3app12BattleObjectEPNS2_26BattleObjectModuleAccessorEP9lua_State
_ZN7lua2cpp39create_agent_fighter_status_script_linkEN3phx6Hash40EPN3app12BattleObjectEPNS2_26BattleObjectModuleAccessorEP9lua_State
_ZN7lua2cpp40create_agent_fighter_status_script_samusEN3phx6Hash40EPN3app12BattleObjectEPNS2_26BattleObjectModuleAccessorEP9lua_State
_ZN7lua2cpp41create_agent_fighter_status_script_samusdEN3phx6Hash40EPN3app12BattleObjectEPNS2_26BattleObjectModuleAccessorEP9lua_State
_ZN7lua2cpp40create_agent_fighter_status_script_yoshiEN3phx6Hash40EPN3app12BattleObjectEPNS2_26BattleObjectModuleAccessorEP9lua_State
_ZN7lua2cpp40create_agent_fighter_status_script_kirbyEN3phx6Hash40EPN3app12BattleObjectEPNS2_26BattleObjectModuleAccessorEP9lua_State
_ZN7lua2cpp38create_agent_fighter_status_script_foxEN3phx6Hash40EPN3app12BattleObjectEPNS2_26BattleObjectModuleAccessorEP9lua_State
_ZN7lua2cpp42create_agent_fighter_status_script_pikachuEN3phx6Hash40EPN3app12BattleObjectEPNS2_26BattleObjectModuleAccessorEP9lua_State
_ZN7lua2cpp40create_agent_fighter_status_script_luigiEN3phx6Hash40EPN3app12BattleObjectEPNS2_26BattleObjectModuleAccessorEP9lua_State
_ZN7lua2cpp39create_agent_fighter_status_script_nessEN3phx6Hash40EPN3app12BattleObjectEPNS2_26BattleObjectModuleAccessorEP9lua_State
_ZN7lua2cpp42create_agent_fighter_status_script_captainEN3phx6Hash40EPN3app12BattleObjectEPNS2_26BattleObjectModuleAccessorEP9lua_State
_ZN7lua2cpp40create_agent_fighter_status_script_purinEN3phx6Hash40EPN3app12BattleObjectEPNS2_26BattleObjectModuleAccessorEP9lua_State
_ZN7lua2cpp40create_agent_fighter_status_script_peachEN3phx6Hash40EPN3app12BattleObjectEPNS2_26BattleObjectModuleAccessorEP9lua_State
_ZN7lua2cpp40create_agent_fighter_status_script_daisyEN3phx6Hash40EPN3app12BattleObjectEPNS2_26BattleObjectModuleAccessorEP9lua_State
_ZN7lua2cpp40create_agent_fighter_status_script_koopaEN3phx6Hash40EPN3app12BattleObjectEPNS2_26BattleObjectModuleAccessorEP9lua_State
_ZN7lua2cpp40create_agent_fighter_status_script_sheikEN3phx6Hash40EPN3app12BattleObjectEPNS2_26BattleObjectModuleAccessorEP9lua_State
_ZN7lua2cpp40create_agent_fighter_status_script_zeldaEN3phx6Hash40EPN3app12BattleObjectEPNS2_26BattleObjectModuleAccessorEP9lua_State
_ZN7lua2cpp41create_agent_fighter_status_script_mariodEN3phx6Hash40EPN3app12BattleObjectEPNS2_26BattleObjectModuleAccessorEP9lua_State
_ZN7lua2cpp40create_agent_fighter_status_script_pichuEN3phx6Hash40EPN3app12BattleObjectEPNS2_26BattleObjectModuleAccessorEP9lua_State
_ZN7lua2cpp40create_agent_fighter_status_script_falcoEN3phx6Hash40EPN3app12BattleObjectEPNS2_26BattleObjectModuleAccessorEP9lua_State
_ZN7lua2cpp40create_agent_fighter_status_script_marthEN3phx6Hash40EPN3app12BattleObjectEPNS2_26BattleObjectModuleAccessorEP9lua_State
_ZN7lua2cpp41create_agent_fighter_status_script_lucinaEN3phx6Hash40EPN3app12BattleObjectEPNS2_26BattleObjectModuleAccessorEP9lua_State
_ZN7lua2cpp44create_agent_fighter_status_script_younglinkEN3phx6Hash40EPN3app12BattleObjectEPNS2_26BattleObjectModuleAccessorEP9lua_State
_ZN7lua2cpp40create_agent_fighter_status_script_ganonEN3phx6Hash40EPN3app12BattleObjectEPNS2_26BattleObjectModuleAccessorEP9lua_State
_ZN7lua2cpp41create_agent_fighter_status_script_mewtwoEN3phx6Hash40EPN3app12BattleObjectEPNS2_26BattleObjectModuleAccessorEP9lua_State
_ZN7lua2cpp38create_agent_fighter_status_script_royEN3phx6Hash40EPN3app12BattleObjectEPNS2_26BattleObjectModuleAccessorEP9lua_State
_ZN7lua2cpp40create_agent_fighter_status_script_chromEN3phx6Hash40EPN3app12BattleObjectEPNS2_26BattleObjectModuleAccessorEP9lua_State
_ZN7lua2cpp44create_agent_fighter_status_script_gamewatchEN3phx6Hash40EPN3app12BattleObjectEPNS2_26BattleObjectModuleAccessorEP9lua_State
_ZN7lua2cpp45create_agent_fighter_status_script_metaknightEN3phx6Hash40EPN3app12BattleObjectEPNS2_26BattleObjectModuleAccessorEP9lua_State
_ZN7lua2cpp38create_agent_fighter_status_script_pitEN3phx6Hash40EPN3app12BattleObjectEPNS2_26BattleObjectModuleAccessorEP9lua_State
_ZN7lua2cpp39create_agent_fighter_status_script_pitbEN3phx6Hash40EPN3app12BattleObjectEPNS2_26BattleObjectModuleAccessorEP9lua_State
_ZN7lua2cpp44create_agent_fighter_status_script_szerosuitEN3phx6Hash40EPN3app12BattleObjectEPNS2_26BattleObjectModuleAccessorEP9lua_State
_ZN7lua2cpp40create_agent_fighter_status_script_warioEN3phx6Hash40EPN3app12BattleObjectEPNS2_26BattleObjectModuleAccessorEP9lua_State
_ZN7lua2cpp40create_agent_fighter_status_script_snakeEN3phx6Hash40EPN3app12BattleObjectEPNS2_26BattleObjectModuleAccessorEP9lua_State
_ZN7lua2cpp38create_agent_fighter_status_script_ikeEN3phx6Hash40EPN3app12BattleObjectEPNS2_26BattleObjectModuleAccessorEP9lua_State
_ZN7lua2cpp44create_agent_fighter_status_script_pzenigameEN3phx6Hash40EPN3app12BattleObjectEPNS2_26BattleObjectModuleAccessorEP9lua_State
_ZN7lua2cpp46create_agent_fighter_status_script_pfushigisouEN3phx6Hash40EPN3app12BattleObjectEPNS2_26BattleObjectModuleAccessorEP9lua_State
_ZN7lua2cpp44create_agent_fighter_status_script_plizardonEN3phx6Hash40EPN3app12BattleObjectEPNS2_26BattleObjectModuleAccessorEP9lua_State
_ZN7lua2cpp40create_agent_fighter_status_script_diddyEN3phx6Hash40EPN3app12BattleObjectEPNS2_26BattleObjectModuleAccessorEP9lua_State
_ZN7lua2cpp40create_agent_fighter_status_script_lucasEN3phx6Hash40EPN3app12BattleObjectEPNS2_26BattleObjectModuleAccessorEP9lua_State
_ZN7lua2cpp40create_agent_fighter_status_script_sonicEN3phx6Hash40EPN3app12BattleObjectEPNS2_26BattleObjectModuleAccessorEP9lua_State
_ZN7lua2cpp41create_agent_fighter_status_script_dededeEN3phx6Hash40EPN3app12BattleObjectEPNS2_26BattleObjectModuleAccessorEP9lua_State
_ZN7lua2cpp41create_agent_fighter_status_script_pikminEN3phx6Hash40EPN3app12BattleObjectEPNS2_26BattleObjectModuleAccessorEP9lua_State
_ZN7lua2cpp42create_agent_fighter_status_script_lucarioEN3phx6Hash40EPN3app12BattleObjectEPNS2_26BattleObjectModuleAccessorEP9lua_State
_ZN7lua2cpp40create_agent_fighter_status_script_robotEN3phx6Hash40EPN3app12BattleObjectEPNS2_26BattleObjectModuleAccessorEP9lua_State
_ZN7lua2cpp43create_agent_fighter_status_script_toonlinkEN3phx6Hash40EPN3app12BattleObjectEPNS2_26BattleObjectModuleAccessorEP9lua_State
_ZN7lua2cpp39create_agent_fighter_status_script_wolfEN3phx6Hash40EPN3app12BattleObjectEPNS2_26BattleObjectModuleAccessorEP9lua_State
_ZN7lua2cpp43create_agent_fighter_status_script_murabitoEN3phx6Hash40EPN3app12BattleObjectEPNS2_26BattleObjectModuleAccessorEP9lua_State
_ZN7lua2cpp42create_agent_fighter_status_script_rockmanEN3phx6Hash40EPN3app12BattleObjectEPNS2_26BattleObjectModuleAccessorEP9lua_State
_ZN7lua2cpp41create_agent_fighter_status_script_wiifitEN3phx6Hash40EPN3app12BattleObjectEPNS2_26BattleObjectModuleAccessorEP9lua_State
_ZN7lua2cpp42create_agent_fighter_status_script_rosettaEN3phx6Hash40EPN3app12BattleObjectEPNS2_26BattleObjectModuleAccessorEP9lua_State
_ZN7lua2cpp44create_agent_fighter_status_script_littlemacEN3phx6Hash40EPN3app12BattleObjectEPNS2_26BattleObjectModuleAccessorEP9lua_State
_ZN7lua2cpp43create_agent_fighter_status_script_gekkougaEN3phx6Hash40EPN3app12BattleObjectEPNS2_26BattleObjectModuleAccessorEP9lua_State
_ZN7lua2cpp43create_agent_fighter_status_script_palutenaEN3phx6Hash40EPN3app12BattleObjectEPNS2_26BattleObjectModuleAccessorEP9lua_State
_ZN7lua2cpp41create_agent_fighter_status_script_pacmanEN3phx6Hash40EPN3app12BattleObjectEPNS2_26BattleObjectModuleAccessorEP9lua_State
_ZN7lua2cpp41create_agent_fighter_status_script_refletEN3phx6Hash40EPN3app12BattleObjectEPNS2_26BattleObjectModuleAccessorEP9lua_State
_ZN7lua2cpp40create_agent_fighter_status_script_shulkEN3phx6Hash40EPN3app12BattleObjectEPNS2_26BattleObjectModuleAccessorEP9lua_State
_ZN7lua2cpp42create_agent_fighter_status_script_koopajrEN3phx6Hash40EPN3app12BattleObjectEPNS2_26BattleObjectModuleAccessorEP9lua_State
_ZN7lua2cpp43create_agent_fighter_status_script_duckhuntEN3phx6Hash40EPN3app12BattleObjectEPNS2_26BattleObjectModuleAccessorEP9lua_State
_ZN7lua2cpp38create_agent_fighter_status_script_ryuEN3phx6Hash40EPN3app12BattleObjectEPNS2_26BattleObjectModuleAccessorEP9lua_State
_ZN7lua2cpp38create_agent_fighter_status_script_kenEN3phx6Hash40EPN3app12BattleObjectEPNS2_26BattleObjectModuleAccessorEP9lua_State
_ZN7lua2cpp40create_agent_fighter_status_script_cloudEN3phx6Hash40EPN3app12BattleObjectEPNS2_26BattleObjectModuleAccessorEP9lua_State
_ZN7lua2cpp40create_agent_fighter_status_script_kamuiEN3phx6Hash40EPN3app12BattleObjectEPNS2_26BattleObjectModuleAccessorEP9lua_State
_ZN7lua2cpp44create_agent_fighter_status_script_bayonettaEN3phx6Hash40EPN3app12BattleObjectEPNS2_26BattleObjectModuleAccessorEP9lua_State
_ZN7lua2cpp42create_agent_fighter_status_script_inklingEN3phx6Hash40EPN3app12BattleObjectEPNS2_26BattleObjectModuleAccessorEP9lua_State
_ZN7lua2cpp41create_agent_fighter_status_script_ridleyEN3phx6Hash40EPN3app12BattleObjectEPNS2_26BattleObjectModuleAccessorEP9lua_State
_ZN7lua2cpp40create_agent_fighter_status_script_simonEN3phx6Hash40EPN3app12BattleObjectEPNS2_26BattleObjectModuleAccessorEP9lua_State
_ZN7lua2cpp42create_agent_fighter_status_script_richterEN3phx6Hash40EPN3app12BattleObjectEPNS2_26BattleObjectModuleAccessorEP9lua_State
_ZN7lua2cpp40create_agent_fighter_status_script_kroolEN3phx6Hash40EPN3app12BattleObjectEPNS2_26BattleObjectModuleAccessorEP9lua_State
_ZN7lua2cpp41create_agent_fighter_status_script_shizueEN3phx6Hash40EPN3app12BattleObjectEPNS2_26BattleObjectModuleAccessorEP9lua_State
_ZN7lua2cpp42create_agent_fighter_status_script_gaogaenEN3phx6Hash40EPN3app12BattleObjectEPNS2_26BattleObjectModuleAccessorEP9lua_State
_ZN7lua2cpp45create_agent_fighter_status_script_miifighterEN3phx6Hash40EPN3app12BattleObjectEPNS2_26BattleObjectModuleAccessorEP9lua_State
_ZN7lua2cpp47create_agent_fighter_status_script_miiswordsmanEN3phx6Hash40EPN3app12BattleObjectEPNS2_26BattleObjectModuleAccessorEP9lua_State
_ZN7lua2cpp44create_agent_fighter_status_script_miigunnerEN3phx6Hash40EPN3app12BattleObjectEPNS2_26BattleObjectModuleAccessorEP9lua_State
_ZN7lua2cpp39create_agent_fighter_status_script_popoEN3phx6Hash40EPN3app12BattleObjectEPNS2_26BattleObjectModuleAccessorEP9lua_State
_ZN7lua2cpp39create_agent_fighter_status_script_nanaEN3phx6Hash40EPN3app12BattleObjectEPNS2_26BattleObjectModuleAccessorEP9lua_State
_ZN7lua2cpp41create_agent_fighter_status_script_koopagEN3phx6Hash40EPN3app12BattleObjectEPNS2_26BattleObjectModuleAccessorEP9lua_State
_ZN7lua2cpp44create_agent_fighter_status_script_miienemyfEN3phx6Hash40EPN3app12BattleObjectEPNS2_26BattleObjectModuleAccessorEP9lua_State
_ZN7lua2cpp44create_agent_fighter_status_script_miienemysEN3phx6Hash40EPN3app12BattleObjectEPNS2_26BattleObjectModuleAccessorEP9lua_State
_ZN7lua2cpp44create_agent_fighter_status_script_miienemygEN3phx6Hash40EPN3app12BattleObjectEPNS2_26BattleObjectModuleAccessorEP9lua_State
_ZN7lua2cpp42create_agent_fighter_animcmd_effect_commonEN3phx6Hash40EPN3app12BattleObjectEPNS2_26BattleObjectModuleAccessorEP9lua_State
_ZN7lua2cpp39create_agent_fighter_animcmd_game_marioEN3phx6Hash40EPN3app12BattleObjectEPNS2_26BattleObjectModuleAccessorEP9lua_State
_ZN7lua2cpp40create_agent_fighter_animcmd_game_donkeyEN3phx6Hash40EPN3app12BattleObjectEPNS2_26BattleObjectModuleAccessorEP9lua_State
_ZN7lua2cpp38create_agent_fighter_animcmd_game_linkEN3phx6Hash40EPN3app12BattleObjectEPNS2_26BattleObjectModuleAccessorEP9lua_State
_ZN7lua2cpp39create_agent_fighter_animcmd_game_samusEN3phx6Hash40EPN3app12BattleObjectEPNS2_26BattleObjectModuleAccessorEP9lua_State
_ZN7lua2cpp40create_agent_fighter_animcmd_game_samusdEN3phx6Hash40EPN3app12BattleObjectEPNS2_26BattleObjectModuleAccessorEP9lua_State
_ZN7lua2cpp39create_agent_fighter_animcmd_game_yoshiEN3phx6Hash40EPN3app12BattleObjectEPNS2_26BattleObjectModuleAccessorEP9lua_State
_ZN7lua2cpp39create_agent_fighter_animcmd_game_kirbyEN3phx6Hash40EPN3app12BattleObjectEPNS2_26BattleObjectModuleAccessorEP9lua_State
_ZN7lua2cpp37create_agent_fighter_animcmd_game_foxEN3phx6Hash40EPN3app12BattleObjectEPNS2_26BattleObjectModuleAccessorEP9lua_State
_ZN7lua2cpp41create_agent_fighter_animcmd_game_pikachuEN3phx6Hash40EPN3app12BattleObjectEPNS2_26BattleObjectModuleAccessorEP9lua_State
_ZN7lua2cpp39create_agent_fighter_animcmd_game_luigiEN3phx6Hash40EPN3app12BattleObjectEPNS2_26BattleObjectModuleAccessorEP9lua_State
_ZN7lua2cpp38create_agent_fighter_animcmd_game_nessEN3phx6Hash40EPN3app12BattleObjectEPNS2_26BattleObjectModuleAccessorEP9lua_State
_ZN7lua2cpp41create_agent_fighter_animcmd_game_captainEN3phx6Hash40EPN3app12BattleObjectEPNS2_26BattleObjectModuleAccessorEP9lua_State
_ZN7lua2cpp39create_agent_fighter_animcmd_game_purinEN3phx6Hash40EPN3app12BattleObjectEPNS2_26BattleObjectModuleAccessorEP9lua_State
_ZN7lua2cpp39create_agent_fighter_animcmd_game_peachEN3phx6Hash40EPN3app12BattleObjectEPNS2_26BattleObjectModuleAccessorEP9lua_State
_ZN7lua2cpp39create_agent_fighter_animcmd_game_daisyEN3phx6Hash40EPN3app12BattleObjectEPNS2_26BattleObjectModuleAccessorEP9lua_State
_ZN7lua2cpp39create_agent_fighter_animcmd_game_koopaEN3phx6Hash40EPN3app12BattleObjectEPNS2_26BattleObjectModuleAccessorEP9lua_State
_ZN7lua2cpp39create_agent_fighter_animcmd_game_sheikEN3phx6Hash40EPN3app12BattleObjectEPNS2_26BattleObjectModuleAccessorEP9lua_State
_ZN7lua2cpp39create_agent_fighter_animcmd_game_zeldaEN3phx6Hash40EPN3app12BattleObjectEPNS2_26BattleObjectModuleAccessorEP9lua_State
_ZN7lua2cpp40create_agent_fighter_animcmd_game_mariodEN3phx6Hash40EPN3app12BattleObjectEPNS2_26BattleObjectModuleAccessorEP9lua_State
_ZN7lua2cpp39create_agent_fighter_animcmd_game_pichuEN3phx6Hash40EPN3app12BattleObjectEPNS2_26BattleObjectModuleAccessorEP9lua_State
_ZN7lua2cpp39create_agent_fighter_animcmd_game_falcoEN3phx6Hash40EPN3app12BattleObjectEPNS2_26BattleObjectModuleAccessorEP9lua_State
_ZN7lua2cpp39create_agent_fighter_animcmd_game_marthEN3phx6Hash40EPN3app12BattleObjectEPNS2_26BattleObjectModuleAccessorEP9lua_State
_ZN7lua2cpp40create_agent_fighter_animcmd_game_lucinaEN3phx6Hash40EPN3app12BattleObjectEPNS2_26BattleObjectModuleAccessorEP9lua_State
_ZN7lua2cpp43create_agent_fighter_animcmd_game_younglinkEN3phx6Hash40EPN3app12BattleObjectEPNS2_26BattleObjectModuleAccessorEP9lua_State
_ZN7lua2cpp39create_agent_fighter_animcmd_game_ganonEN3phx6Hash40EPN3app12BattleObjectEPNS2_26BattleObjectModuleAccessorEP9lua_State
_ZN7lua2cpp40create_agent_fighter_animcmd_game_mewtwoEN3phx6Hash40EPN3app12BattleObjectEPNS2_26BattleObjectModuleAccessorEP9lua_State
_ZN7lua2cpp37create_agent_fighter_animcmd_game_royEN3phx6Hash40EPN3app12BattleObjectEPNS2_26BattleObjectModuleAccessorEP9lua_State
_ZN7lua2cpp39create_agent_fighter_animcmd_game_chromEN3phx6Hash40EPN3app12BattleObjectEPNS2_26BattleObjectModuleAccessorEP9lua_State
_ZN7lua2cpp43create_agent_fighter_animcmd_game_gamewatchEN3phx6Hash40EPN3app12BattleObjectEPNS2_26BattleObjectModuleAccessorEP9lua_State
_ZN7lua2cpp44create_agent_fighter_animcmd_game_metaknightEN3phx6Hash40EPN3app12BattleObjectEPNS2_26BattleObjectModuleAccessorEP9lua_State
_ZN7lua2cpp37create_agent_fighter_animcmd_game_pitEN3phx6Hash40EPN3app12BattleObjectEPNS2_26BattleObjectModuleAccessorEP9lua_State
_ZN7lua2cpp38create_agent_fighter_animcmd_game_pitbEN3phx6Hash40EPN3app12BattleObjectEPNS2_26BattleObjectModuleAccessorEP9lua_State
_ZN7lua2cpp43create_agent_fighter_animcmd_game_szerosuitEN3phx6Hash40EPN3app12BattleObjectEPNS2_26BattleObjectModuleAccessorEP9lua_State
_ZN7lua2cpp39create_agent_fighter_animcmd_game_warioEN3phx6Hash40EPN3app12BattleObjectEPNS2_26BattleObjectModuleAccessorEP9lua_State
_ZN7lua2cpp39create_agent_fighter_animcmd_game_snakeEN3phx6Hash40EPN3app12BattleObjectEPNS2_26BattleObjectModuleAccessorEP9lua_State
_ZN7lua2cpp37create_agent_fighter_animcmd_game_ikeEN3phx6Hash40EPN3app12BattleObjectEPNS2_26BattleObjectModuleAccessorEP9lua_State
_ZN7lua2cpp43create_agent_fighter_animcmd_game_pzenigameEN3phx6Hash40EPN3app12BattleObjectEPNS2_26BattleObjectModuleAccessorEP9lua_State
_ZN7lua2cpp45create_agent_fighter_animcmd_game_pfushigisouEN3phx6Hash40EPN3app12BattleObjectEPNS2_26BattleObjectModuleAccessorEP9lua_State
_ZN7lua2cpp43create_agent_fighter_animcmd_game_plizardonEN3phx6Hash40EPN3app12BattleObjectEPNS2_26BattleObjectModuleAccessorEP9lua_State
_ZN7lua2cpp39create_agent_fighter_animcmd_game_diddyEN3phx6Hash40EPN3app12BattleObjectEPNS2_26BattleObjectModuleAccessorEP9lua_State
_ZN7lua2cpp39create_agent_fighter_animcmd_game_lucasEN3phx6Hash40EPN3app12BattleObjectEPNS2_26BattleObjectModuleAccessorEP9lua_State
_ZN7lua2cpp39create_agent_fighter_animcmd_game_sonicEN3phx6Hash40EPN3app12BattleObjectEPNS2_26BattleObjectModuleAccessorEP9lua_State
_ZN7lua2cpp40create_agent_fighter_animcmd_game_dededeEN3phx6Hash40EPN3app12BattleObjectEPNS2_26BattleObjectModuleAccessorEP9lua_State
_ZN7lua2cpp40create_agent_fighter_animcmd_game_pikminEN3phx6Hash40EPN3app12BattleObjectEPNS2_26BattleObjectModuleAccessorEP9lua_State
_ZN7lua2cpp41create_agent_fighter_animcmd_game_lucarioEN3phx6Hash40EPN3app12BattleObjectEPNS2_26BattleObjectModuleAccessorEP9lua_State
_ZN7lua2cpp39create_agent_fighter_animcmd_game_robotEN3phx6Hash40EPN3app12BattleObjectEPNS2_26BattleObjectModuleAccessorEP9lua_State
_ZN7lua2cpp42create_agent_fighter_animcmd_game_toonlinkEN3phx6Hash40EPN3app12BattleObjectEPNS2_26BattleObjectModuleAccessorEP9lua_State
_ZN7lua2cpp38create_agent_fighter_animcmd_game_wolfEN3phx6Hash40EPN3app12BattleObjectEPNS2_26BattleObjectModuleAccessorEP9lua_State
_ZN7lua2cpp42create_agent_fighter_animcmd_game_murabitoEN3phx6Hash40EPN3app12BattleObjectEPNS2_26BattleObjectModuleAccessorEP9lua_State
_ZN7lua2cpp41create_agent_fighter_animcmd_game_rockmanEN3phx6Hash40EPN3app12BattleObjectEPNS2_26BattleObjectModuleAccessorEP9lua_State
_ZN7lua2cpp40create_agent_fighter_animcmd_game_wiifitEN3phx6Hash40EPN3app12BattleObjectEPNS2_26BattleObjectModuleAccessorEP9lua_State
_ZN7lua2cpp41create_agent_fighter_animcmd_game_rosettaEN3phx6Hash40EPN3app12BattleObjectEPNS2_26BattleObjectModuleAccessorEP9lua_State
_ZN7lua2cpp43create_agent_fighter_animcmd_game_littlemacEN3phx6Hash40EPN3app12BattleObjectEPNS2_26BattleObjectModuleAccessorEP9lua_State
_ZN7lua2cpp42create_agent_fighter_animcmd_game_gekkougaEN3phx6Hash40EPN3app12BattleObjectEPNS2_26BattleObjectModuleAccessorEP9lua_State
_ZN7lua2cpp42create_agent_fighter_animcmd_game_palutenaEN3phx6Hash40EPN3app12BattleObjectEPNS2_26BattleObjectModuleAccessorEP9lua_State
_ZN7lua2cpp40create_agent_fighter_animcmd_game_pacmanEN3phx6Hash40EPN3app12BattleObjectEPNS2_26BattleObjectModuleAccessorEP9lua_State
_ZN7lua2cpp40create_agent_fighter_animcmd_game_refletEN3phx6Hash40EPN3app12BattleObjectEPNS2_26BattleObjectModuleAccessorEP9lua_State
_ZN7lua2cpp39create_agent_fighter_animcmd_game_shulkEN3phx6Hash40EPN3app12BattleObjectEPNS2_26BattleObjectModuleAccessorEP9lua_State
_ZN7lua2cpp41create_agent_fighter_animcmd_game_koopajrEN3phx6Hash40EPN3app12BattleObjectEPNS2_26BattleObjectModuleAccessorEP9lua_State
_ZN7lua2cpp42create_agent_fighter_animcmd_game_duckhuntEN3phx6Hash40EPN3app12BattleObjectEPNS2_26BattleObjectModuleAccessorEP9lua_State
_ZN7lua2cpp37create_agent_fighter_animcmd_game_ryuEN3phx6Hash40EPN3app12BattleObjectEPNS2_26BattleObjectModuleAccessorEP9lua_State
_ZN7lua2cpp37create_agent_fighter_animcmd_game_kenEN3phx6Hash40EPN3app12BattleObjectEPNS2_26BattleObjectModuleAccessorEP9lua_State
_ZN7lua2cpp39create_agent_fighter_animcmd_game_cloudEN3phx6Hash40EPN3app12BattleObjectEPNS2_26BattleObjectModuleAccessorEP9lua_State
_ZN7lua2cpp39create_agent_fighter_animcmd_game_kamuiEN3phx6Hash40EPN3app12BattleObjectEPNS2_26BattleObjectModuleAccessorEP9lua_State
_ZN7lua2cpp43create_agent_fighter_animcmd_game_bayonettaEN3phx6Hash40EPN3app12BattleObjectEPNS2_26BattleObjectModuleAccessorEP9lua_State
_ZN7lua2cpp41create_agent_fighter_animcmd_game_inklingEN3phx6Hash40EPN3app12BattleObjectEPNS2_26BattleObjectModuleAccessorEP9lua_State
_ZN7lua2cpp40create_agent_fighter_animcmd_game_ridleyEN3phx6Hash40EPN3app12BattleObjectEPNS2_26BattleObjectModuleAccessorEP9lua_State
_ZN7lua2cpp39create_agent_fighter_animcmd_game_simonEN3phx6Hash40EPN3app12BattleObjectEPNS2_26BattleObjectModuleAccessorEP9lua_State
_ZN7lua2cpp41create_agent_fighter_animcmd_game_richterEN3phx6Hash40EPN3app12BattleObjectEPNS2_26BattleObjectModuleAccessorEP9lua_State
_ZN7lua2cpp39create_agent_fighter_animcmd_game_kroolEN3phx6Hash40EPN3app12BattleObjectEPNS2_26BattleObjectModuleAccessorEP9lua_State
_ZN7lua2cpp40create_agent_fighter_animcmd_game_shizueEN3phx6Hash40EPN3app12BattleObjectEPNS2_26BattleObjectModuleAccessorEP9lua_State
_ZN7lua2cpp41create_agent_fighter_animcmd_game_gaogaenEN3phx6Hash40EPN3app12BattleObjectEPNS2_26BattleObjectModuleAccessorEP9lua_State
_ZN7lua2cpp44create_agent_fighter_animcmd_game_miifighterEN3phx6Hash40EPN3app12BattleObjectEPNS2_26BattleObjectModuleAccessorEP9lua_State
_ZN7lua2cpp46create_agent_fighter_animcmd_game_miiswordsmanEN3phx6Hash40EPN3app12BattleObjectEPNS2_26BattleObjectModuleAccessorEP9lua_State
_ZN7lua2cpp43create_agent_fighter_animcmd_game_miigunnerEN3phx6Hash40EPN3app12BattleObjectEPNS2_26BattleObjectModuleAccessorEP9lua_State
_ZN7lua2cpp38create_agent_fighter_animcmd_game_popoEN3phx6Hash40EPN3app12BattleObjectEPNS2_26BattleObjectModuleAccessorEP9lua_State
_ZN7lua2cpp38create_agent_fighter_animcmd_game_nanaEN3phx6Hash40EPN3app12BattleObjectEPNS2_26BattleObjectModuleAccessorEP9lua_State
_ZN7lua2cpp40create_agent_fighter_animcmd_game_koopagEN3phx6Hash40EPN3app12BattleObjectEPNS2_26BattleObjectModuleAccessorEP9lua_State
_ZN7lua2cpp43create_agent_fighter_animcmd_game_miienemyfEN3phx6Hash40EPN3app12BattleObjectEPNS2_26BattleObjectModuleAccessorEP9lua_State
_ZN7lua2cpp43create_agent_fighter_animcmd_game_miienemysEN3phx6Hash40EPN3app12BattleObjectEPNS2_26BattleObjectModuleAccessorEP9lua_State
_ZN7lua2cpp43create_agent_fighter_animcmd_game_miienemygEN3phx6Hash40EPN3app12BattleObjectEPNS2_26BattleObjectModuleAccessorEP9lua_State
_ZN7lua2cpp41create_agent_fighter_animcmd_effect_marioEN3phx6Hash40EPN3app12BattleObjectEPNS2_26BattleObjectModuleAccessorEP9lua_State
_ZN7lua2cpp42create_agent_fighter_animcmd_effect_donkeyEN3phx6Hash40EPN3app12BattleObjectEPNS2_26BattleObjectModuleAccessorEP9lua_State
_ZN7lua2cpp40create_agent_fighter_animcmd_effect_linkEN3phx6Hash40EPN3app12BattleObjectEPNS2_26BattleObjectModuleAccessorEP9lua_State
_ZN7lua2cpp41create_agent_fighter_animcmd_effect_samusEN3phx6Hash40EPN3app12BattleObjectEPNS2_26BattleObjectModuleAccessorEP9lua_State
_ZN7lua2cpp42create_agent_fighter_animcmd_effect_samusdEN3phx6Hash40EPN3app12BattleObjectEPNS2_26BattleObjectModuleAccessorEP9lua_State
_ZN7lua2cpp41create_agent_fighter_animcmd_effect_yoshiEN3phx6Hash40EPN3app12BattleObjectEPNS2_26BattleObjectModuleAccessorEP9lua_State
_ZN7lua2cpp41create_agent_fighter_animcmd_effect_kirbyEN3phx6Hash40EPN3app12BattleObjectEPNS2_26BattleObjectModuleAccessorEP9lua_State
_ZN7lua2cpp39create_agent_fighter_animcmd_effect_foxEN3phx6Hash40EPN3app12BattleObjectEPNS2_26BattleObjectModuleAccessorEP9lua_State
_ZN7lua2cpp43create_agent_fighter_animcmd_effect_pikachuEN3phx6Hash40EPN3app12BattleObjectEPNS2_26BattleObjectModuleAccessorEP9lua_State
_ZN7lua2cpp41create_agent_fighter_animcmd_effect_luigiEN3phx6Hash40EPN3app12BattleObjectEPNS2_26BattleObjectModuleAccessorEP9lua_State
_ZN7lua2cpp40create_agent_fighter_animcmd_effect_nessEN3phx6Hash40EPN3app12BattleObjectEPNS2_26BattleObjectModuleAccessorEP9lua_State
_ZN7lua2cpp43create_agent_fighter_animcmd_effect_captainEN3phx6Hash40EPN3app12BattleObjectEPNS2_26BattleObjectModuleAccessorEP9lua_State
_ZN7lua2cpp41create_agent_fighter_animcmd_effect_purinEN3phx6Hash40EPN3app12BattleObjectEPNS2_26BattleObjectModuleAccessorEP9lua_State
_ZN7lua2cpp41create_agent_fighter_animcmd_effect_peachEN3phx6Hash40EPN3app12BattleObjectEPNS2_26BattleObjectModuleAccessorEP9lua_State
_ZN7lua2cpp41create_agent_fighter_animcmd_effect_daisyEN3phx6Hash40EPN3app12BattleObjectEPNS2_26BattleObjectModuleAccessorEP9lua_State
_ZN7lua2cpp41create_agent_fighter_animcmd_effect_koopaEN3phx6Hash40EPN3app12BattleObjectEPNS2_26BattleObjectModuleAccessorEP9lua_State
_ZN7lua2cpp41create_agent_fighter_animcmd_effect_sheikEN3phx6Hash40EPN3app12BattleObjectEPNS2_26BattleObjectModuleAccessorEP9lua_State
_ZN7lua2cpp41create_agent_fighter_animcmd_effect_zeldaEN3phx6Hash40EPN3app12BattleObjectEPNS2_26BattleObjectModuleAccessorEP9lua_State
_ZN7lua2cpp42create_agent_fighter_animcmd_effect_mariodEN3phx6Hash40EPN3app12BattleObjectEPNS2_26BattleObjectModuleAccessorEP9lua_State
_ZN7lua2cpp41create_agent_fighter_animcmd_effect_pichuEN3phx6Hash40EPN3app12BattleObjectEPNS2_26BattleObjectModuleAccessorEP9lua_State
_ZN7lua2cpp41create_agent_fighter_animcmd_effect_falcoEN3phx6Hash40EPN3app12BattleObjectEPNS2_26BattleObjectModuleAccessorEP9lua_State
_ZN7lua2cpp41create_agent_fighter_animcmd_effect_marthEN3phx6Hash40EPN3app12BattleObjectEPNS2_26BattleObjectModuleAccessorEP9lua_State
_ZN7lua2cpp42create_agent_fighter_animcmd_effect_lucinaEN3phx6Hash40EPN3app12BattleObjectEPNS2_26BattleObjectModuleAccessorEP9lua_State
_ZN7lua2cpp45create_agent_fighter_animcmd_effect_younglinkEN3phx6Hash40EPN3app12BattleObjectEPNS2_26BattleObjectModuleAccessorEP9lua_State
_ZN7lua2cpp41create_agent_fighter_animcmd_effect_ganonEN3phx6Hash40EPN3app12BattleObjectEPNS2_26BattleObjectModuleAccessorEP9lua_State
_ZN7lua2cpp42create_agent_fighter_animcmd_effect_mewtwoEN3phx6Hash40EPN3app12BattleObjectEPNS2_26BattleObjectModuleAccessorEP9lua_State
_ZN7lua2cpp39create_agent_fighter_animcmd_effect_royEN3phx6Hash40EPN3app12BattleObjectEPNS2_26BattleObjectModuleAccessorEP9lua_State
_ZN7lua2cpp41create_agent_fighter_animcmd_effect_chromEN3phx6Hash40EPN3app12BattleObjectEPNS2_26BattleObjectModuleAccessorEP9lua_State
_ZN7lua2cpp45create_agent_fighter_animcmd_effect_gamewatchEN3phx6Hash40EPN3app12BattleObjectEPNS2_26BattleObjectModuleAccessorEP9lua_State
_ZN7lua2cpp46create_agent_fighter_animcmd_effect_metaknightEN3phx6Hash40EPN3app12BattleObjectEPNS2_26BattleObjectModuleAccessorEP9lua_State
_ZN7lua2cpp39create_agent_fighter_animcmd_effect_pitEN3phx6Hash40EPN3app12BattleObjectEPNS2_26BattleObjectModuleAccessorEP9lua_State
_ZN7lua2cpp40create_agent_fighter_animcmd_effect_pitbEN3phx6Hash40EPN3app12BattleObjectEPNS2_26BattleObjectModuleAccessorEP9lua_State
_ZN7lua2cpp45create_agent_fighter_animcmd_effect_szerosuitEN3phx6Hash40EPN3app12BattleObjectEPNS2_26BattleObjectModuleAccessorEP9lua_State
_ZN7lua2cpp41create_agent_fighter_animcmd_effect_warioEN3phx6Hash40EPN3app12BattleObjectEPNS2_26BattleObjectModuleAccessorEP9lua_State
_ZN7lua2cpp41create_agent_fighter_animcmd_effect_snakeEN3phx6Hash40EPN3app12BattleObjectEPNS2_26BattleObjectModuleAccessorEP9lua_State
_ZN7lua2cpp39create_agent_fighter_animcmd_effect_ikeEN3phx6Hash40EPN3app12BattleObjectEPNS2_26BattleObjectModuleAccessorEP9lua_State
_ZN7lua2cpp45create_agent_fighter_animcmd_effect_pzenigameEN3phx6Hash40EPN3app12BattleObjectEPNS2_26BattleObjectModuleAccessorEP9lua_State
_ZN7lua2cpp47create_agent_fighter_animcmd_effect_pfushigisouEN3phx6Hash40EPN3app12BattleObjectEPNS2_26BattleObjectModuleAccessorEP9lua_State
_ZN7lua2cpp45create_agent_fighter_animcmd_effect_plizardonEN3phx6Hash40EPN3app12BattleObjectEPNS2_26BattleObjectModuleAccessorEP9lua_State
_ZN7lua2cpp41create_agent_fighter_animcmd_effect_diddyEN3phx6Hash40EPN3app12BattleObjectEPNS2_26BattleObjectModuleAccessorEP9lua_State
_ZN7lua2cpp41create_agent_fighter_animcmd_effect_lucasEN3phx6Hash40EPN3app12BattleObjectEPNS2_26BattleObjectModuleAccessorEP9lua_State
_ZN7lua2cpp41create_agent_fighter_animcmd_effect_sonicEN3phx6Hash40EPN3app12BattleObjectEPNS2_26BattleObjectModuleAccessorEP9lua_State
_ZN7lua2cpp42create_agent_fighter_animcmd_effect_dededeEN3phx6Hash40EPN3app12BattleObjectEPNS2_26BattleObjectModuleAccessorEP9lua_State
_ZN7lua2cpp42create_agent_fighter_animcmd_effect_pikminEN3phx6Hash40EPN3app12BattleObjectEPNS2_26BattleObjectModuleAccessorEP9lua_State
_ZN7lua2cpp43create_agent_fighter_animcmd_effect_lucarioEN3phx6Hash40EPN3app12BattleObjectEPNS2_26BattleObjectModuleAccessorEP9lua_State
_ZN7lua2cpp41create_agent_fighter_animcmd_effect_robotEN3phx6Hash40EPN3app12BattleObjectEPNS2_26BattleObjectModuleAccessorEP9lua_State
_ZN7lua2cpp44create_agent_fighter_animcmd_effect_toonlinkEN3phx6Hash40EPN3app12BattleObjectEPNS2_26BattleObjectModuleAccessorEP9lua_State
_ZN7lua2cpp40create_agent_fighter_animcmd_effect_wolfEN3phx6Hash40EPN3app12BattleObjectEPNS2_26BattleObjectModuleAccessorEP9lua_State
_ZN7lua2cpp44create_agent_fighter_animcmd_effect_murabitoEN3phx6Hash40EPN3app12BattleObjectEPNS2_26BattleObjectModuleAccessorEP9lua_State
_ZN7lua2cpp43create_agent_fighter_animcmd_effect_rockmanEN3phx6Hash40EPN3app12BattleObjectEPNS2_26BattleObjectModuleAccessorEP9lua_State
_ZN7lua2cpp42create_agent_fighter_animcmd_effect_wiifitEN3phx6Hash40EPN3app12BattleObjectEPNS2_26BattleObjectModuleAccessorEP9lua_State
_ZN7lua2cpp43create_agent_fighter_animcmd_effect_rosettaEN3phx6Hash40EPN3app12BattleObjectEPNS2_26BattleObjectModuleAccessorEP9lua_State
_ZN7lua2cpp45create_agent_fighter_animcmd_effect_littlemacEN3phx6Hash40EPN3app12BattleObjectEPNS2_26BattleObjectModuleAccessorEP9lua_State
_ZN7lua2cpp44create_agent_fighter_animcmd_effect_gekkougaEN3phx6Hash40EPN3app12BattleObjectEPNS2_26BattleObjectModuleAccessorEP9lua_State
_ZN7lua2cpp44create_agent_fighter_animcmd_effect_palutenaEN3phx6Hash40EPN3app12BattleObjectEPNS2_26BattleObjectModuleAccessorEP9lua_State
_ZN7lua2cpp42create_agent_fighter_animcmd_effect_pacmanEN3phx6Hash40EPN3app12BattleObjectEPNS2_26BattleObjectModuleAccessorEP9lua_State
_ZN7lua2cpp42create_agent_fighter_animcmd_effect_refletEN3phx6Hash40EPN3app12BattleObjectEPNS2_26BattleObjectModuleAccessorEP9lua_State
_ZN7lua2cpp41create_agent_fighter_animcmd_effect_shulkEN3phx6Hash40EPN3app12BattleObjectEPNS2_26BattleObjectModuleAccessorEP9lua_State
_ZN7lua2cpp43create_agent_fighter_animcmd_effect_koopajrEN3phx6Hash40EPN3app12BattleObjectEPNS2_26BattleObjectModuleAccessorEP9lua_State
_ZN7lua2cpp44create_agent_fighter_animcmd_effect_duckhuntEN3phx6Hash40EPN3app12BattleObjectEPNS2_26BattleObjectModuleAccessorEP9lua_State
_ZN7lua2cpp39create_agent_fighter_animcmd_effect_ryuEN3phx6Hash40EPN3app12BattleObjectEPNS2_26BattleObjectModuleAccessorEP9lua_State
_ZN7lua2cpp39create_agent_fighter_animcmd_effect_kenEN3phx6Hash40EPN3app12BattleObjectEPNS2_26BattleObjectModuleAccessorEP9lua_State
_ZN7lua2cpp41create_agent_fighter_animcmd_effect_cloudEN3phx6Hash40EPN3app12BattleObjectEPNS2_26BattleObjectModuleAccessorEP9lua_State
_ZN7lua2cpp41create_agent_fighter_animcmd_effect_kamuiEN3phx6Hash40EPN3app12BattleObjectEPNS2_26BattleObjectModuleAccessorEP9lua_State
_ZN7lua2cpp45create_agent_fighter_animcmd_effect_bayonettaEN3phx6Hash40EPN3app12BattleObjectEPNS2_26BattleObjectModuleAccessorEP9lua_State
_ZN7lua2cpp43create_agent_fighter_animcmd_effect_inklingEN3phx6Hash40EPN3app12BattleObjectEPNS2_26BattleObjectModuleAccessorEP9lua_State
_ZN7lua2cpp42create_agent_fighter_animcmd_effect_ridleyEN3phx6Hash40EPN3app12BattleObjectEPNS2_26BattleObjectModuleAccessorEP9lua_State
_ZN7lua2cpp41create_agent_fighter_animcmd_effect_simonEN3phx6Hash40EPN3app12BattleObjectEPNS2_26BattleObjectModuleAccessorEP9lua_State
_ZN7lua2cpp43create_agent_fighter_animcmd_effect_richterEN3phx6Hash40EPN3app12BattleObjectEPNS2_26BattleObjectModuleAccessorEP9lua_State
_ZN7lua2cpp41create_agent_fighter_animcmd_effect_kroolEN3phx6Hash40EPN3app12BattleObjectEPNS2_26BattleObjectModuleAccessorEP9lua_State
_ZN7lua2cpp42create_agent_fighter_animcmd_effect_shizueEN3phx6Hash40EPN3app12BattleObjectEPNS2_26BattleObjectModuleAccessorEP9lua_State
_ZN7lua2cpp43create_agent_fighter_animcmd_effect_gaogaenEN3phx6Hash40EPN3app12BattleObjectEPNS2_26BattleObjectModuleAccessorEP9lua_State
_ZN7lua2cpp46create_agent_fighter_animcmd_effect_miifighterEN3phx6Hash40EPN3app12BattleObjectEPNS2_26BattleObjectModuleAccessorEP9lua_State
_ZN7lua2cpp48create_agent_fighter_animcmd_effect_miiswordsmanEN3phx6Hash40EPN3app12BattleObjectEPNS2_26BattleObjectModuleAccessorEP9lua_State
_ZN7lua2cpp45create_agent_fighter_animcmd_effect_miigunnerEN3phx6Hash40EPN3app12BattleObjectEPNS2_26BattleObjectModuleAccessorEP9lua_State
_ZN7lua2cpp40create_agent_fighter_animcmd_effect_popoEN3phx6Hash40EPN3app12BattleObjectEPNS2_26BattleObjectModuleAccessorEP9lua_State
_ZN7lua2cpp40create_agent_fighter_animcmd_effect_nanaEN3phx6Hash40EPN3app12BattleObjectEPNS2_26BattleObjectModuleAccessorEP9lua_State
_ZN7lua2cpp42create_agent_fighter_animcmd_effect_koopagEN3phx6Hash40EPN3app12BattleObjectEPNS2_26BattleObjectModuleAccessorEP9lua_State
_ZN7lua2cpp45create_agent_fighter_animcmd_effect_miienemyfEN3phx6Hash40EPN3app12BattleObjectEPNS2_26BattleObjectModuleAccessorEP9lua_State
_ZN7lua2cpp45create_agent_fighter_animcmd_effect_miienemysEN3phx6Hash40EPN3app12BattleObjectEPNS2_26BattleObjectModuleAccessorEP9lua_State
_ZN7lua2cpp45create_agent_fighter_animcmd_effect_miienemygEN3phx6Hash40EPN3app12BattleObjectEPNS2_26BattleObjectModuleAccessorEP9lua_State
_ZN7lua2cpp45create_agent_fighter_animcmd_expression_marioEN3phx6Hash40EPN3app12BattleObjectEPNS2_26BattleObjectModuleAccessorEP9lua_State
_ZN7lua2cpp46create_agent_fighter_animcmd_expression_donkeyEN3phx6Hash40EPN3app12BattleObjectEPNS2_26BattleObjectModuleAccessorEP9lua_State
_ZN7lua2cpp44create_agent_fighter_animcmd_expression_linkEN3phx6Hash40EPN3app12BattleObjectEPNS2_26BattleObjectModuleAccessorEP9lua_State
_ZN7lua2cpp45create_agent_fighter_animcmd_expression_samusEN3phx6Hash40EPN3app12BattleObjectEPNS2_26BattleObjectModuleAccessorEP9lua_State
_ZN7lua2cpp46create_agent_fighter_animcmd_expression_samusdEN3phx6Hash40EPN3app12BattleObjectEPNS2_26BattleObjectModuleAccessorEP9lua_State
_ZN7lua2cpp45create_agent_fighter_animcmd_expression_yoshiEN3phx6Hash40EPN3app12BattleObjectEPNS2_26BattleObjectModuleAccessorEP9lua_State
_ZN7lua2cpp45create_agent_fighter_animcmd_expression_kirbyEN3phx6Hash40EPN3app12BattleObjectEPNS2_26BattleObjectModuleAccessorEP9lua_State
_ZN7lua2cpp43create_agent_fighter_animcmd_expression_foxEN3phx6Hash40EPN3app12BattleObjectEPNS2_26BattleObjectModuleAccessorEP9lua_State
_ZN7lua2cpp47create_agent_fighter_animcmd_expression_pikachuEN3phx6Hash40EPN3app12BattleObjectEPNS2_26BattleObjectModuleAccessorEP9lua_State
_ZN7lua2cpp45create_agent_fighter_animcmd_expression_luigiEN3phx6Hash40EPN3app12BattleObjectEPNS2_26BattleObjectModuleAccessorEP9lua_State
_ZN7lua2cpp44create_agent_fighter_animcmd_expression_nessEN3phx6Hash40EPN3app12BattleObjectEPNS2_26BattleObjectModuleAccessorEP9lua_State
_ZN7lua2cpp47create_agent_fighter_animcmd_expression_captainEN3phx6Hash40EPN3app12BattleObjectEPNS2_26BattleObjectModuleAccessorEP9lua_State
_ZN7lua2cpp45create_agent_fighter_animcmd_expression_purinEN3phx6Hash40EPN3app12BattleObjectEPNS2_26BattleObjectModuleAccessorEP9lua_State
_ZN7lua2cpp45create_agent_fighter_animcmd_expression_peachEN3phx6Hash40EPN3app12BattleObjectEPNS2_26BattleObjectModuleAccessorEP9lua_State
_ZN7lua2cpp45create_agent_fighter_animcmd_expression_daisyEN3phx6Hash40EPN3app12BattleObjectEPNS2_26BattleObjectModuleAccessorEP9lua_State
_ZN7lua2cpp45create_agent_fighter_animcmd_expression_koopaEN3phx6Hash40EPN3app12BattleObjectEPNS2_26BattleObjectModuleAccessorEP9lua_State
_ZN7lua2cpp45create_agent_fighter_animcmd_expression_sheikEN3phx6Hash40EPN3app12BattleObjectEPNS2_26BattleObjectModuleAccessorEP9lua_State
_ZN7lua2cpp45create_agent_fighter_animcmd_expression_zeldaEN3phx6Hash40EPN3app12BattleObjectEPNS2_26BattleObjectModuleAccessorEP9lua_State
_ZN7lua2cpp46create_agent_fighter_animcmd_expression_mariodEN3phx6Hash40EPN3app12BattleObjectEPNS2_26BattleObjectModuleAccessorEP9lua_State
_ZN7lua2cpp45create_agent_fighter_animcmd_expression_pichuEN3phx6Hash40EPN3app12BattleObjectEPNS2_26BattleObjectModuleAccessorEP9lua_State
_ZN7lua2cpp45create_agent_fighter_animcmd_expression_falcoEN3phx6Hash40EPN3app12BattleObjectEPNS2_26BattleObjectModuleAccessorEP9lua_State
_ZN7lua2cpp45create_agent_fighter_animcmd_expression_marthEN3phx6Hash40EPN3app12BattleObjectEPNS2_26BattleObjectModuleAccessorEP9lua_State
_ZN7lua2cpp46create_agent_fighter_animcmd_expression_lucinaEN3phx6Hash40EPN3app12BattleObjectEPNS2_26BattleObjectModuleAccessorEP9lua_State
_ZN7lua2cpp49create_agent_fighter_animcmd_expression_younglinkEN3phx6Hash40EPN3app12BattleObjectEPNS2_26BattleObjectModuleAccessorEP9lua_State
_ZN7lua2cpp45create_agent_fighter_animcmd_expression_ganonEN3phx6Hash40EPN3app12BattleObjectEPNS2_26BattleObjectModuleAccessorEP9lua_State
_ZN7lua2cpp46create_agent_fighter_animcmd_expression_mewtwoEN3phx6Hash40EPN3app12BattleObjectEPNS2_26BattleObjectModuleAccessorEP9lua_State
_ZN7lua2cpp43create_agent_fighter_animcmd_expression_royEN3phx6Hash40EPN3app12BattleObjectEPNS2_26BattleObjectModuleAccessorEP9lua_State
_ZN7lua2cpp45create_agent_fighter_animcmd_expression_chromEN3phx6Hash40EPN3app12BattleObjectEPNS2_26BattleObjectModuleAccessorEP9lua_State
_ZN7lua2cpp49create_agent_fighter_animcmd_expression_gamewatchEN3phx6Hash40EPN3app12BattleObjectEPNS2_26BattleObjectModuleAccessorEP9lua_State
_ZN7lua2cpp50create_agent_fighter_animcmd_expression_metaknightEN3phx6Hash40EPN3app12BattleObjectEPNS2_26BattleObjectModuleAccessorEP9lua_State
_ZN7lua2cpp43create_agent_fighter_animcmd_expression_pitEN3phx6Hash40EPN3app12BattleObjectEPNS2_26BattleObjectModuleAccessorEP9lua_State
_ZN7lua2cpp44create_agent_fighter_animcmd_expression_pitbEN3phx6Hash40EPN3app12BattleObjectEPNS2_26BattleObjectModuleAccessorEP9lua_State
_ZN7lua2cpp49create_agent_fighter_animcmd_expression_szerosuitEN3phx6Hash40EPN3app12BattleObjectEPNS2_26BattleObjectModuleAccessorEP9lua_State
_ZN7lua2cpp45create_agent_fighter_animcmd_expression_warioEN3phx6Hash40EPN3app12BattleObjectEPNS2_26BattleObjectModuleAccessorEP9lua_State
_ZN7lua2cpp45create_agent_fighter_animcmd_expression_snakeEN3phx6Hash40EPN3app12BattleObjectEPNS2_26BattleObjectModuleAccessorEP9lua_State
_ZN7lua2cpp43create_agent_fighter_animcmd_expression_ikeEN3phx6Hash40EPN3app12BattleObjectEPNS2_26BattleObjectModuleAccessorEP9lua_State
_ZN7lua2cpp49create_agent_fighter_animcmd_expression_pzenigameEN3phx6Hash40EPN3app12BattleObjectEPNS2_26BattleObjectModuleAccessorEP9lua_State
_ZN7lua2cpp51create_agent_fighter_animcmd_expression_pfushigisouEN3phx6Hash40EPN3app12BattleObjectEPNS2_26BattleObjectModuleAccessorEP9lua_State
_ZN7lua2cpp49create_agent_fighter_animcmd_expression_plizardonEN3phx6Hash40EPN3app12BattleObjectEPNS2_26BattleObjectModuleAccessorEP9lua_State
_ZN7lua2cpp45create_agent_fighter_animcmd_expression_diddyEN3phx6Hash40EPN3app12BattleObjectEPNS2_26BattleObjectModuleAccessorEP9lua_State
_ZN7lua2cpp45create_agent_fighter_animcmd_expression_lucasEN3phx6Hash40EPN3app12BattleObjectEPNS2_26BattleObjectModuleAccessorEP9lua_State
_ZN7lua2cpp45create_agent_fighter_animcmd_expression_sonicEN3phx6Hash40EPN3app12BattleObjectEPNS2_26BattleObjectModuleAccessorEP9lua_State
_ZN7lua2cpp46create_agent_fighter_animcmd_expression_dededeEN3phx6Hash40EPN3app12BattleObjectEPNS2_26BattleObjectModuleAccessorEP9lua_State
_ZN7lua2cpp46create_agent_fighter_animcmd_expression_pikminEN3phx6Hash40EPN3app12BattleObjectEPNS2_26BattleObjectModuleAccessorEP9lua_State
_ZN7lua2cpp47create_agent_fighter_animcmd_expression_lucarioEN3phx6Hash40EPN3app12BattleObjectEPNS2_26BattleObjectModuleAccessorEP9lua_State
_ZN7lua2cpp45create_agent_fighter_animcmd_expression_robotEN3phx6Hash40EPN3app12BattleObjectEPNS2_26BattleObjectModuleAccessorEP9lua_State
_ZN7lua2cpp48create_agent_fighter_animcmd_expression_toonlinkEN3phx6Hash40EPN3app12BattleObjectEPNS2_26BattleObjectModuleAccessorEP9lua_State
_ZN7lua2cpp44create_agent_fighter_animcmd_expression_wolfEN3phx6Hash40EPN3app12BattleObjectEPNS2_26BattleObjectModuleAccessorEP9lua_State
_ZN7lua2cpp48create_agent_fighter_animcmd_expression_murabitoEN3phx6Hash40EPN3app12BattleObjectEPNS2_26BattleObjectModuleAccessorEP9lua_State
_ZN7lua2cpp47create_agent_fighter_animcmd_expression_rockmanEN3phx6Hash40EPN3app12BattleObjectEPNS2_26BattleObjectModuleAccessorEP9lua_State
_ZN7lua2cpp46create_agent_fighter_animcmd_expression_wiifitEN3phx6Hash40EPN3app12BattleObjectEPNS2_26BattleObjectModuleAccessorEP9lua_State
_ZN7lua2cpp47create_agent_fighter_animcmd_expression_rosettaEN3phx6Hash40EPN3app12BattleObjectEPNS2_26BattleObjectModuleAccessorEP9lua_State
_ZN7lua2cpp49create_agent_fighter_animcmd_expression_littlemacEN3phx6Hash40EPN3app12BattleObjectEPNS2_26BattleObjectModuleAccessorEP9lua_State
_ZN7lua2cpp48create_agent_fighter_animcmd_expression_gekkougaEN3phx6Hash40EPN3app12BattleObjectEPNS2_26BattleObjectModuleAccessorEP9lua_State
_ZN7lua2cpp48create_agent_fighter_animcmd_expression_palutenaEN3phx6Hash40EPN3app12BattleObjectEPNS2_26BattleObjectModuleAccessorEP9lua_State
_ZN7lua2cpp46create_agent_fighter_animcmd_expression_pacmanEN3phx6Hash40EPN3app12BattleObjectEPNS2_26BattleObjectModuleAccessorEP9lua_State
_ZN7lua2cpp46create_agent_fighter_animcmd_expression_refletEN3phx6Hash40EPN3app12BattleObjectEPNS2_26BattleObjectModuleAccessorEP9lua_State
_ZN7lua2cpp45create_agent_fighter_animcmd_expression_shulkEN3phx6Hash40EPN3app12BattleObjectEPNS2_26BattleObjectModuleAccessorEP9lua_State
_ZN7lua2cpp47create_agent_fighter_animcmd_expression_koopajrEN3phx6Hash40EPN3app12BattleObjectEPNS2_26BattleObjectModuleAccessorEP9lua_State
_ZN7lua2cpp48create_agent_fighter_animcmd_expression_duckhuntEN3phx6Hash40EPN3app12BattleObjectEPNS2_26BattleObjectModuleAccessorEP9lua_State
_ZN7lua2cpp43create_agent_fighter_animcmd_expression_ryuEN3phx6Hash40EPN3app12BattleObjectEPNS2_26BattleObjectModuleAccessorEP9lua_State
_ZN7lua2cpp43create_agent_fighter_animcmd_expression_kenEN3phx6Hash40EPN3app12BattleObjectEPNS2_26BattleObjectModuleAccessorEP9lua_State
_ZN7lua2cpp45create_agent_fighter_animcmd_expression_cloudEN3phx6Hash40EPN3app12BattleObjectEPNS2_26BattleObjectModuleAccessorEP9lua_State
_ZN7lua2cpp45create_agent_fighter_animcmd_expression_kamuiEN3phx6Hash40EPN3app12BattleObjectEPNS2_26BattleObjectModuleAccessorEP9lua_State
_ZN7lua2cpp49create_agent_fighter_animcmd_expression_bayonettaEN3phx6Hash40EPN3app12BattleObjectEPNS2_26BattleObjectModuleAccessorEP9lua_State
_ZN7lua2cpp47create_agent_fighter_animcmd_expression_inklingEN3phx6Hash40EPN3app12BattleObjectEPNS2_26BattleObjectModuleAccessorEP9lua_State
_ZN7lua2cpp46create_agent_fighter_animcmd_expression_ridleyEN3phx6Hash40EPN3app12BattleObjectEPNS2_26BattleObjectModuleAccessorEP9lua_State
_ZN7lua2cpp45create_agent_fighter_animcmd_expression_simonEN3phx6Hash40EPN3app12BattleObjectEPNS2_26BattleObjectModuleAccessorEP9lua_State
_ZN7lua2cpp47create_agent_fighter_animcmd_expression_richterEN3phx6Hash40EPN3app12BattleObjectEPNS2_26BattleObjectModuleAccessorEP9lua_State
_ZN7lua2cpp45create_agent_fighter_animcmd_expression_kroolEN3phx6Hash40EPN3app12BattleObjectEPNS2_26BattleObjectModuleAccessorEP9lua_State
_ZN7lua2cpp46create_agent_fighter_animcmd_expression_shizueEN3phx6Hash40EPN3app12BattleObjectEPNS2_26BattleObjectModuleAccessorEP9lua_State
_ZN7lua2cpp47create_agent_fighter_animcmd_expression_gaogaenEN3phx6Hash40EPN3app12BattleObjectEPNS2_26BattleObjectModuleAccessorEP9lua_State
_ZN7lua2cpp50create_agent_fighter_animcmd_expression_miifighterEN3phx6Hash40EPN3app12BattleObjectEPNS2_26BattleObjectModuleAccessorEP9lua_State
_ZN7lua2cpp52create_agent_fighter_animcmd_expression_miiswordsmanEN3phx6Hash40EPN3app12BattleObjectEPNS2_26BattleObjectModuleAccessorEP9lua_State
_ZN7lua2cpp49create_agent_fighter_animcmd_expression_miigunnerEN3phx6Hash40EPN3app12BattleObjectEPNS2_26BattleObjectModuleAccessorEP9lua_State
_ZN7lua2cpp44create_agent_fighter_animcmd_expression_popoEN3phx6Hash40EPN3app12BattleObjectEPNS2_26BattleObjectModuleAccessorEP9lua_State
_ZN7lua2cpp44create_agent_fighter_animcmd_expression_nanaEN3phx6Hash40EPN3app12BattleObjectEPNS2_26BattleObjectModuleAccessorEP9lua_State
_ZN7lua2cpp46create_agent_fighter_animcmd_expression_koopagEN3phx6Hash40EPN3app12BattleObjectEPNS2_26BattleObjectModuleAccessorEP9lua_State
_ZN7lua2cpp49create_agent_fighter_animcmd_expression_miienemyfEN3phx6Hash40EPN3app12BattleObjectEPNS2_26BattleObjectModuleAccessorEP9lua_State
_ZN7lua2cpp49create_agent_fighter_animcmd_expression_miienemysEN3phx6Hash40EPN3app12BattleObjectEPNS2_26BattleObjectModuleAccessorEP9lua_State
_ZN7lua2cpp49create_agent_fighter_animcmd_expression_miienemygEN3phx6Hash40EPN3app12BattleObjectEPNS2_26BattleObjectModuleAccessorEP9lua_State
_ZN7lua2cpp40create_agent_fighter_animcmd_sound_marioEN3phx6Hash40EPN3app12BattleObjectEPNS2_26BattleObjectModuleAccessorEP9lua_State
_ZN7lua2cpp41create_agent_fighter_animcmd_sound_donkeyEN3phx6Hash40EPN3app12BattleObjectEPNS2_26BattleObjectModuleAccessorEP9lua_State
_ZN7lua2cpp39create_agent_fighter_animcmd_sound_linkEN3phx6Hash40EPN3app12BattleObjectEPNS2_26BattleObjectModuleAccessorEP9lua_State
_ZN7lua2cpp40create_agent_fighter_animcmd_sound_samusEN3phx6Hash40EPN3app12BattleObjectEPNS2_26BattleObjectModuleAccessorEP9lua_State
_ZN7lua2cpp41create_agent_fighter_animcmd_sound_samusdEN3phx6Hash40EPN3app12BattleObjectEPNS2_26BattleObjectModuleAccessorEP9lua_State
_ZN7lua2cpp40create_agent_fighter_animcmd_sound_yoshiEN3phx6Hash40EPN3app12BattleObjectEPNS2_26BattleObjectModuleAccessorEP9lua_State
_ZN7lua2cpp40create_agent_fighter_animcmd_sound_kirbyEN3phx6Hash40EPN3app12BattleObjectEPNS2_26BattleObjectModuleAccessorEP9lua_State
_ZN7lua2cpp38create_agent_fighter_animcmd_sound_foxEN3phx6Hash40EPN3app12BattleObjectEPNS2_26BattleObjectModuleAccessorEP9lua_State
_ZN7lua2cpp42create_agent_fighter_animcmd_sound_pikachuEN3phx6Hash40EPN3app12BattleObjectEPNS2_26BattleObjectModuleAccessorEP9lua_State
_ZN7lua2cpp40create_agent_fighter_animcmd_sound_luigiEN3phx6Hash40EPN3app12BattleObjectEPNS2_26BattleObjectModuleAccessorEP9lua_State
_ZN7lua2cpp39create_agent_fighter_animcmd_sound_nessEN3phx6Hash40EPN3app12BattleObjectEPNS2_26BattleObjectModuleAccessorEP9lua_State
_ZN7lua2cpp42create_agent_fighter_animcmd_sound_captainEN3phx6Hash40EPN3app12BattleObjectEPNS2_26BattleObjectModuleAccessorEP9lua_State
_ZN7lua2cpp40create_agent_fighter_animcmd_sound_purinEN3phx6Hash40EPN3app12BattleObjectEPNS2_26BattleObjectModuleAccessorEP9lua_State
_ZN7lua2cpp40create_agent_fighter_animcmd_sound_peachEN3phx6Hash40EPN3app12BattleObjectEPNS2_26BattleObjectModuleAccessorEP9lua_State
_ZN7lua2cpp40create_agent_fighter_animcmd_sound_daisyEN3phx6Hash40EPN3app12BattleObjectEPNS2_26BattleObjectModuleAccessorEP9lua_State
_ZN7lua2cpp40create_agent_fighter_animcmd_sound_koopaEN3phx6Hash40EPN3app12BattleObjectEPNS2_26BattleObjectModuleAccessorEP9lua_State
_ZN7lua2cpp40create_agent_fighter_animcmd_sound_sheikEN3phx6Hash40EPN3app12BattleObjectEPNS2_26BattleObjectModuleAccessorEP9lua_State
_ZN7lua2cpp40create_agent_fighter_animcmd_sound_zeldaEN3phx6Hash40EPN3app12BattleObjectEPNS2_26BattleObjectModuleAccessorEP9lua_State
_ZN7lua2cpp41create_agent_fighter_animcmd_sound_mariodEN3phx6Hash40EPN3app12BattleObjectEPNS2_26BattleObjectModuleAccessorEP9lua_State
_ZN7lua2cpp40create_agent_fighter_animcmd_sound_pichuEN3phx6Hash40EPN3app12BattleObjectEPNS2_26BattleObjectModuleAccessorEP9lua_State
_ZN7lua2cpp40create_agent_fighter_animcmd_sound_falcoEN3phx6Hash40EPN3app12BattleObjectEPNS2_26BattleObjectModuleAccessorEP9lua_State
_ZN7lua2cpp40create_agent_fighter_animcmd_sound_marthEN3phx6Hash40EPN3app12BattleObjectEPNS2_26BattleObjectModuleAccessorEP9lua_State
_ZN7lua2cpp41create_agent_fighter_animcmd_sound_lucinaEN3phx6Hash40EPN3app12BattleObjectEPNS2_26BattleObjectModuleAccessorEP9lua_State
_ZN7lua2cpp44create_agent_fighter_animcmd_sound_younglinkEN3phx6Hash40EPN3app12BattleObjectEPNS2_26BattleObjectModuleAccessorEP9lua_State
_ZN7lua2cpp40create_agent_fighter_animcmd_sound_ganonEN3phx6Hash40EPN3app12BattleObjectEPNS2_26BattleObjectModuleAccessorEP9lua_State
_ZN7lua2cpp41create_agent_fighter_animcmd_sound_mewtwoEN3phx6Hash40EPN3app12BattleObjectEPNS2_26BattleObjectModuleAccessorEP9lua_State
_ZN7lua2cpp38create_agent_fighter_animcmd_sound_royEN3phx6Hash40EPN3app12BattleObjectEPNS2_26BattleObjectModuleAccessorEP9lua_State
_ZN7lua2cpp40create_agent_fighter_animcmd_sound_chromEN3phx6Hash40EPN3app12BattleObjectEPNS2_26BattleObjectModuleAccessorEP9lua_State
_ZN7lua2cpp44create_agent_fighter_animcmd_sound_gamewatchEN3phx6Hash40EPN3app12BattleObjectEPNS2_26BattleObjectModuleAccessorEP9lua_State
_ZN7lua2cpp45create_agent_fighter_animcmd_sound_metaknightEN3phx6Hash40EPN3app12BattleObjectEPNS2_26BattleObjectModuleAccessorEP9lua_State
_ZN7lua2cpp38create_agent_fighter_animcmd_sound_pitEN3phx6Hash40EPN3app12BattleObjectEPNS2_26BattleObjectModuleAccessorEP9lua_State
_ZN7lua2cpp39create_agent_fighter_animcmd_sound_pitbEN3phx6Hash40EPN3app12BattleObjectEPNS2_26BattleObjectModuleAccessorEP9lua_State
_ZN7lua2cpp44create_agent_fighter_animcmd_sound_szerosuitEN3phx6Hash40EPN3app12BattleObjectEPNS2_26BattleObjectModuleAccessorEP9lua_State
_ZN7lua2cpp40create_agent_fighter_animcmd_sound_warioEN3phx6Hash40EPN3app12BattleObjectEPNS2_26BattleObjectModuleAccessorEP9lua_State
_ZN7lua2cpp40create_agent_fighter_animcmd_sound_snakeEN3phx6Hash40EPN3app12BattleObjectEPNS2_26BattleObjectModuleAccessorEP9lua_State
_ZN7lua2cpp38create_agent_fighter_animcmd_sound_ikeEN3phx6Hash40EPN3app12BattleObjectEPNS2_26BattleObjectModuleAccessorEP9lua_State
_ZN7lua2cpp44create_agent_fighter_animcmd_sound_pzenigameEN3phx6Hash40EPN3app12BattleObjectEPNS2_26BattleObjectModuleAccessorEP9lua_State
_ZN7lua2cpp46create_agent_fighter_animcmd_sound_pfushigisouEN3phx6Hash40EPN3app12BattleObjectEPNS2_26BattleObjectModuleAccessorEP9lua_State
_ZN7lua2cpp44create_agent_fighter_animcmd_sound_plizardonEN3phx6Hash40EPN3app12BattleObjectEPNS2_26BattleObjectModuleAccessorEP9lua_State
_ZN7lua2cpp40create_agent_fighter_animcmd_sound_diddyEN3phx6Hash40EPN3app12BattleObjectEPNS2_26BattleObjectModuleAccessorEP9lua_State
_ZN7lua2cpp40create_agent_fighter_animcmd_sound_lucasEN3phx6Hash40EPN3app12BattleObjectEPNS2_26BattleObjectModuleAccessorEP9lua_State
_ZN7lua2cpp40create_agent_fighter_animcmd_sound_sonicEN3phx6Hash40EPN3app12BattleObjectEPNS2_26BattleObjectModuleAccessorEP9lua_State
_ZN7lua2cpp41create_agent_fighter_animcmd_sound_dededeEN3phx6Hash40EPN3app12BattleObjectEPNS2_26BattleObjectModuleAccessorEP9lua_State
_ZN7lua2cpp41create_agent_fighter_animcmd_sound_pikminEN3phx6Hash40EPN3app12BattleObjectEPNS2_26BattleObjectModuleAccessorEP9lua_State
_ZN7lua2cpp42create_agent_fighter_animcmd_sound_lucarioEN3phx6Hash40EPN3app12BattleObjectEPNS2_26BattleObjectModuleAccessorEP9lua_State
_ZN7lua2cpp40create_agent_fighter_animcmd_sound_robotEN3phx6Hash40EPN3app12BattleObjectEPNS2_26BattleObjectModuleAccessorEP9lua_State
_ZN7lua2cpp43create_agent_fighter_animcmd_sound_toonlinkEN3phx6Hash40EPN3app12BattleObjectEPNS2_26BattleObjectModuleAccessorEP9lua_State
_ZN7lua2cpp39create_agent_fighter_animcmd_sound_wolfEN3phx6Hash40EPN3app12BattleObjectEPNS2_26BattleObjectModuleAccessorEP9lua_State
_ZN7lua2cpp43create_agent_fighter_animcmd_sound_murabitoEN3phx6Hash40EPN3app12BattleObjectEPNS2_26BattleObjectModuleAccessorEP9lua_State
_ZN7lua2cpp42create_agent_fighter_animcmd_sound_rockmanEN3phx6Hash40EPN3app12BattleObjectEPNS2_26BattleObjectModuleAccessorEP9lua_State
_ZN7lua2cpp41create_agent_fighter_animcmd_sound_wiifitEN3phx6Hash40EPN3app12BattleObjectEPNS2_26BattleObjectModuleAccessorEP9lua_State
_ZN7lua2cpp42create_agent_fighter_animcmd_sound_rosettaEN3phx6Hash40EPN3app12BattleObjectEPNS2_26BattleObjectModuleAccessorEP9lua_State
_ZN7lua2cpp44create_agent_fighter_animcmd_sound_littlemacEN3phx6Hash40EPN3app12BattleObjectEPNS2_26BattleObjectModuleAccessorEP9lua_State
_ZN7lua2cpp43create_agent_fighter_animcmd_sound_gekkougaEN3phx6Hash40EPN3app12BattleObjectEPNS2_26BattleObjectModuleAccessorEP9lua_State
_ZN7lua2cpp43create_agent_fighter_animcmd_sound_palutenaEN3phx6Hash40EPN3app12BattleObjectEPNS2_26BattleObjectModuleAccessorEP9lua_State
_ZN7lua2cpp41create_agent_fighter_animcmd_sound_pacmanEN3phx6Hash40EPN3app12BattleObjectEPNS2_26BattleObjectModuleAccessorEP9lua_State
_ZN7lua2cpp41create_agent_fighter_animcmd_sound_refletEN3phx6Hash40EPN3app12BattleObjectEPNS2_26BattleObjectModuleAccessorEP9lua_State
_ZN7lua2cpp40create_agent_fighter_animcmd_sound_shulkEN3phx6Hash40EPN3app12BattleObjectEPNS2_26BattleObjectModuleAccessorEP9lua_State
_ZN7lua2cpp42create_agent_fighter_animcmd_sound_koopajrEN3phx6Hash40EPN3app12BattleObjectEPNS2_26BattleObjectModuleAccessorEP9lua_State
_ZN7lua2cpp43create_agent_fighter_animcmd_sound_duckhuntEN3phx6Hash40EPN3app12BattleObjectEPNS2_26BattleObjectModuleAccessorEP9lua_State
_ZN7lua2cpp38create_agent_fighter_animcmd_sound_ryuEN3phx6Hash40EPN3app12BattleObjectEPNS2_26BattleObjectModuleAccessorEP9lua_State
_ZN7lua2cpp38create_agent_fighter_animcmd_sound_kenEN3phx6Hash40EPN3app12BattleObjectEPNS2_26BattleObjectModuleAccessorEP9lua_State
_ZN7lua2cpp40create_agent_fighter_animcmd_sound_cloudEN3phx6Hash40EPN3app12BattleObjectEPNS2_26BattleObjectModuleAccessorEP9lua_State
_ZN7lua2cpp40create_agent_fighter_animcmd_sound_kamuiEN3phx6Hash40EPN3app12BattleObjectEPNS2_26BattleObjectModuleAccessorEP9lua_State
_ZN7lua2cpp44create_agent_fighter_animcmd_sound_bayonettaEN3phx6Hash40EPN3app12BattleObjectEPNS2_26BattleObjectModuleAccessorEP9lua_State
_ZN7lua2cpp42create_agent_fighter_animcmd_sound_inklingEN3phx6Hash40EPN3app12BattleObjectEPNS2_26BattleObjectModuleAccessorEP9lua_State
_ZN7lua2cpp41create_agent_fighter_animcmd_sound_ridleyEN3phx6Hash40EPN3app12BattleObjectEPNS2_26BattleObjectModuleAccessorEP9lua_State
_ZN7lua2cpp40create_agent_fighter_animcmd_sound_simonEN3phx6Hash40EPN3app12BattleObjectEPNS2_26BattleObjectModuleAccessorEP9lua_State
_ZN7lua2cpp42create_agent_fighter_animcmd_sound_richterEN3phx6Hash40EPN3app12BattleObjectEPNS2_26BattleObjectModuleAccessorEP9lua_State
_ZN7lua2cpp40create_agent_fighter_animcmd_sound_kroolEN3phx6Hash40EPN3app12BattleObjectEPNS2_26BattleObjectModuleAccessorEP9lua_State
_ZN7lua2cpp41create_agent_fighter_animcmd_sound_shizueEN3phx6Hash40EPN3app12BattleObjectEPNS2_26BattleObjectModuleAccessorEP9lua_State
_ZN7lua2cpp42create_agent_fighter_animcmd_sound_gaogaenEN3phx6Hash40EPN3app12BattleObjectEPNS2_26BattleObjectModuleAccessorEP9lua_State
_ZN7lua2cpp45create_agent_fighter_animcmd_sound_miifighterEN3phx6Hash40EPN3app12BattleObjectEPNS2_26BattleObjectModuleAccessorEP9lua_State
_ZN7lua2cpp47create_agent_fighter_animcmd_sound_miiswordsmanEN3phx6Hash40EPN3app12BattleObjectEPNS2_26BattleObjectModuleAccessorEP9lua_State
_ZN7lua2cpp44create_agent_fighter_animcmd_sound_miigunnerEN3phx6Hash40EPN3app12BattleObjectEPNS2_26BattleObjectModuleAccessorEP9lua_State
_ZN7lua2cpp39create_agent_fighter_animcmd_sound_popoEN3phx6Hash40EPN3app12BattleObjectEPNS2_26BattleObjectModuleAccessorEP9lua_State
_ZN7lua2cpp39create_agent_fighter_animcmd_sound_nanaEN3phx6Hash40EPN3app12BattleObjectEPNS2_26BattleObjectModuleAccessorEP9lua_State
_ZN7lua2cpp41create_agent_fighter_animcmd_sound_koopagEN3phx6Hash40EPN3app12BattleObjectEPNS2_26BattleObjectModuleAccessorEP9lua_State
_ZN7lua2cpp44create_agent_fighter_animcmd_sound_miienemyfEN3phx6Hash40EPN3app12BattleObjectEPNS2_26BattleObjectModuleAccessorEP9lua_State
_ZN7lua2cpp44create_agent_fighter_animcmd_sound_miienemysEN3phx6Hash40EPN3app12BattleObjectEPNS2_26BattleObjectModuleAccessorEP9lua_State
_ZN7lua2cpp44create_agent_fighter_animcmd_sound_miienemygEN3phx6Hash40EPN3app12BattleObjectEPNS2_26BattleObjectModuleAccessorEP9lua_State
_ZN7lua2cpp45create_agent_fighter_animcmd_game_share_marioEN3phx6Hash40EPN3app12BattleObjectEPNS2_26BattleObjectModuleAccessorEP9lua_State
_ZN7lua2cpp46create_agent_fighter_animcmd_game_share_donkeyEN3phx6Hash40EPN3app12BattleObjectEPNS2_26BattleObjectModuleAccessorEP9lua_State
_ZN7lua2cpp44create_agent_fighter_animcmd_game_share_linkEN3phx6Hash40EPN3app12BattleObjectEPNS2_26BattleObjectModuleAccessorEP9lua_State
_ZN7lua2cpp45create_agent_fighter_animcmd_game_share_samusEN3phx6Hash40EPN3app12BattleObjectEPNS2_26BattleObjectModuleAccessorEP9lua_State
_ZN7lua2cpp46create_agent_fighter_animcmd_game_share_samusdEN3phx6Hash40EPN3app12BattleObjectEPNS2_26BattleObjectModuleAccessorEP9lua_State
_ZN7lua2cpp45create_agent_fighter_animcmd_game_share_yoshiEN3phx6Hash40EPN3app12BattleObjectEPNS2_26BattleObjectModuleAccessorEP9lua_State
_ZN7lua2cpp45create_agent_fighter_animcmd_game_share_kirbyEN3phx6Hash40EPN3app12BattleObjectEPNS2_26BattleObjectModuleAccessorEP9lua_State
_ZN7lua2cpp43create_agent_fighter_animcmd_game_share_foxEN3phx6Hash40EPN3app12BattleObjectEPNS2_26BattleObjectModuleAccessorEP9lua_State
_ZN7lua2cpp47create_agent_fighter_animcmd_game_share_pikachuEN3phx6Hash40EPN3app12BattleObjectEPNS2_26BattleObjectModuleAccessorEP9lua_State
_ZN7lua2cpp45create_agent_fighter_animcmd_game_share_luigiEN3phx6Hash40EPN3app12BattleObjectEPNS2_26BattleObjectModuleAccessorEP9lua_State
_ZN7lua2cpp44create_agent_fighter_animcmd_game_share_nessEN3phx6Hash40EPN3app12BattleObjectEPNS2_26BattleObjectModuleAccessorEP9lua_State
_ZN7lua2cpp47create_agent_fighter_animcmd_game_share_captainEN3phx6Hash40EPN3app12BattleObjectEPNS2_26BattleObjectModuleAccessorEP9lua_State
_ZN7lua2cpp45create_agent_fighter_animcmd_game_share_purinEN3phx6Hash40EPN3app12BattleObjectEPNS2_26BattleObjectModuleAccessorEP9lua_State
_ZN7lua2cpp45create_agent_fighter_animcmd_game_share_peachEN3phx6Hash40EPN3app12BattleObjectEPNS2_26BattleObjectModuleAccessorEP9lua_State
_ZN7lua2cpp45create_agent_fighter_animcmd_game_share_daisyEN3phx6Hash40EPN3app12BattleObjectEPNS2_26BattleObjectModuleAccessorEP9lua_State
_ZN7lua2cpp45create_agent_fighter_animcmd_game_share_koopaEN3phx6Hash40EPN3app12BattleObjectEPNS2_26BattleObjectModuleAccessorEP9lua_State
_ZN7lua2cpp45create_agent_fighter_animcmd_game_share_sheikEN3phx6Hash40EPN3app12BattleObjectEPNS2_26BattleObjectModuleAccessorEP9lua_State
_ZN7lua2cpp45create_agent_fighter_animcmd_game_share_zeldaEN3phx6Hash40EPN3app12BattleObjectEPNS2_26BattleObjectModuleAccessorEP9lua_State
_ZN7lua2cpp46create_agent_fighter_animcmd_game_share_mariodEN3phx6Hash40EPN3app12BattleObjectEPNS2_26BattleObjectModuleAccessorEP9lua_State
_ZN7lua2cpp45create_agent_fighter_animcmd_game_share_pichuEN3phx6Hash40EPN3app12BattleObjectEPNS2_26BattleObjectModuleAccessorEP9lua_State
_ZN7lua2cpp45create_agent_fighter_animcmd_game_share_falcoEN3phx6Hash40EPN3app12BattleObjectEPNS2_26BattleObjectModuleAccessorEP9lua_State
_ZN7lua2cpp45create_agent_fighter_animcmd_game_share_marthEN3phx6Hash40EPN3app12BattleObjectEPNS2_26BattleObjectModuleAccessorEP9lua_State
_ZN7lua2cpp46create_agent_fighter_animcmd_game_share_lucinaEN3phx6Hash40EPN3app12BattleObjectEPNS2_26BattleObjectModuleAccessorEP9lua_State
_ZN7lua2cpp49create_agent_fighter_animcmd_game_share_younglinkEN3phx6Hash40EPN3app12BattleObjectEPNS2_26BattleObjectModuleAccessorEP9lua_State
_ZN7lua2cpp45create_agent_fighter_animcmd_game_share_ganonEN3phx6Hash40EPN3app12BattleObjectEPNS2_26BattleObjectModuleAccessorEP9lua_State
_ZN7lua2cpp46create_agent_fighter_animcmd_game_share_mewtwoEN3phx6Hash40EPN3app12BattleObjectEPNS2_26BattleObjectModuleAccessorEP9lua_State
_ZN7lua2cpp43create_agent_fighter_animcmd_game_share_royEN3phx6Hash40EPN3app12BattleObjectEPNS2_26BattleObjectModuleAccessorEP9lua_State
_ZN7lua2cpp45create_agent_fighter_animcmd_game_share_chromEN3phx6Hash40EPN3app12BattleObjectEPNS2_26BattleObjectModuleAccessorEP9lua_State
_ZN7lua2cpp49create_agent_fighter_animcmd_game_share_gamewatchEN3phx6Hash40EPN3app12BattleObjectEPNS2_26BattleObjectModuleAccessorEP9lua_State
_ZN7lua2cpp50create_agent_fighter_animcmd_game_share_metaknightEN3phx6Hash40EPN3app12BattleObjectEPNS2_26BattleObjectModuleAccessorEP9lua_State
_ZN7lua2cpp43create_agent_fighter_animcmd_game_share_pitEN3phx6Hash40EPN3app12BattleObjectEPNS2_26BattleObjectModuleAccessorEP9lua_State
_ZN7lua2cpp44create_agent_fighter_animcmd_game_share_pitbEN3phx6Hash40EPN3app12BattleObjectEPNS2_26BattleObjectModuleAccessorEP9lua_State
_ZN7lua2cpp49create_agent_fighter_animcmd_game_share_szerosuitEN3phx6Hash40EPN3app12BattleObjectEPNS2_26BattleObjectModuleAccessorEP9lua_State
_ZN7lua2cpp45create_agent_fighter_animcmd_game_share_warioEN3phx6Hash40EPN3app12BattleObjectEPNS2_26BattleObjectModuleAccessorEP9lua_State
_ZN7lua2cpp45create_agent_fighter_animcmd_game_share_snakeEN3phx6Hash40EPN3app12BattleObjectEPNS2_26BattleObjectModuleAccessorEP9lua_State
_ZN7lua2cpp43create_agent_fighter_animcmd_game_share_ikeEN3phx6Hash40EPN3app12BattleObjectEPNS2_26BattleObjectModuleAccessorEP9lua_State
_ZN7lua2cpp49create_agent_fighter_animcmd_game_share_pzenigameEN3phx6Hash40EPN3app12BattleObjectEPNS2_26BattleObjectModuleAccessorEP9lua_State
_ZN7lua2cpp51create_agent_fighter_animcmd_game_share_pfushigisouEN3phx6Hash40EPN3app12BattleObjectEPNS2_26BattleObjectModuleAccessorEP9lua_State
_ZN7lua2cpp49create_agent_fighter_animcmd_game_share_plizardonEN3phx6Hash40EPN3app12BattleObjectEPNS2_26BattleObjectModuleAccessorEP9lua_State
_ZN7lua2cpp45create_agent_fighter_animcmd_game_share_diddyEN3phx6Hash40EPN3app12BattleObjectEPNS2_26BattleObjectModuleAccessorEP9lua_State
_ZN7lua2cpp45create_agent_fighter_animcmd_game_share_lucasEN3phx6Hash40EPN3app12BattleObjectEPNS2_26BattleObjectModuleAccessorEP9lua_State
_ZN7lua2cpp45create_agent_fighter_animcmd_game_share_sonicEN3phx6Hash40EPN3app12BattleObjectEPNS2_26BattleObjectModuleAccessorEP9lua_State
_ZN7lua2cpp46create_agent_fighter_animcmd_game_share_dededeEN3phx6Hash40EPN3app12BattleObjectEPNS2_26BattleObjectModuleAccessorEP9lua_State
_ZN7lua2cpp46create_agent_fighter_animcmd_game_share_pikminEN3phx6Hash40EPN3app12BattleObjectEPNS2_26BattleObjectModuleAccessorEP9lua_State
_ZN7lua2cpp47create_agent_fighter_animcmd_game_share_lucarioEN3phx6Hash40EPN3app12BattleObjectEPNS2_26BattleObjectModuleAccessorEP9lua_State
_ZN7lua2cpp45create_agent_fighter_animcmd_game_share_robotEN3phx6Hash40EPN3app12BattleObjectEPNS2_26BattleObjectModuleAccessorEP9lua_State
_ZN7lua2cpp48create_agent_fighter_animcmd_game_share_toonlinkEN3phx6Hash40EPN3app12BattleObjectEPNS2_26BattleObjectModuleAccessorEP9lua_State
_ZN7lua2cpp44create_agent_fighter_animcmd_game_share_wolfEN3phx6Hash40EPN3app12BattleObjectEPNS2_26BattleObjectModuleAccessorEP9lua_State
_ZN7lua2cpp48create_agent_fighter_animcmd_game_share_murabitoEN3phx6Hash40EPN3app12BattleObjectEPNS2_26BattleObjectModuleAccessorEP9lua_State
_ZN7lua2cpp47create_agent_fighter_animcmd_game_share_rockmanEN3phx6Hash40EPN3app12BattleObjectEPNS2_26BattleObjectModuleAccessorEP9lua_State
_ZN7lua2cpp46create_agent_fighter_animcmd_game_share_wiifitEN3phx6Hash40EPN3app12BattleObjectEPNS2_26BattleObjectModuleAccessorEP9lua_State
_ZN7lua2cpp47create_agent_fighter_animcmd_game_share_rosettaEN3phx6Hash40EPN3app12BattleObjectEPNS2_26BattleObjectModuleAccessorEP9lua_State
_ZN7lua2cpp49create_agent_fighter_animcmd_game_share_littlemacEN3phx6Hash40EPN3app12BattleObjectEPNS2_26BattleObjectModuleAccessorEP9lua_State
_ZN7lua2cpp48create_agent_fighter_animcmd_game_share_gekkougaEN3phx6Hash40EPN3app12BattleObjectEPNS2_26BattleObjectModuleAccessorEP9lua_State
_ZN7lua2cpp48create_agent_fighter_animcmd_game_share_palutenaEN3phx6Hash40EPN3app12BattleObjectEPNS2_26BattleObjectModuleAccessorEP9lua_State
_ZN7lua2cpp46create_agent_fighter_animcmd_game_share_pacmanEN3phx6Hash40EPN3app12BattleObjectEPNS2_26BattleObjectModuleAccessorEP9lua_State
_ZN7lua2cpp46create_agent_fighter_animcmd_game_share_refletEN3phx6Hash40EPN3app12BattleObjectEPNS2_26BattleObjectModuleAccessorEP9lua_State
_ZN7lua2cpp45create_agent_fighter_animcmd_game_share_shulkEN3phx6Hash40EPN3app12BattleObjectEPNS2_26BattleObjectModuleAccessorEP9lua_State
_ZN7lua2cpp47create_agent_fighter_animcmd_game_share_koopajrEN3phx6Hash40EPN3app12BattleObjectEPNS2_26BattleObjectModuleAccessorEP9lua_State
_ZN7lua2cpp48create_agent_fighter_animcmd_game_share_duckhuntEN3phx6Hash40EPN3app12BattleObjectEPNS2_26BattleObjectModuleAccessorEP9lua_State
_ZN7lua2cpp43create_agent_fighter_animcmd_game_share_ryuEN3phx6Hash40EPN3app12BattleObjectEPNS2_26BattleObjectModuleAccessorEP9lua_State
_ZN7lua2cpp43create_agent_fighter_animcmd_game_share_kenEN3phx6Hash40EPN3app12BattleObjectEPNS2_26BattleObjectModuleAccessorEP9lua_State
_ZN7lua2cpp45create_agent_fighter_animcmd_game_share_cloudEN3phx6Hash40EPN3app12BattleObjectEPNS2_26BattleObjectModuleAccessorEP9lua_State
_ZN7lua2cpp45create_agent_fighter_animcmd_game_share_kamuiEN3phx6Hash40EPN3app12BattleObjectEPNS2_26BattleObjectModuleAccessorEP9lua_State
_ZN7lua2cpp49create_agent_fighter_animcmd_game_share_bayonettaEN3phx6Hash40EPN3app12BattleObjectEPNS2_26BattleObjectModuleAccessorEP9lua_State
_ZN7lua2cpp47create_agent_fighter_animcmd_game_share_inklingEN3phx6Hash40EPN3app12BattleObjectEPNS2_26BattleObjectModuleAccessorEP9lua_State
_ZN7lua2cpp46create_agent_fighter_animcmd_game_share_ridleyEN3phx6Hash40EPN3app12BattleObjectEPNS2_26BattleObjectModuleAccessorEP9lua_State
_ZN7lua2cpp45create_agent_fighter_animcmd_game_share_simonEN3phx6Hash40EPN3app12BattleObjectEPNS2_26BattleObjectModuleAccessorEP9lua_State
_ZN7lua2cpp47create_agent_fighter_animcmd_game_share_richterEN3phx6Hash40EPN3app12BattleObjectEPNS2_26BattleObjectModuleAccessorEP9lua_State
_ZN7lua2cpp45create_agent_fighter_animcmd_game_share_kroolEN3phx6Hash40EPN3app12BattleObjectEPNS2_26BattleObjectModuleAccessorEP9lua_State
_ZN7lua2cpp46create_agent_fighter_animcmd_game_share_shizueEN3phx6Hash40EPN3app12BattleObjectEPNS2_26BattleObjectModuleAccessorEP9lua_State
_ZN7lua2cpp47create_agent_fighter_animcmd_game_share_gaogaenEN3phx6Hash40EPN3app12BattleObjectEPNS2_26BattleObjectModuleAccessorEP9lua_State
_ZN7lua2cpp50create_agent_fighter_animcmd_game_share_miifighterEN3phx6Hash40EPN3app12BattleObjectEPNS2_26BattleObjectModuleAccessorEP9lua_State
_ZN7lua2cpp52create_agent_fighter_animcmd_game_share_miiswordsmanEN3phx6Hash40EPN3app12BattleObjectEPNS2_26BattleObjectModuleAccessorEP9lua_State
_ZN7lua2cpp49create_agent_fighter_animcmd_game_share_miigunnerEN3phx6Hash40EPN3app12BattleObjectEPNS2_26BattleObjectModuleAccessorEP9lua_State
_ZN7lua2cpp44create_agent_fighter_animcmd_game_share_popoEN3phx6Hash40EPN3app12BattleObjectEPNS2_26BattleObjectModuleAccessorEP9lua_State
_ZN7lua2cpp44create_agent_fighter_animcmd_game_share_nanaEN3phx6Hash40EPN3app12BattleObjectEPNS2_26BattleObjectModuleAccessorEP9lua_State
_ZN7lua2cpp46create_agent_fighter_animcmd_game_share_koopagEN3phx6Hash40EPN3app12BattleObjectEPNS2_26BattleObjectModuleAccessorEP9lua_State
_ZN7lua2cpp49create_agent_fighter_animcmd_game_share_miienemyfEN3phx6Hash40EPN3app12BattleObjectEPNS2_26BattleObjectModuleAccessorEP9lua_State
_ZN7lua2cpp49create_agent_fighter_animcmd_game_share_miienemysEN3phx6Hash40EPN3app12BattleObjectEPNS2_26BattleObjectModuleAccessorEP9lua_State
_ZN7lua2cpp49create_agent_fighter_animcmd_game_share_miienemygEN3phx6Hash40EPN3app12BattleObjectEPNS2_26BattleObjectModuleAccessorEP9lua_State
_ZN7lua2cpp47create_agent_fighter_animcmd_effect_share_marioEN3phx6Hash40EPN3app12BattleObjectEPNS2_26BattleObjectModuleAccessorEP9lua_State
_ZN7lua2cpp48create_agent_fighter_animcmd_effect_share_donkeyEN3phx6Hash40EPN3app12BattleObjectEPNS2_26BattleObjectModuleAccessorEP9lua_State
_ZN7lua2cpp46create_agent_fighter_animcmd_effect_share_linkEN3phx6Hash40EPN3app12BattleObjectEPNS2_26BattleObjectModuleAccessorEP9lua_State
_ZN7lua2cpp47create_agent_fighter_animcmd_effect_share_samusEN3phx6Hash40EPN3app12BattleObjectEPNS2_26BattleObjectModuleAccessorEP9lua_State
_ZN7lua2cpp48create_agent_fighter_animcmd_effect_share_samusdEN3phx6Hash40EPN3app12BattleObjectEPNS2_26BattleObjectModuleAccessorEP9lua_State
_ZN7lua2cpp47create_agent_fighter_animcmd_effect_share_yoshiEN3phx6Hash40EPN3app12BattleObjectEPNS2_26BattleObjectModuleAccessorEP9lua_State
_ZN7lua2cpp47create_agent_fighter_animcmd_effect_share_kirbyEN3phx6Hash40EPN3app12BattleObjectEPNS2_26BattleObjectModuleAccessorEP9lua_State
_ZN7lua2cpp45create_agent_fighter_animcmd_effect_share_foxEN3phx6Hash40EPN3app12BattleObjectEPNS2_26BattleObjectModuleAccessorEP9lua_State
_ZN7lua2cpp49create_agent_fighter_animcmd_effect_share_pikachuEN3phx6Hash40EPN3app12BattleObjectEPNS2_26BattleObjectModuleAccessorEP9lua_State
_ZN7lua2cpp47create_agent_fighter_animcmd_effect_share_luigiEN3phx6Hash40EPN3app12BattleObjectEPNS2_26BattleObjectModuleAccessorEP9lua_State
_ZN7lua2cpp46create_agent_fighter_animcmd_effect_share_nessEN3phx6Hash40EPN3app12BattleObjectEPNS2_26BattleObjectModuleAccessorEP9lua_State
_ZN7lua2cpp49create_agent_fighter_animcmd_effect_share_captainEN3phx6Hash40EPN3app12BattleObjectEPNS2_26BattleObjectModuleAccessorEP9lua_State
_ZN7lua2cpp47create_agent_fighter_animcmd_effect_share_purinEN3phx6Hash40EPN3app12BattleObjectEPNS2_26BattleObjectModuleAccessorEP9lua_State
_ZN7lua2cpp47create_agent_fighter_animcmd_effect_share_peachEN3phx6Hash40EPN3app12BattleObjectEPNS2_26BattleObjectModuleAccessorEP9lua_State
_ZN7lua2cpp47create_agent_fighter_animcmd_effect_share_daisyEN3phx6Hash40EPN3app12BattleObjectEPNS2_26BattleObjectModuleAccessorEP9lua_State
_ZN7lua2cpp47create_agent_fighter_animcmd_effect_share_koopaEN3phx6Hash40EPN3app12BattleObjectEPNS2_26BattleObjectModuleAccessorEP9lua_State
_ZN7lua2cpp47create_agent_fighter_animcmd_effect_share_sheikEN3phx6Hash40EPN3app12BattleObjectEPNS2_26BattleObjectModuleAccessorEP9lua_State
_ZN7lua2cpp47create_agent_fighter_animcmd_effect_share_zeldaEN3phx6Hash40EPN3app12BattleObjectEPNS2_26BattleObjectModuleAccessorEP9lua_State
_ZN7lua2cpp48create_agent_fighter_animcmd_effect_share_mariodEN3phx6Hash40EPN3app12BattleObjectEPNS2_26BattleObjectModuleAccessorEP9lua_State
_ZN7lua2cpp47create_agent_fighter_animcmd_effect_share_pichuEN3phx6Hash40EPN3app12BattleObjectEPNS2_26BattleObjectModuleAccessorEP9lua_State
_ZN7lua2cpp47create_agent_fighter_animcmd_effect_share_falcoEN3phx6Hash40EPN3app12BattleObjectEPNS2_26BattleObjectModuleAccessorEP9lua_State
_ZN7lua2cpp47create_agent_fighter_animcmd_effect_share_marthEN3phx6Hash40EPN3app12BattleObjectEPNS2_26BattleObjectModuleAccessorEP9lua_State
_ZN7lua2cpp48create_agent_fighter_animcmd_effect_share_lucinaEN3phx6Hash40EPN3app12BattleObjectEPNS2_26BattleObjectModuleAccessorEP9lua_State
_ZN7lua2cpp51create_agent_fighter_animcmd_effect_share_younglinkEN3phx6Hash40EPN3app12BattleObjectEPNS2_26BattleObjectModuleAccessorEP9lua_State
_ZN7lua2cpp47create_agent_fighter_animcmd_effect_share_ganonEN3phx6Hash40EPN3app12BattleObjectEPNS2_26BattleObjectModuleAccessorEP9lua_State
_ZN7lua2cpp48create_agent_fighter_animcmd_effect_share_mewtwoEN3phx6Hash40EPN3app12BattleObjectEPNS2_26BattleObjectModuleAccessorEP9lua_State
_ZN7lua2cpp45create_agent_fighter_animcmd_effect_share_royEN3phx6Hash40EPN3app12BattleObjectEPNS2_26BattleObjectModuleAccessorEP9lua_State
_ZN7lua2cpp47create_agent_fighter_animcmd_effect_share_chromEN3phx6Hash40EPN3app12BattleObjectEPNS2_26BattleObjectModuleAccessorEP9lua_State
_ZN7lua2cpp51create_agent_fighter_animcmd_effect_share_gamewatchEN3phx6Hash40EPN3app12BattleObjectEPNS2_26BattleObjectModuleAccessorEP9lua_State
_ZN7lua2cpp52create_agent_fighter_animcmd_effect_share_metaknightEN3phx6Hash40EPN3app12BattleObjectEPNS2_26BattleObjectModuleAccessorEP9lua_State
_ZN7lua2cpp45create_agent_fighter_animcmd_effect_share_pitEN3phx6Hash40EPN3app12BattleObjectEPNS2_26BattleObjectModuleAccessorEP9lua_State
_ZN7lua2cpp46create_agent_fighter_animcmd_effect_share_pitbEN3phx6Hash40EPN3app12BattleObjectEPNS2_26BattleObjectModuleAccessorEP9lua_State
_ZN7lua2cpp51create_agent_fighter_animcmd_effect_share_szerosuitEN3phx6Hash40EPN3app12BattleObjectEPNS2_26BattleObjectModuleAccessorEP9lua_State
_ZN7lua2cpp47create_agent_fighter_animcmd_effect_share_warioEN3phx6Hash40EPN3app12BattleObjectEPNS2_26BattleObjectModuleAccessorEP9lua_State
_ZN7lua2cpp47create_agent_fighter_animcmd_effect_share_snakeEN3phx6Hash40EPN3app12BattleObjectEPNS2_26BattleObjectModuleAccessorEP9lua_State
_ZN7lua2cpp45create_agent_fighter_animcmd_effect_share_ikeEN3phx6Hash40EPN3app12BattleObjectEPNS2_26BattleObjectModuleAccessorEP9lua_State
_ZN7lua2cpp51create_agent_fighter_animcmd_effect_share_pzenigameEN3phx6Hash40EPN3app12BattleObjectEPNS2_26BattleObjectModuleAccessorEP9lua_State
_ZN7lua2cpp53create_agent_fighter_animcmd_effect_share_pfushigisouEN3phx6Hash40EPN3app12BattleObjectEPNS2_26BattleObjectModuleAccessorEP9lua_State
_ZN7lua2cpp51create_agent_fighter_animcmd_effect_share_plizardonEN3phx6Hash40EPN3app12BattleObjectEPNS2_26BattleObjectModuleAccessorEP9lua_State
_ZN7lua2cpp47create_agent_fighter_animcmd_effect_share_diddyEN3phx6Hash40EPN3app12BattleObjectEPNS2_26BattleObjectModuleAccessorEP9lua_State
_ZN7lua2cpp47create_agent_fighter_animcmd_effect_share_lucasEN3phx6Hash40EPN3app12BattleObjectEPNS2_26BattleObjectModuleAccessorEP9lua_State
_ZN7lua2cpp47create_agent_fighter_animcmd_effect_share_sonicEN3phx6Hash40EPN3app12BattleObjectEPNS2_26BattleObjectModuleAccessorEP9lua_State
_ZN7lua2cpp48create_agent_fighter_animcmd_effect_share_dededeEN3phx6Hash40EPN3app12BattleObjectEPNS2_26BattleObjectModuleAccessorEP9lua_State
_ZN7lua2cpp48create_agent_fighter_animcmd_effect_share_pikminEN3phx6Hash40EPN3app12BattleObjectEPNS2_26BattleObjectModuleAccessorEP9lua_State
_ZN7lua2cpp49create_agent_fighter_animcmd_effect_share_lucarioEN3phx6Hash40EPN3app12BattleObjectEPNS2_26BattleObjectModuleAccessorEP9lua_State
_ZN7lua2cpp47create_agent_fighter_animcmd_effect_share_robotEN3phx6Hash40EPN3app12BattleObjectEPNS2_26BattleObjectModuleAccessorEP9lua_State
_ZN7lua2cpp50create_agent_fighter_animcmd_effect_share_toonlinkEN3phx6Hash40EPN3app12BattleObjectEPNS2_26BattleObjectModuleAccessorEP9lua_State
_ZN7lua2cpp46create_agent_fighter_animcmd_effect_share_wolfEN3phx6Hash40EPN3app12BattleObjectEPNS2_26BattleObjectModuleAccessorEP9lua_State
_ZN7lua2cpp50create_agent_fighter_animcmd_effect_share_murabitoEN3phx6Hash40EPN3app12BattleObjectEPNS2_26BattleObjectModuleAccessorEP9lua_State
_ZN7lua2cpp49create_agent_fighter_animcmd_effect_share_rockmanEN3phx6Hash40EPN3app12BattleObjectEPNS2_26BattleObjectModuleAccessorEP9lua_State
_ZN7lua2cpp48create_agent_fighter_animcmd_effect_share_wiifitEN3phx6Hash40EPN3app12BattleObjectEPNS2_26BattleObjectModuleAccessorEP9lua_State
_ZN7lua2cpp49create_agent_fighter_animcmd_effect_share_rosettaEN3phx6Hash40EPN3app12BattleObjectEPNS2_26BattleObjectModuleAccessorEP9lua_State
_ZN7lua2cpp51create_agent_fighter_animcmd_effect_share_littlemacEN3phx6Hash40EPN3app12BattleObjectEPNS2_26BattleObjectModuleAccessorEP9lua_State
_ZN7lua2cpp50create_agent_fighter_animcmd_effect_share_gekkougaEN3phx6Hash40EPN3app12BattleObjectEPNS2_26BattleObjectModuleAccessorEP9lua_State
_ZN7lua2cpp50create_agent_fighter_animcmd_effect_share_palutenaEN3phx6Hash40EPN3app12BattleObjectEPNS2_26BattleObjectModuleAccessorEP9lua_State
_ZN7lua2cpp48create_agent_fighter_animcmd_effect_share_pacmanEN3phx6Hash40EPN3app12BattleObjectEPNS2_26BattleObjectModuleAccessorEP9lua_State
_ZN7lua2cpp48create_agent_fighter_animcmd_effect_share_refletEN3phx6Hash40EPN3app12BattleObjectEPNS2_26BattleObjectModuleAccessorEP9lua_State
_ZN7lua2cpp47create_agent_fighter_animcmd_effect_share_shulkEN3phx6Hash40EPN3app12BattleObjectEPNS2_26BattleObjectModuleAccessorEP9lua_State
_ZN7lua2cpp49create_agent_fighter_animcmd_effect_share_koopajrEN3phx6Hash40EPN3app12BattleObjectEPNS2_26BattleObjectModuleAccessorEP9lua_State
_ZN7lua2cpp50create_agent_fighter_animcmd_effect_share_duckhuntEN3phx6Hash40EPN3app12BattleObjectEPNS2_26BattleObjectModuleAccessorEP9lua_State
_ZN7lua2cpp45create_agent_fighter_animcmd_effect_share_ryuEN3phx6Hash40EPN3app12BattleObjectEPNS2_26BattleObjectModuleAccessorEP9lua_State
_ZN7lua2cpp45create_agent_fighter_animcmd_effect_share_kenEN3phx6Hash40EPN3app12BattleObjectEPNS2_26BattleObjectModuleAccessorEP9lua_State
_ZN7lua2cpp47create_agent_fighter_animcmd_effect_share_cloudEN3phx6Hash40EPN3app12BattleObjectEPNS2_26BattleObjectModuleAccessorEP9lua_State
_ZN7lua2cpp47create_agent_fighter_animcmd_effect_share_kamuiEN3phx6Hash40EPN3app12BattleObjectEPNS2_26BattleObjectModuleAccessorEP9lua_State
_ZN7lua2cpp51create_agent_fighter_animcmd_effect_share_bayonettaEN3phx6Hash40EPN3app12BattleObjectEPNS2_26BattleObjectModuleAccessorEP9lua_State
_ZN7lua2cpp49create_agent_fighter_animcmd_effect_share_inklingEN3phx6Hash40EPN3app12BattleObjectEPNS2_26BattleObjectModuleAccessorEP9lua_State
_ZN7lua2cpp48create_agent_fighter_animcmd_effect_share_ridleyEN3phx6Hash40EPN3app12BattleObjectEPNS2_26BattleObjectModuleAccessorEP9lua_State
_ZN7lua2cpp47create_agent_fighter_animcmd_effect_share_simonEN3phx6Hash40EPN3app12BattleObjectEPNS2_26BattleObjectModuleAccessorEP9lua_State
_ZN7lua2cpp49create_agent_fighter_animcmd_effect_share_richterEN3phx6Hash40EPN3app12BattleObjectEPNS2_26BattleObjectModuleAccessorEP9lua_State
_ZN7lua2cpp47create_agent_fighter_animcmd_effect_share_kroolEN3phx6Hash40EPN3app12BattleObjectEPNS2_26BattleObjectModuleAccessorEP9lua_State
_ZN7lua2cpp48create_agent_fighter_animcmd_effect_share_shizueEN3phx6Hash40EPN3app12BattleObjectEPNS2_26BattleObjectModuleAccessorEP9lua_State
_ZN7lua2cpp49create_agent_fighter_animcmd_effect_share_gaogaenEN3phx6Hash40EPN3app12BattleObjectEPNS2_26BattleObjectModuleAccessorEP9lua_State
_ZN7lua2cpp52create_agent_fighter_animcmd_effect_share_miifighterEN3phx6Hash40EPN3app12BattleObjectEPNS2_26BattleObjectModuleAccessorEP9lua_State
_ZN7lua2cpp54create_agent_fighter_animcmd_effect_share_miiswordsmanEN3phx6Hash40EPN3app12BattleObjectEPNS2_26BattleObjectModuleAccessorEP9lua_State
_ZN7lua2cpp51create_agent_fighter_animcmd_effect_share_miigunnerEN3phx6Hash40EPN3app12BattleObjectEPNS2_26BattleObjectModuleAccessorEP9lua_State
_ZN7lua2cpp46create_agent_fighter_animcmd_effect_share_popoEN3phx6Hash40EPN3app12BattleObjectEPNS2_26BattleObjectModuleAccessorEP9lua_State
_ZN7lua2cpp46create_agent_fighter_animcmd_effect_share_nanaEN3phx6Hash40EPN3app12BattleObjectEPNS2_26BattleObjectModuleAccessorEP9lua_State
_ZN7lua2cpp48create_agent_fighter_animcmd_effect_share_koopagEN3phx6Hash40EPN3app12BattleObjectEPNS2_26BattleObjectModuleAccessorEP9lua_State
_ZN7lua2cpp51create_agent_fighter_animcmd_effect_share_miienemyfEN3phx6Hash40EPN3app12BattleObjectEPNS2_26BattleObjectModuleAccessorEP9lua_State
_ZN7lua2cpp51create_agent_fighter_animcmd_effect_share_miienemysEN3phx6Hash40EPN3app12BattleObjectEPNS2_26BattleObjectModuleAccessorEP9lua_State
_ZN7lua2cpp51create_agent_fighter_animcmd_effect_share_miienemygEN3phx6Hash40EPN3app12BattleObjectEPNS2_26BattleObjectModuleAccessorEP9lua_State
_ZN7lua2cpp51create_agent_fighter_animcmd_expression_share_marioEN3phx6Hash40EPN3app12BattleObjectEPNS2_26BattleObjectModuleAccessorEP9lua_State
_ZN7lua2cpp52create_agent_fighter_animcmd_expression_share_donkeyEN3phx6Hash40EPN3app12BattleObjectEPNS2_26BattleObjectModuleAccessorEP9lua_State
_ZN7lua2cpp50create_agent_fighter_animcmd_expression_share_linkEN3phx6Hash40EPN3app12BattleObjectEPNS2_26BattleObjectModuleAccessorEP9lua_State
_ZN7lua2cpp51create_agent_fighter_animcmd_expression_share_samusEN3phx6Hash40EPN3app12BattleObjectEPNS2_26BattleObjectModuleAccessorEP9lua_State
_ZN7lua2cpp52create_agent_fighter_animcmd_expression_share_samusdEN3phx6Hash40EPN3app12BattleObjectEPNS2_26BattleObjectModuleAccessorEP9lua_State
_ZN7lua2cpp51create_agent_fighter_animcmd_expression_share_yoshiEN3phx6Hash40EPN3app12BattleObjectEPNS2_26BattleObjectModuleAccessorEP9lua_State
_ZN7lua2cpp51create_agent_fighter_animcmd_expression_share_kirbyEN3phx6Hash40EPN3app12BattleObjectEPNS2_26BattleObjectModuleAccessorEP9lua_State
_ZN7lua2cpp49create_agent_fighter_animcmd_expression_share_foxEN3phx6Hash40EPN3app12BattleObjectEPNS2_26BattleObjectModuleAccessorEP9lua_State
_ZN7lua2cpp53create_agent_fighter_animcmd_expression_share_pikachuEN3phx6Hash40EPN3app12BattleObjectEPNS2_26BattleObjectModuleAccessorEP9lua_State
_ZN7lua2cpp51create_agent_fighter_animcmd_expression_share_luigiEN3phx6Hash40EPN3app12BattleObjectEPNS2_26BattleObjectModuleAccessorEP9lua_State
_ZN7lua2cpp50create_agent_fighter_animcmd_expression_share_nessEN3phx6Hash40EPN3app12BattleObjectEPNS2_26BattleObjectModuleAccessorEP9lua_State
_ZN7lua2cpp53create_agent_fighter_animcmd_expression_share_captainEN3phx6Hash40EPN3app12BattleObjectEPNS2_26BattleObjectModuleAccessorEP9lua_State
_ZN7lua2cpp51create_agent_fighter_animcmd_expression_share_purinEN3phx6Hash40EPN3app12BattleObjectEPNS2_26BattleObjectModuleAccessorEP9lua_State
_ZN7lua2cpp51create_agent_fighter_animcmd_expression_share_peachEN3phx6Hash40EPN3app12BattleObjectEPNS2_26BattleObjectModuleAccessorEP9lua_State
_ZN7lua2cpp51create_agent_fighter_animcmd_expression_share_daisyEN3phx6Hash40EPN3app12BattleObjectEPNS2_26BattleObjectModuleAccessorEP9lua_State
_ZN7lua2cpp51create_agent_fighter_animcmd_expression_share_koopaEN3phx6Hash40EPN3app12BattleObjectEPNS2_26BattleObjectModuleAccessorEP9lua_State
_ZN7lua2cpp51create_agent_fighter_animcmd_expression_share_sheikEN3phx6Hash40EPN3app12BattleObjectEPNS2_26BattleObjectModuleAccessorEP9lua_State
_ZN7lua2cpp51create_agent_fighter_animcmd_expression_share_zeldaEN3phx6Hash40EPN3app12BattleObjectEPNS2_26BattleObjectModuleAccessorEP9lua_State
_ZN7lua2cpp52create_agent_fighter_animcmd_expression_share_mariodEN3phx6Hash40EPN3app12BattleObjectEPNS2_26BattleObjectModuleAccessorEP9lua_State
_ZN7lua2cpp51create_agent_fighter_animcmd_expression_share_pichuEN3phx6Hash40EPN3app12BattleObjectEPNS2_26BattleObjectModuleAccessorEP9lua_State
_ZN7lua2cpp51create_agent_fighter_animcmd_expression_share_falcoEN3phx6Hash40EPN3app12BattleObjectEPNS2_26BattleObjectModuleAccessorEP9lua_State
_ZN7lua2cpp51create_agent_fighter_animcmd_expression_share_marthEN3phx6Hash40EPN3app12BattleObjectEPNS2_26BattleObjectModuleAccessorEP9lua_State
_ZN7lua2cpp52create_agent_fighter_animcmd_expression_share_lucinaEN3phx6Hash40EPN3app12BattleObjectEPNS2_26BattleObjectModuleAccessorEP9lua_State
_ZN7lua2cpp55create_agent_fighter_animcmd_expression_share_younglinkEN3phx6Hash40EPN3app12BattleObjectEPNS2_26BattleObjectModuleAccessorEP9lua_State
_ZN7lua2cpp51create_agent_fighter_animcmd_expression_share_ganonEN3phx6Hash40EPN3app12BattleObjectEPNS2_26BattleObjectModuleAccessorEP9lua_State
_ZN7lua2cpp52create_agent_fighter_animcmd_expression_share_mewtwoEN3phx6Hash40EPN3app12BattleObjectEPNS2_26BattleObjectModuleAccessorEP9lua_State
_ZN7lua2cpp49create_agent_fighter_animcmd_expression_share_royEN3phx6Hash40EPN3app12BattleObjectEPNS2_26BattleObjectModuleAccessorEP9lua_State
_ZN7lua2cpp51create_agent_fighter_animcmd_expression_share_chromEN3phx6Hash40EPN3app12BattleObjectEPNS2_26BattleObjectModuleAccessorEP9lua_State
_ZN7lua2cpp55create_agent_fighter_animcmd_expression_share_gamewatchEN3phx6Hash40EPN3app12BattleObjectEPNS2_26BattleObjectModuleAccessorEP9lua_State
_ZN7lua2cpp56create_agent_fighter_animcmd_expression_share_metaknightEN3phx6Hash40EPN3app12BattleObjectEPNS2_26BattleObjectModuleAccessorEP9lua_State
_ZN7lua2cpp49create_agent_fighter_animcmd_expression_share_pitEN3phx6Hash40EPN3app12BattleObjectEPNS2_26BattleObjectModuleAccessorEP9lua_State
_ZN7lua2cpp50create_agent_fighter_animcmd_expression_share_pitbEN3phx6Hash40EPN3app12BattleObjectEPNS2_26BattleObjectModuleAccessorEP9lua_State
_ZN7lua2cpp55create_agent_fighter_animcmd_expression_share_szerosuitEN3phx6Hash40EPN3app12BattleObjectEPNS2_26BattleObjectModuleAccessorEP9lua_State
_ZN7lua2cpp51create_agent_fighter_animcmd_expression_share_warioEN3phx6Hash40EPN3app12BattleObjectEPNS2_26BattleObjectModuleAccessorEP9lua_State
_ZN7lua2cpp51create_agent_fighter_animcmd_expression_share_snakeEN3phx6Hash40EPN3app12BattleObjectEPNS2_26BattleObjectModuleAccessorEP9lua_State
_ZN7lua2cpp49create_agent_fighter_animcmd_expression_share_ikeEN3phx6Hash40EPN3app12BattleObjectEPNS2_26BattleObjectModuleAccessorEP9lua_State
_ZN7lua2cpp55create_agent_fighter_animcmd_expression_share_pzenigameEN3phx6Hash40EPN3app12BattleObjectEPNS2_26BattleObjectModuleAccessorEP9lua_State
_ZN7lua2cpp57create_agent_fighter_animcmd_expression_share_pfushigisouEN3phx6Hash40EPN3app12BattleObjectEPNS2_26BattleObjectModuleAccessorEP9lua_State
_ZN7lua2cpp55create_agent_fighter_animcmd_expression_share_plizardonEN3phx6Hash40EPN3app12BattleObjectEPNS2_26BattleObjectModuleAccessorEP9lua_State
_ZN7lua2cpp51create_agent_fighter_animcmd_expression_share_diddyEN3phx6Hash40EPN3app12BattleObjectEPNS2_26BattleObjectModuleAccessorEP9lua_State
_ZN7lua2cpp51create_agent_fighter_animcmd_expression_share_lucasEN3phx6Hash40EPN3app12BattleObjectEPNS2_26BattleObjectModuleAccessorEP9lua_State
_ZN7lua2cpp51create_agent_fighter_animcmd_expression_share_sonicEN3phx6Hash40EPN3app12BattleObjectEPNS2_26BattleObjectModuleAccessorEP9lua_State
_ZN7lua2cpp52create_agent_fighter_animcmd_expression_share_dededeEN3phx6Hash40EPN3app12BattleObjectEPNS2_26BattleObjectModuleAccessorEP9lua_State
_ZN7lua2cpp52create_agent_fighter_animcmd_expression_share_pikminEN3phx6Hash40EPN3app12BattleObjectEPNS2_26BattleObjectModuleAccessorEP9lua_State
_ZN7lua2cpp53create_agent_fighter_animcmd_expression_share_lucarioEN3phx6Hash40EPN3app12BattleObjectEPNS2_26BattleObjectModuleAccessorEP9lua_State
_ZN7lua2cpp51create_agent_fighter_animcmd_expression_share_robotEN3phx6Hash40EPN3app12BattleObjectEPNS2_26BattleObjectModuleAccessorEP9lua_State
_ZN7lua2cpp54create_agent_fighter_animcmd_expression_share_toonlinkEN3phx6Hash40EPN3app12BattleObjectEPNS2_26BattleObjectModuleAccessorEP9lua_State
_ZN7lua2cpp50create_agent_fighter_animcmd_expression_share_wolfEN3phx6Hash40EPN3app12BattleObjectEPNS2_26BattleObjectModuleAccessorEP9lua_State
_ZN7lua2cpp54create_agent_fighter_animcmd_expression_share_murabitoEN3phx6Hash40EPN3app12BattleObjectEPNS2_26BattleObjectModuleAccessorEP9lua_State
_ZN7lua2cpp53create_agent_fighter_animcmd_expression_share_rockmanEN3phx6Hash40EPN3app12BattleObjectEPNS2_26BattleObjectModuleAccessorEP9lua_State
_ZN7lua2cpp52create_agent_fighter_animcmd_expression_share_wiifitEN3phx6Hash40EPN3app12BattleObjectEPNS2_26BattleObjectModuleAccessorEP9lua_State
_ZN7lua2cpp53create_agent_fighter_animcmd_expression_share_rosettaEN3phx6Hash40EPN3app12BattleObjectEPNS2_26BattleObjectModuleAccessorEP9lua_State
_ZN7lua2cpp55create_agent_fighter_animcmd_expression_share_littlemacEN3phx6Hash40EPN3app12BattleObjectEPNS2_26BattleObjectModuleAccessorEP9lua_State
_ZN7lua2cpp54create_agent_fighter_animcmd_expression_share_gekkougaEN3phx6Hash40EPN3app12BattleObjectEPNS2_26BattleObjectModuleAccessorEP9lua_State
_ZN7lua2cpp54create_agent_fighter_animcmd_expression_share_palutenaEN3phx6Hash40EPN3app12BattleObjectEPNS2_26BattleObjectModuleAccessorEP9lua_State
_ZN7lua2cpp52create_agent_fighter_animcmd_expression_share_pacmanEN3phx6Hash40EPN3app12BattleObjectEPNS2_26BattleObjectModuleAccessorEP9lua_State
_ZN7lua2cpp52create_agent_fighter_animcmd_expression_share_refletEN3phx6Hash40EPN3app12BattleObjectEPNS2_26BattleObjectModuleAccessorEP9lua_State
_ZN7lua2cpp51create_agent_fighter_animcmd_expression_share_shulkEN3phx6Hash40EPN3app12BattleObjectEPNS2_26BattleObjectModuleAccessorEP9lua_State
_ZN7lua2cpp53create_agent_fighter_animcmd_expression_share_koopajrEN3phx6Hash40EPN3app12BattleObjectEPNS2_26BattleObjectModuleAccessorEP9lua_State
_ZN7lua2cpp54create_agent_fighter_animcmd_expression_share_duckhuntEN3phx6Hash40EPN3app12BattleObjectEPNS2_26BattleObjectModuleAccessorEP9lua_State
_ZN7lua2cpp49create_agent_fighter_animcmd_expression_share_ryuEN3phx6Hash40EPN3app12BattleObjectEPNS2_26BattleObjectModuleAccessorEP9lua_State
_ZN7lua2cpp49create_agent_fighter_animcmd_expression_share_kenEN3phx6Hash40EPN3app12BattleObjectEPNS2_26BattleObjectModuleAccessorEP9lua_State
_ZN7lua2cpp51create_agent_fighter_animcmd_expression_share_cloudEN3phx6Hash40EPN3app12BattleObjectEPNS2_26BattleObjectModuleAccessorEP9lua_State
_ZN7lua2cpp51create_agent_fighter_animcmd_expression_share_kamuiEN3phx6Hash40EPN3app12BattleObjectEPNS2_26BattleObjectModuleAccessorEP9lua_State
_ZN7lua2cpp55create_agent_fighter_animcmd_expression_share_bayonettaEN3phx6Hash40EPN3app12BattleObjectEPNS2_26BattleObjectModuleAccessorEP9lua_State
_ZN7lua2cpp53create_agent_fighter_animcmd_expression_share_inklingEN3phx6Hash40EPN3app12BattleObjectEPNS2_26BattleObjectModuleAccessorEP9lua_State
_ZN7lua2cpp52create_agent_fighter_animcmd_expression_share_ridleyEN3phx6Hash40EPN3app12BattleObjectEPNS2_26BattleObjectModuleAccessorEP9lua_State
_ZN7lua2cpp51create_agent_fighter_animcmd_expression_share_simonEN3phx6Hash40EPN3app12BattleObjectEPNS2_26BattleObjectModuleAccessorEP9lua_State
_ZN7lua2cpp53create_agent_fighter_animcmd_expression_share_richterEN3phx6Hash40EPN3app12BattleObjectEPNS2_26BattleObjectModuleAccessorEP9lua_State
_ZN7lua2cpp51create_agent_fighter_animcmd_expression_share_kroolEN3phx6Hash40EPN3app12BattleObjectEPNS2_26BattleObjectModuleAccessorEP9lua_State
_ZN7lua2cpp52create_agent_fighter_animcmd_expression_share_shizueEN3phx6Hash40EPN3app12BattleObjectEPNS2_26BattleObjectModuleAccessorEP9lua_State
_ZN7lua2cpp53create_agent_fighter_animcmd_expression_share_gaogaenEN3phx6Hash40EPN3app12BattleObjectEPNS2_26BattleObjectModuleAccessorEP9lua_State
_ZN7lua2cpp56create_agent_fighter_animcmd_expression_share_miifighterEN3phx6Hash40EPN3app12BattleObjectEPNS2_26BattleObjectModuleAccessorEP9lua_State
_ZN7lua2cpp58create_agent_fighter_animcmd_expression_share_miiswordsmanEN3phx6Hash40EPN3app12BattleObjectEPNS2_26BattleObjectModuleAccessorEP9lua_State
_ZN7lua2cpp55create_agent_fighter_animcmd_expression_share_miigunnerEN3phx6Hash40EPN3app12BattleObjectEPNS2_26BattleObjectModuleAccessorEP9lua_State
_ZN7lua2cpp50create_agent_fighter_animcmd_expression_share_popoEN3phx6Hash40EPN3app12BattleObjectEPNS2_26BattleObjectModuleAccessorEP9lua_State
_ZN7lua2cpp50create_agent_fighter_animcmd_expression_share_nanaEN3phx6Hash40EPN3app12BattleObjectEPNS2_26BattleObjectModuleAccessorEP9lua_State
_ZN7lua2cpp52create_agent_fighter_animcmd_expression_share_koopagEN3phx6Hash40EPN3app12BattleObjectEPNS2_26BattleObjectModuleAccessorEP9lua_State
_ZN7lua2cpp55create_agent_fighter_animcmd_expression_share_miienemyfEN3phx6Hash40EPN3app12BattleObjectEPNS2_26BattleObjectModuleAccessorEP9lua_State
_ZN7lua2cpp55create_agent_fighter_animcmd_expression_share_miienemysEN3phx6Hash40EPN3app12BattleObjectEPNS2_26BattleObjectModuleAccessorEP9lua_State
_ZN7lua2cpp55create_agent_fighter_animcmd_expression_share_miienemygEN3phx6Hash40EPN3app12BattleObjectEPNS2_26BattleObjectModuleAccessorEP9lua_State
_ZN7lua2cpp46create_agent_fighter_animcmd_sound_share_marioEN3phx6Hash40EPN3app12BattleObjectEPNS2_26BattleObjectModuleAccessorEP9lua_State
_ZN7lua2cpp47create_agent_fighter_animcmd_sound_share_donkeyEN3phx6Hash40EPN3app12BattleObjectEPNS2_26BattleObjectModuleAccessorEP9lua_State
_ZN7lua2cpp45create_agent_fighter_animcmd_sound_share_linkEN3phx6Hash40EPN3app12BattleObjectEPNS2_26BattleObjectModuleAccessorEP9lua_State
_ZN7lua2cpp46create_agent_fighter_animcmd_sound_share_samusEN3phx6Hash40EPN3app12BattleObjectEPNS2_26BattleObjectModuleAccessorEP9lua_State
_ZN7lua2cpp47create_agent_fighter_animcmd_sound_share_samusdEN3phx6Hash40EPN3app12BattleObjectEPNS2_26BattleObjectModuleAccessorEP9lua_State
_ZN7lua2cpp46create_agent_fighter_animcmd_sound_share_yoshiEN3phx6Hash40EPN3app12BattleObjectEPNS2_26BattleObjectModuleAccessorEP9lua_State
_ZN7lua2cpp46create_agent_fighter_animcmd_sound_share_kirbyEN3phx6Hash40EPN3app12BattleObjectEPNS2_26BattleObjectModuleAccessorEP9lua_State
_ZN7lua2cpp44create_agent_fighter_animcmd_sound_share_foxEN3phx6Hash40EPN3app12BattleObjectEPNS2_26BattleObjectModuleAccessorEP9lua_State
_ZN7lua2cpp48create_agent_fighter_animcmd_sound_share_pikachuEN3phx6Hash40EPN3app12BattleObjectEPNS2_26BattleObjectModuleAccessorEP9lua_State
_ZN7lua2cpp46create_agent_fighter_animcmd_sound_share_luigiEN3phx6Hash40EPN3app12BattleObjectEPNS2_26BattleObjectModuleAccessorEP9lua_State
_ZN7lua2cpp45create_agent_fighter_animcmd_sound_share_nessEN3phx6Hash40EPN3app12BattleObjectEPNS2_26BattleObjectModuleAccessorEP9lua_State
_ZN7lua2cpp48create_agent_fighter_animcmd_sound_share_captainEN3phx6Hash40EPN3app12BattleObjectEPNS2_26BattleObjectModuleAccessorEP9lua_State
_ZN7lua2cpp46create_agent_fighter_animcmd_sound_share_purinEN3phx6Hash40EPN3app12BattleObjectEPNS2_26BattleObjectModuleAccessorEP9lua_State
_ZN7lua2cpp46create_agent_fighter_animcmd_sound_share_peachEN3phx6Hash40EPN3app12BattleObjectEPNS2_26BattleObjectModuleAccessorEP9lua_State
_ZN7lua2cpp46create_agent_fighter_animcmd_sound_share_daisyEN3phx6Hash40EPN3app12BattleObjectEPNS2_26BattleObjectModuleAccessorEP9lua_State
_ZN7lua2cpp46create_agent_fighter_animcmd_sound_share_koopaEN3phx6Hash40EPN3app12BattleObjectEPNS2_26BattleObjectModuleAccessorEP9lua_State
_ZN7lua2cpp46create_agent_fighter_animcmd_sound_share_sheikEN3phx6Hash40EPN3app12BattleObjectEPNS2_26BattleObjectModuleAccessorEP9lua_State
_ZN7lua2cpp46create_agent_fighter_animcmd_sound_share_zeldaEN3phx6Hash40EPN3app12BattleObjectEPNS2_26BattleObjectModuleAccessorEP9lua_State
_ZN7lua2cpp47create_agent_fighter_animcmd_sound_share_mariodEN3phx6Hash40EPN3app12BattleObjectEPNS2_26BattleObjectModuleAccessorEP9lua_State
_ZN7lua2cpp46create_agent_fighter_animcmd_sound_share_pichuEN3phx6Hash40EPN3app12BattleObjectEPNS2_26BattleObjectModuleAccessorEP9lua_State
_ZN7lua2cpp46create_agent_fighter_animcmd_sound_share_falcoEN3phx6Hash40EPN3app12BattleObjectEPNS2_26BattleObjectModuleAccessorEP9lua_State
_ZN7lua2cpp46create_agent_fighter_animcmd_sound_share_marthEN3phx6Hash40EPN3app12BattleObjectEPNS2_26BattleObjectModuleAccessorEP9lua_State
_ZN7lua2cpp47create_agent_fighter_animcmd_sound_share_lucinaEN3phx6Hash40EPN3app12BattleObjectEPNS2_26BattleObjectModuleAccessorEP9lua_State
_ZN7lua2cpp50create_agent_fighter_animcmd_sound_share_younglinkEN3phx6Hash40EPN3app12BattleObjectEPNS2_26BattleObjectModuleAccessorEP9lua_State
_ZN7lua2cpp46create_agent_fighter_animcmd_sound_share_ganonEN3phx6Hash40EPN3app12BattleObjectEPNS2_26BattleObjectModuleAccessorEP9lua_State
_ZN7lua2cpp47create_agent_fighter_animcmd_sound_share_mewtwoEN3phx6Hash40EPN3app12BattleObjectEPNS2_26BattleObjectModuleAccessorEP9lua_State
_ZN7lua2cpp44create_agent_fighter_animcmd_sound_share_royEN3phx6Hash40EPN3app12BattleObjectEPNS2_26BattleObjectModuleAccessorEP9lua_State
_ZN7lua2cpp46create_agent_fighter_animcmd_sound_share_chromEN3phx6Hash40EPN3app12BattleObjectEPNS2_26BattleObjectModuleAccessorEP9lua_State
_ZN7lua2cpp50create_agent_fighter_animcmd_sound_share_gamewatchEN3phx6Hash40EPN3app12BattleObjectEPNS2_26BattleObjectModuleAccessorEP9lua_State
_ZN7lua2cpp51create_agent_fighter_animcmd_sound_share_metaknightEN3phx6Hash40EPN3app12BattleObjectEPNS2_26BattleObjectModuleAccessorEP9lua_State
_ZN7lua2cpp44create_agent_fighter_animcmd_sound_share_pitEN3phx6Hash40EPN3app12BattleObjectEPNS2_26BattleObjectModuleAccessorEP9lua_State
_ZN7lua2cpp45create_agent_fighter_animcmd_sound_share_pitbEN3phx6Hash40EPN3app12BattleObjectEPNS2_26BattleObjectModuleAccessorEP9lua_State
_ZN7lua2cpp50create_agent_fighter_animcmd_sound_share_szerosuitEN3phx6Hash40EPN3app12BattleObjectEPNS2_26BattleObjectModuleAccessorEP9lua_State
_ZN7lua2cpp46create_agent_fighter_animcmd_sound_share_warioEN3phx6Hash40EPN3app12BattleObjectEPNS2_26BattleObjectModuleAccessorEP9lua_State
_ZN7lua2cpp46create_agent_fighter_animcmd_sound_share_snakeEN3phx6Hash40EPN3app12BattleObjectEPNS2_26BattleObjectModuleAccessorEP9lua_State
_ZN7lua2cpp44create_agent_fighter_animcmd_sound_share_ikeEN3phx6Hash40EPN3app12BattleObjectEPNS2_26BattleObjectModuleAccessorEP9lua_State
_ZN7lua2cpp50create_agent_fighter_animcmd_sound_share_pzenigameEN3phx6Hash40EPN3app12BattleObjectEPNS2_26BattleObjectModuleAccessorEP9lua_State
_ZN7lua2cpp52create_agent_fighter_animcmd_sound_share_pfushigisouEN3phx6Hash40EPN3app12BattleObjectEPNS2_26BattleObjectModuleAccessorEP9lua_State
_ZN7lua2cpp50create_agent_fighter_animcmd_sound_share_plizardonEN3phx6Hash40EPN3app12BattleObjectEPNS2_26BattleObjectModuleAccessorEP9lua_State
_ZN7lua2cpp46create_agent_fighter_animcmd_sound_share_diddyEN3phx6Hash40EPN3app12BattleObjectEPNS2_26BattleObjectModuleAccessorEP9lua_State
_ZN7lua2cpp46create_agent_fighter_animcmd_sound_share_lucasEN3phx6Hash40EPN3app12BattleObjectEPNS2_26BattleObjectModuleAccessorEP9lua_State
_ZN7lua2cpp46create_agent_fighter_animcmd_sound_share_sonicEN3phx6Hash40EPN3app12BattleObjectEPNS2_26BattleObjectModuleAccessorEP9lua_State
_ZN7lua2cpp47create_agent_fighter_animcmd_sound_share_dededeEN3phx6Hash40EPN3app12BattleObjectEPNS2_26BattleObjectModuleAccessorEP9lua_State
_ZN7lua2cpp47create_agent_fighter_animcmd_sound_share_pikminEN3phx6Hash40EPN3app12BattleObjectEPNS2_26BattleObjectModuleAccessorEP9lua_State
_ZN7lua2cpp48create_agent_fighter_animcmd_sound_share_lucarioEN3phx6Hash40EPN3app12BattleObjectEPNS2_26BattleObjectModuleAccessorEP9lua_State
_ZN7lua2cpp46create_agent_fighter_animcmd_sound_share_robotEN3phx6Hash40EPN3app12BattleObjectEPNS2_26BattleObjectModuleAccessorEP9lua_State
_ZN7lua2cpp49create_agent_fighter_animcmd_sound_share_toonlinkEN3phx6Hash40EPN3app12BattleObjectEPNS2_26BattleObjectModuleAccessorEP9lua_State
_ZN7lua2cpp45create_agent_fighter_animcmd_sound_share_wolfEN3phx6Hash40EPN3app12BattleObjectEPNS2_26BattleObjectModuleAccessorEP9lua_State
_ZN7lua2cpp49create_agent_fighter_animcmd_sound_share_murabitoEN3phx6Hash40EPN3app12BattleObjectEPNS2_26BattleObjectModuleAccessorEP9lua_State
_ZN7lua2cpp48create_agent_fighter_animcmd_sound_share_rockmanEN3phx6Hash40EPN3app12BattleObjectEPNS2_26BattleObjectModuleAccessorEP9lua_State
_ZN7lua2cpp47create_agent_fighter_animcmd_sound_share_wiifitEN3phx6Hash40EPN3app12BattleObjectEPNS2_26BattleObjectModuleAccessorEP9lua_State
_ZN7lua2cpp48create_agent_fighter_animcmd_sound_share_rosettaEN3phx6Hash40EPN3app12BattleObjectEPNS2_26BattleObjectModuleAccessorEP9lua_State
_ZN7lua2cpp50create_agent_fighter_animcmd_sound_share_littlemacEN3phx6Hash40EPN3app12BattleObjectEPNS2_26BattleObjectModuleAccessorEP9lua_State
_ZN7lua2cpp49create_agent_fighter_animcmd_sound_share_gekkougaEN3phx6Hash40EPN3app12BattleObjectEPNS2_26BattleObjectModuleAccessorEP9lua_State
_ZN7lua2cpp49create_agent_fighter_animcmd_sound_share_palutenaEN3phx6Hash40EPN3app12BattleObjectEPNS2_26BattleObjectModuleAccessorEP9lua_State
_ZN7lua2cpp47create_agent_fighter_animcmd_sound_share_pacmanEN3phx6Hash40EPN3app12BattleObjectEPNS2_26BattleObjectModuleAccessorEP9lua_State
_ZN7lua2cpp47create_agent_fighter_animcmd_sound_share_refletEN3phx6Hash40EPN3app12BattleObjectEPNS2_26BattleObjectModuleAccessorEP9lua_State
_ZN7lua2cpp46create_agent_fighter_animcmd_sound_share_shulkEN3phx6Hash40EPN3app12BattleObjectEPNS2_26BattleObjectModuleAccessorEP9lua_State
_ZN7lua2cpp48create_agent_fighter_animcmd_sound_share_koopajrEN3phx6Hash40EPN3app12BattleObjectEPNS2_26BattleObjectModuleAccessorEP9lua_State
_ZN7lua2cpp49create_agent_fighter_animcmd_sound_share_duckhuntEN3phx6Hash40EPN3app12BattleObjectEPNS2_26BattleObjectModuleAccessorEP9lua_State
_ZN7lua2cpp44create_agent_fighter_animcmd_sound_share_ryuEN3phx6Hash40EPN3app12BattleObjectEPNS2_26BattleObjectModuleAccessorEP9lua_State
_ZN7lua2cpp44create_agent_fighter_animcmd_sound_share_kenEN3phx6Hash40EPN3app12BattleObjectEPNS2_26BattleObjectModuleAccessorEP9lua_State
_ZN7lua2cpp46create_agent_fighter_animcmd_sound_share_cloudEN3phx6Hash40EPN3app12BattleObjectEPNS2_26BattleObjectModuleAccessorEP9lua_State
_ZN7lua2cpp46create_agent_fighter_animcmd_sound_share_kamuiEN3phx6Hash40EPN3app12BattleObjectEPNS2_26BattleObjectModuleAccessorEP9lua_State
_ZN7lua2cpp50create_agent_fighter_animcmd_sound_share_bayonettaEN3phx6Hash40EPN3app12BattleObjectEPNS2_26BattleObjectModuleAccessorEP9lua_State
_ZN7lua2cpp48create_agent_fighter_animcmd_sound_share_inklingEN3phx6Hash40EPN3app12BattleObjectEPNS2_26BattleObjectModuleAccessorEP9lua_State
_ZN7lua2cpp47create_agent_fighter_animcmd_sound_share_ridleyEN3phx6Hash40EPN3app12BattleObjectEPNS2_26BattleObjectModuleAccessorEP9lua_State
_ZN7lua2cpp46create_agent_fighter_animcmd_sound_share_simonEN3phx6Hash40EPN3app12BattleObjectEPNS2_26BattleObjectModuleAccessorEP9lua_State
_ZN7lua2cpp48create_agent_fighter_animcmd_sound_share_richterEN3phx6Hash40EPN3app12BattleObjectEPNS2_26BattleObjectModuleAccessorEP9lua_State
_ZN7lua2cpp46create_agent_fighter_animcmd_sound_share_kroolEN3phx6Hash40EPN3app12BattleObjectEPNS2_26BattleObjectModuleAccessorEP9lua_State
_ZN7lua2cpp47create_agent_fighter_animcmd_sound_share_shizueEN3phx6Hash40EPN3app12BattleObjectEPNS2_26BattleObjectModuleAccessorEP9lua_State
_ZN7lua2cpp48create_agent_fighter_animcmd_sound_share_gaogaenEN3phx6Hash40EPN3app12BattleObjectEPNS2_26BattleObjectModuleAccessorEP9lua_State
_ZN7lua2cpp51create_agent_fighter_animcmd_sound_share_miifighterEN3phx6Hash40EPN3app12BattleObjectEPNS2_26BattleObjectModuleAccessorEP9lua_State
_ZN7lua2cpp53create_agent_fighter_animcmd_sound_share_miiswordsmanEN3phx6Hash40EPN3app12BattleObjectEPNS2_26BattleObjectModuleAccessorEP9lua_State
_ZN7lua2cpp50create_agent_fighter_animcmd_sound_share_miigunnerEN3phx6Hash40EPN3app12BattleObjectEPNS2_26BattleObjectModuleAccessorEP9lua_State
_ZN7lua2cpp45create_agent_fighter_animcmd_sound_share_popoEN3phx6Hash40EPN3app12BattleObjectEPNS2_26BattleObjectModuleAccessorEP9lua_State
_ZN7lua2cpp45create_agent_fighter_animcmd_sound_share_nanaEN3phx6Hash40EPN3app12BattleObjectEPNS2_26BattleObjectModuleAccessorEP9lua_State
_ZN7lua2cpp47create_agent_fighter_animcmd_sound_share_koopagEN3phx6Hash40EPN3app12BattleObjectEPNS2_26BattleObjectModuleAccessorEP9lua_State
_ZN7lua2cpp50create_agent_fighter_animcmd_sound_share_miienemyfEN3phx6Hash40EPN3app12BattleObjectEPNS2_26BattleObjectModuleAccessorEP9lua_State
_ZN7lua2cpp50create_agent_fighter_animcmd_sound_share_miienemysEN3phx6Hash40EPN3app12BattleObjectEPNS2_26BattleObjectModuleAccessorEP9lua_State
_ZN7lua2cpp50create_agent_fighter_animcmd_sound_share_miienemygEN3phx6Hash40EPN3app12BattleObjectEPNS2_26BattleObjectModuleAccessorEP9lua_State
_ZNK3app11ItemManager34is_change_fighter_restart_positionEv
_ZN3app12FighterEntry4healEfbiN3phx6Hash40E
_ZN3app12FighterEntry8eat_itemERNS_18LinkEventTouchItemEb
_ZN3app26FighterSpiritsSupportSkill8instanceERNS_26BattleObjectModuleAccessorE
_ZNK3app18FighterInformation11get_log_intEiii
_ZN3app11FighterUtil14init_big_smallERNS_26BattleObjectModuleAccessorE
_ZN3app14FighterManager16set_cursor_wholeEb
_ZNK3app14FighterManager28get_beat_point_diff_from_topENS_14FighterEntryIDE
_ZN3app14FighterManager13start_finalbgEif
_ZN3app14FighterManager12exit_finalbgEv
_ZNK3app14FighterManager29is_available_discretion_finalEv
_ZNK3app14FighterManager8is_finalEv
_ZN3app14FighterManager16enable_ko_cameraEv
_ZN3app14FighterManager17disable_ko_cameraEv
_ZN3app14FighterManager36set_dead_up_camera_hit_cursor_statusEb
_ZN3app14FighterManager21is_rebirth_plate_lineENS_14FighterEntryIDE
_ZN3app11FighterUtil20set_damage_fly_angleERNS_26BattleObjectModuleAccessorEfffNS_23MotionNodeRotateComposeE
_ZN3app11FighterUtil16is_hammer_statusEi
_ZN3app11FighterUtil16is_hammer_motionEN3phx6Hash40E
_ZN3app11FighterUtil25get_air_ground_touch_infoERNS_26BattleObjectModuleAccessorERN3phx8Vector2fES5_
_ZN3app11FighterUtil23set_cloud_through_checkERNS_26BattleObjectModuleAccessorE
_ZN3app11FighterUtil23check_cloud_through_outERNS_26BattleObjectModuleAccessorE
_ZN3app11FighterUtil14set_ice_effectERNS_26BattleObjectModuleAccessorEi
_ZN3app11FighterUtil19set_ice_exit_effectERNS_26BattleObjectModuleAccessorE
_ZN3app11FighterUtil21set_water_dive_effectERNS_26BattleObjectModuleAccessorERKN3phx8Vector3fE
_ZN3app11FighterUtil22calc_water_surface_posERNS_26BattleObjectModuleAccessorERNS_15stWaterAreaInfoERN3phx8Vector2fE
_ZN3app11FighterUtil19get_water_area_infoERNS_26BattleObjectModuleAccessorERNS_15stWaterAreaInfoE
_ZN3app11FighterUtil19adjust_butterflynetERNS_26BattleObjectModuleAccessorE
_ZN3app11FighterUtil16end_butterflynetERNS_26BattleObjectModuleAccessorE
_ZN3app11FighterUtil19adjust_bitten_warioERNS_26BattleObjectModuleAccessorE
_ZN3app11FighterUtil14get_bezier_posERKN3phx8Vector3fES4_fffRS2_
_ZN3app11FighterUtil12set_hit_dataERNS_26BattleObjectModuleAccessorEiiRKN3phx8Vector3fES6_fNS3_6Hash40ENS_13CollisionPartENS_9HitHeightENS_9HitStatusENS_18CollisionShapeTypeE
_ZN3app11FighterUtil14reset_hit_dataERNS_26BattleObjectModuleAccessorE
_ZN3app11FighterUtil9get_handiENS_14FighterEntryIDE
_ZN3app11FighterUtil33clung_thrown_diddy_unlink_captureERNS_26BattleObjectModuleAccessorE
_ZN3app11FighterUtil12cheer_damageERNS_26BattleObjectModuleAccessorE
_ZN3app11FighterUtil23set_restart_up_positionERNS_26BattleObjectModuleAccessorE
_ZN3app11FighterUtil16check_attack_hi4ERNS_26BattleObjectModuleAccessorE
_ZN3app11FighterUtil36set_parent_external_stat_bank_handleERNS_26BattleObjectModuleAccessorE
_ZN3app11FighterUtil18yoshi_egg_time_mulERNS_26BattleObjectModuleAccessorE
_ZN3app11FighterUtil10is_hp_modeERNS_26BattleObjectModuleAccessorE
_ZN3app11FighterUtil21check_damage_speed_upERNS_26BattleObjectModuleAccessorEf
_ZN3app11FighterUtil18search_inside_rectERNS_26BattleObjectModuleAccessorEiPKN3lib4RectE
_ZN3app11FighterUtil13get_cliff_posERNS_26BattleObjectModuleAccessorE
_ZN3app11FighterUtil15get_cliff_transERNS_26BattleObjectModuleAccessorE
_ZN3app11FighterUtil14exec_free_moveERNS_26BattleObjectModuleAccessorE
_ZN3app11FighterUtil10is_scalingERNS_26BattleObjectModuleAccessorE
_ZN3app11FighterUtil17is_valid_entry_idERNS_26BattleObjectModuleAccessorE
_ZN3app11FighterUtil24get_opponent_fighter_numERNS_26BattleObjectModuleAccessorEb
_ZN3app11FighterUtil20is_valid_just_shieldERNS_26BattleObjectModuleAccessorE
_ZN3app11FighterUtil18get_just_shield_seEi
_ZN3app11FighterUtil30is_valid_just_shield_reflectorERNS_26BattleObjectModuleAccessorE
_ZN3app11FighterUtil24renderer_get_clear_colorEv
_ZN3app11FighterUtil24renderer_set_clear_colorEN3phx8Vector4fE
_ZN3app11FighterUtil23renderer_get_color_rateEv
_ZN3app11FighterUtil16start_catch_stopERNS_26BattleObjectModuleAccessorEif
_ZN3app11FighterUtil13get_ice_frameERNS_26BattleObjectModuleAccessorEfi
_ZN3app11FighterUtil33request_critical_hit_cut_in_forceERNS_26BattleObjectModuleAccessorEjRKN3phx8Vector2fEiNS3_6Hash40Eibib
_ZN3app11FighterUtil23is_touch_passive_groundERNS_26BattleObjectModuleAccessorEj
_ZN3app11FighterUtil25set_stage_pause_for_finalEbRNS_26BattleObjectModuleAccessorE
_ZN3app11FighterUtil15is_photo_cameraEv
_ZN3app11FighterUtil21check_melee_rule_timeEfNS_25FighterCheckMeleeRuleTimeEb
_ZN3app11FighterUtil14start_zoom_outEN3phx8Vector3fES2_i
_ZN3app11FighterUtil20get_bury_effect_dataEiN3phx6Hash40Eff
_ZN3app11FighterUtil16is_meteor_vectorEi
_ZN3app11FighterUtil27get_cliff_catch_motion_rateERNS_26BattleObjectModuleAccessorE
_ZN3app11FighterUtil19get_cliff_xlu_frameERNS_26BattleObjectModuleAccessorEN3phx6Hash40E
_ZN3app11FighterUtil24is_avaiable_smash_appealERNS_26BattleObjectModuleAccessorE
_ZN3app11FighterUtil22is_smash_appeal_timingERNS_26BattleObjectModuleAccessorE
_ZN3app11FighterUtil23check_final_dash_groundERNS_26BattleObjectModuleAccessorE
_ZN3app11FighterUtil21check_hit_dead_effectERNS_26BattleObjectModuleAccessorE
_ZN3app11FighterUtil31calc_add_damage_power_for_finalEjjf
_ZN3lib9SingletonIN3app27FighterBayonettaFinalModuleEE9instance_E
_ZN3app19FighterCutInManager8add_taskEj
_ZN3app19FighterCutInManager23set_throw_finish_offsetEN3phx8Vector3fE
_ZN3app19FighterCutInManager26set_throw_finish_zoom_rateEf
_ZNK3app24FighterControlModuleImpl23get_param_dash_s4_frameEv
_ZN3app24FighterControlModuleImpl22update_attack_air_kindEb
_ZNK3app24FighterControlModuleImpl28get_param_attack_hi4_flick_yEv
_ZNK3app24FighterControlModuleImpl28get_param_attack_lw4_flick_yEv
_ZN3app24FighterControlModuleImpl28check_hit_stop_delay_commandERN3phx8Vector2fE
_ZNK3app24FighterControlModuleImpl24is_enable_hit_stop_delayEv
_ZN3app21FighterItemModuleImpl30get_fighter_throw_param_memberEN3phx6Hash40ES2_
_ZN3app30FighterKineticEnergyController15mul_x_speed_maxEf
_ZN3app23FighterMotionModuleImpl31motion_kind_kirby_copy_originalEN3phx6Hash40E
_ZN3app23FighterMotionModuleImpl24change_motion_kirby_copyEN3phx6Hash40Effbfbb
_ZN3app23FighterMotionModuleImpl38change_motion_inherit_frame_kirby_copyEN3phx6Hash40Efffbb
_ZN3app23FighterMotionModuleImpl30end_frame_from_hash_kirby_copyEN3phx6Hash40E
_ZN3app23FighterMotionModuleImpl34set_frame_sync_anim_cmd_kirby_copyEfb
_ZN3app23FighterMotionModuleImpl31start_damage_stop_interpolationEf
_ZN3app23FighterMotionModuleImpl35set_pause_motion_interpolation_stopEv
_ZN3app23FighterStatusModuleImpl23set_fighter_status_dataEbibbbmjjj
_ZN3app23FighterStatusModuleImpl21reset_log_action_infoEm
_ZN3app21FighterWorkModuleImpl27calc_escape_air_slide_paramEf
_ZNK3app21FighterParamAccessor213thrown_offsetEiii
_ZNK3app21FighterParamAccessor220donkey_thrown_offsetEii
_ZNK3app21FighterParamAccessor221ridley_dragged_offsetEii
_ZNK3app21FighterParamAccessor224miifighter_suplex_offsetEi
_ZNK3app21FighterParamAccessor220gaogaen_final_offsetEii
_ZNK3app21FighterParamAccessor213hit_target_noEii
_ZN3app27FighterBayonettaFinalModule10final_initERNS_26BattleObjectModuleAccessorE
_ZN3app27FighterBayonettaFinalModule10final_execERNS_26BattleObjectModuleAccessorE
_ZN3app27FighterBayonettaFinalModule10final_exitERNS_26BattleObjectModuleAccessorE
_ZN3app27FighterBayonettaFinalModule16final_start_initERNS_26BattleObjectModuleAccessorE
_ZN3app27FighterBayonettaFinalModule16final_start_execERNS_26BattleObjectModuleAccessorE
_ZN3app27FighterBayonettaFinalModule16final_start_exitERNS_26BattleObjectModuleAccessorE
_ZN3app27FighterBayonettaFinalModule21restart_other_fighterERNS_26BattleObjectModuleAccessorE
_ZN3app27FighterBayonettaFinalModule18final_scene01_initERNS_26BattleObjectModuleAccessorE
_ZN3app27FighterBayonettaFinalModule18final_scene01_execERNS_26BattleObjectModuleAccessorE
_ZN3app27FighterBayonettaFinalModule18final_scene01_exitERNS_26BattleObjectModuleAccessorE
_ZN3app27FighterBayonettaFinalModule14final_end_initERNS_26BattleObjectModuleAccessorE
_ZN3app27FighterBayonettaFinalModule14final_end_execERNS_26BattleObjectModuleAccessorE
_ZN3app27FighterBayonettaFinalModule14final_end_exitERNS_26BattleObjectModuleAccessorE
_ZN2nn4util8Vector4f11ConstantOneE
_ZNSt3__112basic_stringIcNS_11char_traitsIcEENS_9allocatorIcEEEaSERKS5_
_ZNSt3__112basic_stringIcNS_11char_traitsIcEENS_9allocatorIcEEE6assignEPKc
_ZN3app24FighterSpecializer_Cloud20display_final_windowEb
_ZTVN3app14LinkEventFinalE
_ZN3app25FighterSpecializer_Dedede29end_special_n_shot_object_hitERNS_7FighterE
_ZNK3app4Item10is_eatableEj
_ZTVN3app18LinkEventTouchItemE
_ZTVN3app17LinkEventStarShotE
_ZN3app24FighterSpecializer_Diddy23final_decide_target_dirERNS_26BattleObjectModuleAccessorEb
_ZN3app24FighterSpecializer_Diddy23final_finish_attack_dirERNS_21FighterModuleAccessorE
_ZN3app25FighterSpecializer_Donkey16apply_lift_paramERNS_21FighterModuleAccessorEb
_ZN3app24FighterSpecializer_Falco26final_remove_screen_effectEv
_ZN3app24FighterSpecializer_Falco16final_start_initERNS_7FighterE
_ZN3app24FighterSpecializer_Falco16final_start_exitERNS_7FighterE
_ZN3app24FighterSpecializer_Falco16final_ready_initERNS_7FighterE
_ZN3app24FighterSpecializer_Falco16final_ready_execERNS_7FighterE
_ZN3app24FighterSpecializer_Falco20final_ready_exit_preERNS_7FighterE
_ZN3app24FighterSpecializer_Falco16final_ready_exitERNS_7FighterE
_ZN3app24FighterSpecializer_Falco18final_scene01_initERNS_7FighterE
_ZN3app24FighterSpecializer_Falco26final_scene01_exec_fix_posERNS_7FighterE
_ZN3app24FighterSpecializer_Falco18final_scene01_exitERNS_7FighterE
_ZN3app24FighterSpecializer_Falco14final_end_initERNS_7FighterE
_ZN3app24FighterSpecializer_Falco14final_end_execERNS_7FighterE
_ZN3app24FighterSpecializer_Falco14final_end_exitERNS_7FighterE
snprintf
_ZN3app22FighterSpecializer_Fox26final_remove_screen_effectEv
_ZN3app22FighterSpecializer_Fox16final_start_initERNS_7FighterE
_ZN3app22FighterSpecializer_Fox16final_start_exitERNS_7FighterE
_ZN3app22FighterSpecializer_Fox16final_ready_initERNS_7FighterE
_ZN3app22FighterSpecializer_Fox16final_ready_execERNS_7FighterE
_ZN3app22FighterSpecializer_Fox20final_ready_exit_preERNS_7FighterE
_ZN3app22FighterSpecializer_Fox16final_ready_exitERNS_7FighterE
_ZN3app22FighterSpecializer_Fox18final_scene01_initERNS_7FighterE
_ZN3app22FighterSpecializer_Fox26final_scene01_exec_fix_posERNS_7FighterE
_ZN3app22FighterSpecializer_Fox18final_scene01_exitERNS_7FighterE
_ZN3app22FighterSpecializer_Fox14final_end_initERNS_7FighterE
_ZN3app22FighterSpecializer_Fox14final_end_execERNS_7FighterE
_ZN3app22FighterSpecializer_Fox14final_end_exitERNS_7FighterE
_ZN3app28FighterSpecializer_GameWatch10init_panelERNS_26BattleObjectModuleAccessorE
_ZN3app26FighterSpecializer_Gaogaen13generate_ropeERNS_21FighterModuleAccessorE
_ZN3app27FighterSpecializer_Gekkouga42set_special_s_transition_term_forbid_groupERNS_21FighterModuleAccessorEb
sqrt
_ZN3app27FighterSpecializer_Gekkouga24set_effect_visible_groupEb
_ZN3app22FighterSpecializer_Ike30get_final_target_pos_base_workERNS_21FighterModuleAccessorE
_ZN3app22FighterSpecializer_Ike25get_final_target_pos_baseERNS_21FighterModuleAccessorE
_ZN3app26FighterSpecializer_Inkling15get_ink_work_idEj
_ZN3app26FighterSpecializer_Inkling22is_paintable_rollerinkERNS_7FighterE
_ZN3app26FighterSpecializer_Inkling23get_roller_check_velo_yERNS_7FighterE
_ZN3app26FighterSpecializer_Inkling11get_ink_maxERNS_7FighterE
_ZN3app26FighterSpecializer_Inkling22get_sub_ink_special_lwERNS_7FighterE
_ZN3app26FighterSpecializer_Inkling21get_sub_ink_special_nERNS_7FighterE
_ZN3app26FighterSpecializer_Inkling19check_roller_groundERNS_7FighterERKN3phx8Vector2fES6_RS4_S7_b
_ZN3app26FighterSpecializer_Inkling18generate_rollerinkERNS_7FighterE
_ZN3app26FighterSpecializer_Inkling10change_inkERNS_7FighterEf
_ZN3app26FighterSpecializer_Inkling8lack_inkERNS_7FighterE
_ZN3app26FighterSpecializer_Inkling13request_paintERNS_7FighterEN3phx6Hash40ERNS3_8Vector3fERNS3_8Vector2fEf
_ZN3app24FighterSpecializer_Kirby10drink_itemERNS_7FighterE
_ZN3app24FighterSpecializer_Kirby10copy_setupERNS_21FighterModuleAccessorEiNS_11FighterKindEbb
_ZN3app24FighterSpecializer_Kirby13get_copy_kindERKNS_21FighterModuleAccessorE
_ZN3app24FighterSpecializer_Kirby16get_copy_slot_noERKNS_21FighterModuleAccessorE
_ZN3app24FighterSpecializer_Kirby13inhale_objectERNS_7FighterE
_ZN3app24FighterSpecializer_Kirby28purin_remove_effect_flushingERNS_26BattleObjectModuleAccessorE
_ZN3app24FighterSpecializer_Purin32special_n_remove_effect_flushingERNS_26BattleObjectModuleAccessorE
_ZN3app24FighterSpecializer_Kirby15purin_set_powerERNS_26BattleObjectModuleAccessorE
_ZN3app24FighterSpecializer_Purin19special_n_set_powerERNS_26BattleObjectModuleAccessorE
_ZN3app24FighterSpecializer_Kirby28purin_clear_copy_attack_dataERNS_26BattleObjectModuleAccessorE
_ZN3app24FighterSpecializer_Purin32special_n_clear_copy_attack_dataERNS_26BattleObjectModuleAccessorE
_ZN3app24FighterSpecializer_Kirby27purin_req_effect_dash_smokeERNS_26BattleObjectModuleAccessorE
_ZN3app24FighterSpecializer_Purin31special_n_req_effect_dash_smokeERNS_26BattleObjectModuleAccessorE
_ZN3app23FighterSpecializer_Link14check_dash_endERNS_21FighterModuleAccessorE
_ZN3app23FighterSpecializer_Link29set_item_hold_anim_for_scriptERNS_7FighterE
_ZN3app26FighterSpecializer_Lucario20req_aura_effect_bothERNS_7FighterE
_ZN3app26FighterSpecializer_Lucario17set_mach_validityERNS_26BattleObjectModuleAccessorEb
_ZN3app26FighterSpecializer_Lucario15req_aura_effectERNS_7FighterEN3phx6Hash40ES4_fffffffb
_ZN3app26FighterSpecializer_Lucario14effect_suspendERNS_26BattleObjectModuleAccessorE
_ZN3app26FighterSpecializer_Lucario13effect_resumeERNS_26BattleObjectModuleAccessorE
_ZN3app33WeaponSpecializer_LucarioAuraball15get_charge_rateERKNS_26BattleObjectModuleAccessorE
_ZN3app26FighterSpecializer_Lucario21save_aura_ball_statusERNS_26BattleObjectModuleAccessorEbi
_ZN3app24FighterSpecializer_Luigi14delete_plungerERNS_7FighterEb
_ZN3app29FighterSpecializer_Metaknight27set_special_n_ground_effectERNS_7FighterE
_ZN3app29FighterSpecializer_Metaknight21check_edge_special_lwERNS_21FighterModuleAccessorE
_ZN3app29FighterSpecializer_Metaknight25get_final_target_pos_baseERNS_21FighterModuleAccessorE
_ZN3app25FighterSpecializer_Mewtwo22save_shadowball_statusERNS_21FighterModuleAccessorEbi
_ZN3app34WeaponSpecializer_MewtwoShadowball16get_charge_frameERKNS_26BattleObjectModuleAccessorE
_ZN3app34WeaponSpecializer_MewtwoShadowball15get_charge_rateERKNS_26BattleObjectModuleAccessorE
_ZN3app27FighterSpecializer_Murabito22check_special_lw_plantERNS_21FighterModuleAccessorEN3phx8Vector2fEf
_ZN3app4Item18send_touch_messageEjRKN3phx8Vector3fEf
_ZN3app25FighterSpecializer_Pacman23check_have_fruit_targetERNS_21FighterModuleAccessorE
_ZN3app25FighterSpecializer_Pacman20get_final_camera_posEv
_ZN3app27FighterSpecializer_Palutena19init_final_settingsERNS_26BattleObjectModuleAccessorE
_ZN3app24FighterSpecializer_Peach28special_lw_check_num_of_itemERNS_21FighterModuleAccessorE
_ZN3app24FighterSpecializer_Peach17final_init_statusERNS_21FighterModuleAccessorE
_ZN3app24FighterSpecializer_Peach22final_rand_create_itemERNS_21FighterModuleAccessorE
_ZN3app30FighterSpecializer_PFushigisou17update_vine_angleERNS_21FighterModuleAccessorE
_ZN3app25FighterSpecializer_Pikmin11hold_pikminERNS_21FighterModuleAccessorEi
_ZN3app25FighterSpecializer_Pikmin17reduce_pikmin_allERNS_21FighterModuleAccessorE
_ZN3app25FighterSpecializer_Pikmin19set_glare_fog_colorERNS_21FighterModuleAccessorEf
_ZN3app25FighterSpecializer_Pikmin18liberty_pikmin_allERNS_21FighterModuleAccessorE
_ZN3app25FighterSpecializer_Pikmin24update_hold_pikmin_paramERNS_21FighterModuleAccessorE
_ZN3app25FighterSpecializer_Pikmin35reduce_pikmin_all_change_top_pikminERNS_21FighterModuleAccessorE
_ZN3app25FighterSpecializer_Pikmin28sort_pikmin_no_change_statusERNS_21FighterModuleAccessorE
_ZN3app22FighterSpecializer_Pit27request_cut_in_chariotsightERNS_7FighterE
_ZN3lib9SingletonIN3app22FighterPitBFinalModuleEE9instance_E
_ZN3app31FighterPitBCutInTransactorFinal8instanceEv
_ZN3app22FighterPitBFinalModule4initEv
_ZN3app22FighterPitBFinalModule11get_hit_numEh
_ZN3app22FighterPitBFinalModule17get_hit_object_idEhi
_ZN3app22FighterPitBFinalModule13get_hit_groupEhi
_ZN3app22FighterPitBFinalModule10get_hit_noEhi
_ZN3app23FighterSpecializer_Popo27detach_constraint_special_sERNS_26BattleObjectModuleAccessorE
_ZN3app23FighterSpecializer_Popo29end_final_deactivated_icebergERNS_7FighterE
_ZN3app23FighterSpecializer_Popo31enable_partner_catch_transitionERNS_7FighterE
_ZN3app23FighterSpecializer_Popo29is_enable_couple_tech_for_luaERKNS_26BattleObjectModuleAccessorE
_ZN3app23FighterSpecializer_Popo25init_lr_special_s_partnerERNS_26BattleObjectModuleAccessorE
_ZN3app23FighterSpecializer_Popo29init_lr_special_hi_cliff_compERNS_26BattleObjectModuleAccessorE
_ZN3app23FighterSpecializer_Popo31change_status_special_s_partnerERNS_26BattleObjectModuleAccessorE
_ZN3app23FighterSpecializer_Popo20get_partner_positionERNS_26BattleObjectModuleAccessorE
_ZN3app23FighterSpecializer_Popo18init_final_partnerERNS_26BattleObjectModuleAccessorE
_ZN3app23FighterSpecializer_Popo23get_partner_motion_kindERNS_7FighterE
_ZN3app23FighterSpecializer_Popo18start_partner_turnERNS_7FighterE
_ZN3app23FighterSpecializer_Popo23change_item_have_motionERNS_7FighterE
_ZN3app23FighterSpecializer_Popo22reset_item_have_motionERNS_7FighterE
_ZN3app23FighterSpecializer_Popo28get_main_fighter_status_kindERNS_7FighterE
_ZN3app23FighterSpecializer_Popo16start_final_popoERNS_7FighterE
_ZN3app23FighterSpecializer_Popo23start_final_popo_cameraERNS_7FighterE
_ZN3app24FighterSpecializer_Purin15get_final_scaleERNS_7FighterE
_ZN3app25FighterSpecializer_Reflet13charge_pointsERNS_21FighterModuleAccessorE
_ZN3app25FighterSpecializer_Reflet15change_hud_kindERNS_7FighterEi
_ZN3app25FighterSpecializer_Reflet13get_magickindERNS_21FighterModuleAccessorEi
_ZN3app25FighterSpecializer_Reflet17set_flag_to_tableERNS_21FighterModuleAccessorEibi
_ZN3app25FighterSpecializer_Reflet15throwaway_swordERNS_7FighterERN3phx8Vector2fEb
_ZN3app25FighterSpecializer_Reflet15change_grimoireERNS_21FighterModuleAccessorEi
_ZN3app25FighterSpecializer_Reflet30get_final_target_pos_base_workERNS_21FighterModuleAccessorE
_ZN3app25FighterSpecializer_Reflet25get_special_hi_jump_speedERNS_21FighterModuleAccessorE
_ZN3app25FighterSpecializer_Reflet22get_active_thunder_numERNS_21FighterModuleAccessorEi
_ZN3app25FighterSpecializer_Reflet24exit_special_n_tron_holdERNS_21FighterModuleAccessorE
_ZN3app25FighterSpecializer_Reflet20check_special_lw_posERNS_21FighterModuleAccessorE
_ZN3app25FighterSpecializer_Reflet22special_lw_heal_damageERNS_21FighterModuleAccessorE
_ZN3app25FighterSpecializer_Reflet23send_final_attack_eventERNS_21FighterModuleAccessorE
_ZN3app25FighterSpecializer_Reflet19get_final_chrom_posERNS_21FighterModuleAccessorE
_ZN3app25FighterSpecializer_Reflet19set_final_chrom_posERNS_21FighterModuleAccessorEN3phx8Vector3fE
_ZN3app25FighterSpecializer_Reflet18get_final_chrom_lrERNS_21FighterModuleAccessorE
_ZN3app25FighterSpecializer_Reflet18set_final_chrom_lrERNS_21FighterModuleAccessorEf
_ZN3app25FighterSpecializer_Reflet28set_final_chrom_joint_rotateERNS_21FighterModuleAccessorEN3phx6Hash40ENS3_8Vector3fE
_ZN3app25FighterSpecializer_Ridley27get_special_s_ground_degreeERNS_21FighterModuleAccessorE
_ZN3app25FighterSpecializer_Ridley29request_special_s_wall_effectERNS_21FighterModuleAccessorE
_ZN3app25FighterSpecializer_Ridley30request_special_hi_wall_effectERNS_21FighterModuleAccessorE
_ZN3app25FighterSpecializer_Ridley17call_final_moduleERNS_7FighterEi
_ZN3app25FighterSpecializer_Ridley24final_module_hit_successEv
_ZN3app24FighterSpecializer_Robot12close_burnerERNS_21FighterModuleAccessorE
_ZN3app24FighterSpecializer_Robot20create_burner_effectERNS_21FighterModuleAccessorE
_ZN3app24FighterSpecializer_Robot15is_ownered_itemERNS_21FighterModuleAccessorEj
_ZN3app24FighterSpecializer_Robot23change_item_have_motionERNS_7FighterE
_ZN3app24FighterSpecializer_Robot22reset_item_have_motionERNS_7FighterE
_ZN3app26FighterSpecializer_Rockman14set_leafshieldERNS_26BattleObjectModuleAccessorEb
_ZN3app22FighterSpecializer_Roy23req_final_ground_effectERNS_7FighterEfff
_ZN3app22FighterSpecializer_Roy24hit_absolute_final_chromERNS_7FighterE
_ZN3app22FighterSpecializer_Ryu27check_special_air_s_commandERNS_26BattleObjectModuleAccessorE
_ZN3app22FighterSpecializer_Ryu25req_shinsyoryu_hit_effectERNS_26BattleObjectModuleAccessorERKN3phx8Vector3fES6_bb
_ZN3app22FighterSpecializer_Ryu27set_final_stage_disp_statusERNS_26BattleObjectModuleAccessorEbb
_ZN3app22FighterSpecializer_Ryu19set_turn_squat_autoERNS_26BattleObjectModuleAccessorE
_ZN3app24FighterSpecializer_Simon17call_final_moduleERNS_7FighterEi
_ZN3app24FighterSpecializer_Simon24final_module_hit_successEv
_ZN3app24FighterSpecializer_Simon30set_whip_reflect_attack_off_idERNS_7FighterEiiiiiiiiii
_ZN3app24FighterSpecializer_Simon20ray_check_floor_onlyERNS_7FighterERKN3phx8Vector2fES6_b
_ZN3app23FighterSnakeFinalModule9end_finalERNS_26BattleObjectModuleAccessorE
_ZN3app24FighterSpecializer_Snake21is_constraint_articleERNS_7FighterEiNS_22ArticleOperationTargetE
_ZN3app23FighterSnakeFinalModule5startERNS_26BattleObjectModuleAccessorE
_ZN3app23FighterSnakeFinalModule14start_zoom_outERNS_26BattleObjectModuleAccessorEi
_ZN3app23FighterSnakeFinalModule13lock_on_readyERNS_26BattleObjectModuleAccessorE
_ZN3app23FighterSnakeFinalModule7lock_onERNS_26BattleObjectModuleAccessorE
_ZN3app23FighterSnakeFinalModule18initialize_reticleERNS_26BattleObjectModuleAccessorE
_ZN3app23FighterSnakeFinalModule14update_reticleERNS_26BattleObjectModuleAccessorEff
_ZN3app23FighterSnakeFinalModule20get_missile_positionEi
_ZN3app23FighterSnakeFinalModule20get_lock_on_positionEi
_ZN3app23FighterSnakeFinalModule21get_lock_on_directionERKN3phx8Vector3fES4_fRS2_
_ZN3app23FighterSnakeFinalModule20get_lock_on_rotationERKN3phx8Vector3fES4_
_ZN3app23FighterSnakeFinalModule22get_guide_point_offsetEii
_ZN3app24FighterSpecializer_Sonic17start_final_sonicERNS_7FighterE
_ZN3app24FighterSpecializer_Sonic24start_final_sonic_cameraERNS_7FighterE
_ZN3app24FighterSpecializer_Sonic15end_final_sonicERNS_7FighterE
_ZN3app28FighterSpecializer_SZerosuit21start_final_szerosuitERNS_7FighterE
_ZN3app28FighterSpecializer_SZerosuit28start_final_szerosuit_cameraERNS_7FighterE
_ZN3app28FighterSpecializer_SZerosuit27exec_final_szerosuit_cameraERNS_7FighterE
_ZN3app28FighterSpecializer_SZerosuit19end_final_szerosuitERNS_7FighterE
_ZN3app28FighterSpecializer_SZerosuit18initialize_reticleERNS_26BattleObjectModuleAccessorE
_ZN3app28FighterSpecializer_SZerosuit14update_reticleERNS_26BattleObjectModuleAccessorEff
_ZN3app24FighterSpecializer_Wario17call_final_moduleERNS_7FighterEi
_ZN3app24FighterSpecializer_Wario24final_module_hit_successEv
_ZN3app24FighterSpecializer_Wario19set_final_start_posERNS_7FighterE
_ZN3app24FighterSpecializer_Yoshi17call_final_moduleERNS_7FighterEi
_ZN3app24FighterSpecializer_Yoshi20get_catch_pull_frameERNS_21FighterModuleAccessorE
fmod
_ZNSt3__112basic_stringIcNS_11char_traitsIcEENS_9allocatorIcEEED2Ev
strlen
_ZNSt3__19to_stringEj
_ZNSt3__112basic_stringIcNS_11char_traitsIcEENS_9allocatorIcEEE6appendEPKc
_ZNSt3__112basic_stringIcNS_11char_traitsIcEENS_9allocatorIcEEE6appendEPKcm
_ZNSt3__112basic_stringIcNS_11char_traitsIcEENS_9allocatorIcEEE7reserveEm
_ZN3phx5FiberD1Ev
_ZN3phx5Fiber5setupENSt3__18functionIFPS0_vEEEPKcm
_ZN3phx5FiberC1Ev
_ZN3phx5Fiber15switch_to_fiberEPS0_
_ZNK3phx5Fiber6statusEv
_ZN3phx5Fiber8finalizeEv
_ZNSt11logic_errorD2Ev
_ZNKSt11logic_error4whatEv
_ZNSt11logic_errorC2ERKS_
_ZNSt11logic_errorC2EPKc
_ZnwmRKSt9nothrow_t
_ZN3app21ItemKineticModuleImpl14set_slope_typeENS_13ItemSlopeTypeE
_ZN3app21ItemKineticModuleImpl15set_throw_paramERKN3phx8Vector3fES4_bj
_ZN7lua2cpp31create_agent_item_status_scriptEN3phx6Hash40EPN3app12BattleObjectEPNS2_26BattleObjectModuleAccessorEP9lua_State
_ZN3app4item8set_lifeEP9lua_Statei
_ZN3app4item19set_life_as_defaultEP9lua_State
_ZN3app4item26set_life_with_pocket_countEP9lua_Statei
_ZN3app4item16game_param_floatEP9lua_StateNS_18ItemGameParamFloatE
_ZN3app4item14game_param_intEP9lua_StateNS_16ItemGameParamIntE
_ZN3app4item13set_life_typeEP9lua_StateNS_16ItemLifetimeTypeE
_ZN3app4item30regist_life_status_ignore_lostEP9lua_Statei
_ZN3app4item6actionEP9lua_Stateif
_ZN3app4item14request_removeEP9lua_State
_ZN3app4item20is_same_create_frameEP9lua_State
_ZN3app4item26search_target_returns_workEP9lua_StateNS_14ItemTargetTypeEiiii
_ZN3app4item17set_hit_as_sphereEP9lua_StateiN3phx6Hash40EffffNS_13CollisionPartENS_9HitHeightE
_ZN3app4item18set_hit_as_capsuleEP9lua_StateiN3phx6Hash40EfffffffNS_13CollisionPartENS_9HitHeightE
_ZN3app4item18set_hit_from_paramEP9lua_StateNS_8ItemKindEN3phx6Hash40E
_ZN3app4item10set_searchEP9lua_StateiiN3phx6Hash40Effffjjjbjjbibj
_ZN3app4item8set_areaEP9lua_StateihhtjjN3phx6Hash40Effff
_ZN3app4item19enable_roll_up_areaEP9lua_State
_ZN3app4item11create_itemEP9lua_StateNS_8ItemKindEiffffff
_ZN3app4item18create_item_simpleEP9lua_StateNS_8ItemKindEfffffff
_ZN3app4item22create_item_with_angleEP9lua_StateNS_8ItemKindEifffff
_ZN3app4item33create_item_with_angle_from_paramEP9lua_StateNS_8ItemKindEifffS3_N3phx6Hash40Ei
_ZN3app4item18create_item_by_lotEP9lua_Stateff
_ZN3app4item14warp_to_targetEP9lua_StateNS_14ItemTargetTypeEfff
_ZN3app4item28begin_scale_animation_simpleEP9lua_StateN3phx6Hash40Eiff
_ZN3app4item21begin_scale_animationEP9lua_StateNS_17ItemScaleAnimTypeE
_ZN3app4item32begin_scale_animation_with_paramEP9lua_StateNS_17ItemScaleAnimTypeEiff
_ZN3app4item13set_countdownEP9lua_Statei
_ZN3app4item14set_countdown2EP9lua_Statei
_ZN3app4item14set_countdown3EP9lua_Statei
_ZN3app4item18set_bomb_countdownEP9lua_Statei
_ZN3app4item12is_dead_areaEP9lua_Stateb
_ZN3app4item11enable_areaEP9lua_Statei
_ZN3app4item12disable_areaEP9lua_Statei
_ZN3app4item10add_damageEP9lua_Statef
_ZN3app4item14set_slow_wholeEP9lua_Stateii
_ZN3app4item16clear_slow_wholeEP9lua_State
_ZN3app4item25request_cut_in_from_paramEP9lua_StateNS_8ItemKindEN3phx6Hash40ERKNS4_8Vector2fE
_ZN3app4item40request_cut_in_from_param_with_effect_idEP9lua_StateNS_8ItemKindEN3phx6Hash40ERKNS4_8Vector2fES5_
_ZN3app4item58request_cut_in_from_param_with_target_no_bgm_volume_changeEP9lua_StateNS_8ItemKindEN3phx6Hash40EjRKNS4_8Vector2fE
_ZN3app4item39request_cut_in_from_assist_common_paramEP9lua_StateRKN3phx8Vector2fE
_ZN3app4item19set_scale_speed_mulEP9lua_Statef
_ZN3app4item9variationEP9lua_State
_ZN3app4item11add_log_intEP9lua_Statejii
_ZN3app4item8owner_idEP9lua_State
_ZN3app4item26request_lost_effect_and_seEP9lua_State
_ZN3app4item22set_appear_child_speedEP9lua_StateRKN3phx8Vector2fEb
_ZN3app4item34set_effect_sync_visibility_defaultEP9lua_Stateb
_ZN3app4item6set_hpEP9lua_Statef
_ZN3app4item6get_hpEP9lua_State
_ZN3app4item20enable_lost_flashingEP9lua_Stateb
_ZN3app4item18link_as_team_ownerEP9lua_Statej
_ZN3app4item20link_as_create_ownerEP9lua_Statej
_ZN3app4item20set_visibility_wholeEP9lua_Stateb
_ZN3app4item4warpEP9lua_StateRKN3phx8Vector3fE
_ZN3app4item18warp_with_safe_posEP9lua_StateRKN3phx8Vector3fES6_
_ZN3app4item24calc_offset_with_gravityEP9lua_StateRKN3phx8Vector2fE
_ZN3app4item17gravity_rot_z_degEP9lua_State
_ZN3app4item17gravity_rot_z_radEP9lua_State
_ZN3app4item4haveEP9lua_StatejN3phx6Hash40E
_ZN3app4item16have_no_set_teamEP9lua_StatejN3phx6Hash40E
_ZN3app4item10have_countEP9lua_State
_ZN3app4item12throw_attackEP9lua_StatefRKN3phx8Vector3fEf
_ZN3app4item25set_throw_power_speed_mulEP9lua_Statef
_ZN3app4item3hopEP9lua_Stateb
_ZN3app4item2idEP9lua_State
_ZN3app4item22is_ground_init_rhombusEP9lua_State
_ZN3app4item28get_safe_pos_from_had_playerEP9lua_State
_ZN3app4item18send_touch_messageEP9lua_StatejRKN3phx8Vector3fE
_ZN3app4item18set_force_flashingEP9lua_Stateb
_ZN3app4item17is_force_flashingEP9lua_State
_ZN3app4item12hit_absoluteEPNS_26BattleObjectModuleAccessorEijii
_ZN3app4item30get_hit_absolute_target_middleEj
_ZN3app4item29get_dead_area_effect_positionEPNS_26BattleObjectModuleAccessorERKN3phx8Vector3fE
_ZN3app4item24request_dead_area_effectEPNS_26BattleObjectModuleAccessorERKN3phx8Vector3fENS3_6Hash40ENS_10EColorKindEf
_ZN3app4item27get_assist_respawn_positionERKN3phx8Vector3fEi
_ZN3app4item19apply_powerup_throwEP9lua_State
_ZN3app4item17apply_powerup_etcEP9lua_State
_ZN3app4item18apply_powerup_attrEP9lua_State
_ZN3app4item20get_link_owner_scaleEP9lua_State
_ZN3app4item13appear_effectENS_8ItemKindERKN3phx8Vector3fE
_ZN3app4item31set_auto_update_rhombus_4_nodesEP9lua_StatefffN3phx6Hash40ES4_S4_S4_
_ZN3app4item31set_auto_update_rhombus_7_nodesEP9lua_StatefffN3phx6Hash40ES4_S4_S4_S4_S4_S4_
_ZN3app4item31set_auto_update_rhombus_9_nodesEP9lua_StatefffN3phx6Hash40ES4_S4_S4_S4_S4_S4_S4_S4_
_ZN3app4item25control_energy_from_paramEP9lua_StateNS_8ItemKindEN3phx6Hash40E
_ZN3app21ItemKineticModuleImpl10it_ai_moveERKN3phx8Vector2fES4_S4_S4_S4_bb
_ZN3app4item31control_energy_brake_from_paramEP9lua_StateNS_8ItemKindEN3phx6Hash40E
_ZN3app4item39control_energy_from_pokemon_leave_paramEP9lua_StateNS_8ItemKindEN3phx6Hash40E
_ZN3app4item20clear_control_energyEP9lua_State
_ZN3app4item21unable_control_energyEP9lua_State
_ZN3app4item31gravity_energy_brake_from_paramEP9lua_StateNS_8ItemKindEN3phx6Hash40E
_ZN3app4item26reset_gravity_energy_brakeEP9lua_State
_ZN3app4item30effect_req_on_joint_from_paramEP9lua_StateNS_8ItemKindEN3phx6Hash40E
_ZN3app4item28effect_req_follow_from_paramEP9lua_StateNS_8ItemKindEN3phx6Hash40E
_ZN3app4item18vector3_from_paramENS_8ItemKindEN3phx6Hash40E
_ZN3app4item12camera_sleepEP9lua_State
_ZN3app4item21change_partial_motionEP9lua_StateNS_21ItemPartialMotionSlotEN3phx6Hash40E
_ZN3app4item33change_partial_motion_as_skeletalEP9lua_StateNS_21ItemPartialMotionSlotEN3phx6Hash40E
_ZN3app4item23set_partial_motion_rateEP9lua_StateNS_21ItemPartialMotionSlotEf
_ZN3app4item24set_partial_motion_frameEP9lua_StateNS_21ItemPartialMotionSlotEf
_ZN3app4item21remove_partial_motionEP9lua_StateNS_21ItemPartialMotionSlotE
_ZN3app4item13request_quakeEP9lua_StateNS_15CameraQuakeKindE
_ZN3app4item10stop_quakeENS_15CameraQuakeKindE
_ZN3app4item17is_clip_in_cameraERKN3phx8Vector3fEf
_ZN3app4item27set_camera_range_from_paramEP9lua_StateNS_8ItemKindEN3phx6Hash40E
_ZN3app4item33set_enabled_camera_user_operationEP9lua_State
_ZN3app4item34set_disabled_camera_user_operationEP9lua_State
_ZN3app4item26set_visibility_whole_forceEP9lua_Stateb
_ZN3app4item23remove_model_constraintEP9lua_Stateib
_ZN3app4item16init_status_dataEP9lua_StateNS_15ItemKineticTypeENS_13SituationKindENS_17GroundCorrectKindEb
_ZN3app4item21init_status_data_fullEP9lua_StateNS_15ItemKineticTypeENS_13SituationKindENS_17GroundCorrectKindEbbbbbbbbbb
_ZN3app4item16self_param_floatENS_8ItemKindEN3phx6Hash40E
_ZN3app4item14self_param_intENS_8ItemKindEN3phx6Hash40E
_ZN3app4item23self_struct_param_floatENS_8ItemKindEN3phx6Hash40ES3_
_ZN3app4item21self_struct_param_intENS_8ItemKindEN3phx6Hash40ES3_
_ZN3app4item22self_struct_param_hashENS_8ItemKindEN3phx6Hash40ES3_
_ZN3app4item29self_struct_array_param_floatENS_8ItemKindEN3phx6Hash40EmS3_
_ZN3app4item27self_struct_array_param_intENS_8ItemKindEN3phx6Hash40EmS3_
_ZN3app4item28self_struct_array_param_hashENS_8ItemKindEN3phx6Hash40EmS3_
_ZN3app4item21self_param_array_sizeEP9lua_StateNS_8ItemKindEN3phx6Hash40E
_ZN3app4item18common_param_floatEP9lua_StateNS_20ItemCommonParamFloatE
_ZN3app4item16common_param_intEP9lua_StateNS_18ItemCommonParamIntE
_ZN3app4item17common_param_hashEP9lua_StateNS_19ItemCommonParamHashE
_ZN3app4item18assist_param_floatENS_16AssistParamFloatE
_ZN3app4item16assist_param_intENS_14AssistParamIntE
_ZN3app4item18property_param_intEP9lua_StateNS_20ItemPropertyParamIntE
_ZN3app4item23specialized_param_floatEP9lua_StateNS_25ItemSpecializedParamFloatE
_ZN3app4item22adjust_vector_361_bombEP9lua_Statei
_ZNK3app21ItemKineticModuleImpl20get_sum_speed_simpleEib
_ZN3app4item18stop_pre_explosionEP9lua_Statei
_ZN3app4item28stop_pre_explosion_object_idEP9lua_Stateji
_ZN3app4item31get_pre_explosion_hit_object_idEP9lua_State
_ZN3app4item34get_pre_explosion_attack_object_idEP9lua_State
_ZN3app4item34get_pre_explosion_search_object_idEP9lua_State
_ZN3app4item24init_explosion_no_damageEP9lua_State
_ZN3app4item14get_damage_mulEP9lua_Statej
_ZN3app12item_private22restore_yoshi_hit_infoEP9lua_State
_ZN3app12item_private22setup_ground_collisionEP9lua_State
_ZN3app12item_private24regist_status_alias_hashEP9lua_StateiN3phx6Hash40E
_ZN3app12item_private41set_postponed_damage_check_on_process_hitEP9lua_Stateb
_ZN3app12item_private25send_event_mewtowo_thrownEP9lua_StateRKN3phx8Vector3fE
_ZN3app6target6searchEP9lua_StateNS_14ItemTargetTypeEff
_ZN3app6target12search_rangeEP9lua_Stateffffb
_ZN3app6target23search_range_from_paramEP9lua_StateNS_8ItemKindEN3phx6Hash40Eb
_ZN3app6target36search_range_fighter_only_from_paramEP9lua_StateNS_8ItemKindEN3phx6Hash40Eb
_ZN3app6target30search_range_random_from_paramEP9lua_StateNS_8ItemKindEN3phx6Hash40Ebb
_ZN3app6target22search_range_ignore_lrEP9lua_Stateffff
_ZN3app6target27get_search_range_from_paramEP9lua_StateNS_8ItemKindEN3phx6Hash40E
_ZN3app6target6updateEP9lua_State
_ZN3app6target2idEP9lua_State
_ZN3app6target10center_posEP9lua_State
_ZN3app6target13center_pos_2dEP9lua_State
_ZN3app6target3posEP9lua_State
_ZN3app6target6pos_2dEP9lua_State
_ZN3app6target5pos_xEP9lua_State
_ZN3app6target5pos_yEP9lua_State
_ZN3app6target5pos_zEP9lua_State
_ZN3app6target8distanceEP9lua_State
_ZN3app6target11distance_2dEP9lua_State
_ZN3app6target10distance_xEP9lua_State
_ZN3app6target10distance_yEP9lua_State
_ZN3app6target9directionEP9lua_State
_ZN3app6target11direction_xEP9lua_State
_ZN3app6target11direction_yEP9lua_State
_ZN3app6target43is_target_in_range_from_param_with_base_posEP9lua_StateNS_8ItemKindEN3phx6Hash40ERKNS4_8Vector2fE
_ZN3app6target29is_target_in_range_from_paramEP9lua_StateNS_8ItemKindEN3phx6Hash40Eb
_ZN3app6target29is_bullet_in_range_from_paramEP9lua_StateNS_8ItemKindEN3phx6Hash40E
_ZN3app6target9is_activeEP9lua_State
_ZN3app6target20is_looking_at_targetEP9lua_State
_ZN3app12boss_private16self_param_floatEP9lua_StateNS_8ItemKindEN3phx6Hash40E
_ZN3app12boss_private14self_param_intEP9lua_StateNS_8ItemKindEN3phx6Hash40E
_ZN3app12boss_private18common_param_floatENS_8ItemKindENS_20BossCommonParamFloatE
_ZN3app12boss_private22main_energy_from_paramEP9lua_StateNS_8ItemKindEN3phx6Hash40Ef
_ZN3app12boss_private22sub1_energy_from_paramEP9lua_StateNS_8ItemKindEN3phx6Hash40Ef
_ZN3app12boss_private30main_energy_from_param_inheritEP9lua_StateNS_8ItemKindEN3phx6Hash40E
_ZN3app12boss_private30sub1_energy_from_param_inheritEP9lua_StateNS_8ItemKindEN3phx6Hash40E
_ZN3app12boss_private34sub1_energy_from_param_inherit_allEP9lua_StateNS_8ItemKindEN3phx6Hash40E
_ZN3app12boss_private30main_energy_from_param_no_bossEP9lua_StateNS_8ItemKindEN3phx6Hash40Ef
_ZN3app12boss_private30sub1_energy_from_param_no_bossEP9lua_StateNS_8ItemKindEN3phx6Hash40Ef
_ZN3app12boss_private38main_energy_from_param_inherit_no_bossEP9lua_StateNS_8ItemKindEN3phx6Hash40E
_ZN3app12boss_private38sub1_energy_from_param_inherit_no_bossEP9lua_StateNS_8ItemKindEN3phx6Hash40E
_ZN3app12boss_private42sub1_energy_from_param_inherit_all_no_bossEP9lua_StateNS_8ItemKindEN3phx6Hash40E
_ZN3app12boss_private21set_sub1_energy_angleEP9lua_Statef
_ZN3app12boss_private17clear_sub1_energyEP9lua_State
_ZN3app12boss_private16clear_energy_allEP9lua_State
_ZN3app12boss_private18unable_main_energyEP9lua_State
_ZN3app12boss_private18unable_sub1_energyEP9lua_State
_ZN3app12boss_private17unable_energy_allEP9lua_State
_ZN3app12boss_private30send_event_on_start_boss_entryEj
_ZN3app12boss_private25send_event_on_boss_finishEP9lua_StateN3phx6Hash40E
_ZN3app12boss_private25send_event_on_boss_defeatEP9lua_State
_ZN3app12boss_private23send_event_on_boss_deadEP9lua_State
_ZN3app12boss_private12is_boss_stopEv
_ZN3app12boss_private12set_stage_shEP9lua_State
_ZN3app12boss_private11create_bossEP9lua_StateNS_8ItemKindEi
_ZN3app12boss_private13create_weaponEP9lua_StateNS_8ItemKindEffff
_ZN3app12boss_private28create_weapon_with_variationEP9lua_StateNS_8ItemKindEiffff
_ZN3app12boss_private13select_actionEP9lua_StateNS_8ItemKindEN3phx6Hash40ES5_
_ZN3app12boss_private31get_status_kind_from_alias_hashEP9lua_StateN3phx6Hash40E
_ZN3app12boss_private26set_action_probability_mulEP9lua_StateN3phx6Hash40Ef
_ZN3app12boss_private30set_action_probability_mul_2ndEP9lua_StateN3phx6Hash40Ef
_ZN3app12boss_private26get_action_probability_mulEP9lua_StateN3phx6Hash40E
_ZN3app12boss_private30get_action_probability_mul_2ndEP9lua_StateN3phx6Hash40E
_ZN3app12boss_private37set_action_probability_mul_from_tableEP9lua_StateNS_8ItemKindEN3phx6Hash40Ef
_ZN3app12boss_private41set_action_probability_mul_2nd_from_tableEP9lua_StateNS_8ItemKindEN3phx6Hash40Ef
_ZN3app12boss_private37count_same_probability_mul_from_tableEP9lua_StateNS_8ItemKindEN3phx6Hash40Ef
_ZN3app12boss_private20calc_boss_hp_mul_sumENS_8ItemKindERNS_26BattleObjectModuleAccessorE
_ZN3app12boss_private18is_multi_play_modeEb
_ZN3app12boss_private14get_damage_mulEj
_ZN3app12boss_private15is_target_aliveEP9lua_State
_ZN3app7fighter20get_fighter_entry_idEj
_ZN3app12boss_private13search_targetEP9lua_StateNS_8ItemKindEf
_ZN3app12boss_private32count_target_in_range_from_paramEP9lua_StateNS_8ItemKindEN3phx6Hash40E
_ZN3app12item_manager30get_num_of_ownered_active_itemEjNS_8ItemKindE
_ZN3app12item_manager22get_num_of_active_itemENS_8ItemKindE
_ZN3app12item_manager24find_active_item_from_idEj
_ZN3app12item_manager19remove_item_from_idEj
_ZN3app22item_collision_manager29add_ground_collision_2_pointsEP9lua_StateRKN3phx8Vector2fES6_S6_NS_5grcol14AttributeFlagsE
_ZN3app22item_collision_manager24disable_ground_collisionEP9lua_State
_ZN3app22item_collision_manager23remove_ground_collisionEP9lua_State
_ZN3app8item_hud10visibilityEb
_ZN3app8item_hud21add_cursor_fighter_idEP9lua_Statej
_ZN3app8item_hud10del_cursorEP9lua_State
_ZN3app8item_hud17clear_owner_colorEP9lua_State
_ZN3app10item_other4kindEPNS_26BattleObjectModuleAccessorE
_ZN3app10item_other18change_status_lostEPNS_26BattleObjectModuleAccessorE
_ZN3app10item_other19apply_fighter_scaleEP9lua_StatePNS_26BattleObjectModuleAccessorE
_ZN3app10item_other27apply_fighter_powerup_shootEP9lua_StatePNS_26BattleObjectModuleAccessorE
_ZN3app10item_other6actionEPNS_26BattleObjectModuleAccessorEif
_ZN3app10item_other5shootEPNS_26BattleObjectModuleAccessorEiff
_ZN3app10item_other6removeEPNS_26BattleObjectModuleAccessorE
_ZN3app10item_other12throw_attackEPNS_26BattleObjectModuleAccessorEfRKN3phx8Vector3fEf
_ZN3app10item_other2idEPNS_26BattleObjectModuleAccessorE
_ZN3app10item_other17gravity_rot_z_radEPNS_26BattleObjectModuleAccessorE
_ZN3app10item_other18set_assist_team_noEP9lua_StatePNS_26BattleObjectModuleAccessorE
_ZN3app6camera16get_camera_rangeEv
_ZN3app6camera22get_camera_limit_rangeEv
_ZN3app6camera13get_dead_areaEv
_ZN3app6camera15check_dead_areaERKN3phx8Vector3fE
_ZN3app6camera10target_posEv
_ZN3app6camera13set_auto_zoomEb
_ZN3app6ground8is_floorEPKNS_19GroundCollisionLineE
_ZN3app6ground11is_passableEPKNS_19GroundCollisionLineE
_ZN3app6ground7is_wallEPKNS_19GroundCollisionLineE
_ZN3app6ground10get_normalEPKNS_19GroundCollisionLineE
_ZN3app6ground18get_near_next_lineEPKNS_19GroundCollisionLineERKN3phx8Vector2fE
_ZN3app6ground12get_near_posEPKNS_19GroundCollisionLineERKN3phx8Vector2fE
_ZN3app6ground10projectionEPKNS_19GroundCollisionLineERKN3phx8Vector2fERS5_
_ZN3app6ground17get_material_typeEPKNS_19GroundCollisionLineE
_ZN3app6ground19get_ground_move_vecEPKNS_19GroundCollisionLineERKN3phx8Vector2fE
_ZN3app6ground8is_validEPKNS_19GroundCollisionLineE
_ZN3app6ground7is_flatEP9lua_Statefff
_ZN3app6ground17is_flat_from_lineEP9lua_StatePKNS_19GroundCollisionLineERKN3phx8Vector2fEfff
_ZN3app6ground11check_floorEP9lua_Statefffb
_ZN3app6ground14check_floor_lrEP9lua_Stateffffb
_ZN3app6ground23check_floor_no_passableEP9lua_Statefffb
_ZN3app6ground21get_distance_to_floorEP9lua_StateRKN3phx8Vector3fEfbb
_ZN3app6ground13is_overlappedEP9lua_State
_ZN3app6ground14get_left_pointEPKNS_19GroundCollisionLineE
_ZN3app6ground15get_right_pointEPKNS_19GroundCollisionLineE
_ZN3app6ground12get_up_pointEPKNS_19GroundCollisionLineE
_ZN3app6ground14get_down_pointEPKNS_19GroundCollisionLineE
_ZN3app6ground26ray_check_for_ground_traceEP9lua_StateRKN3phx8Vector2fES6_RS4_PNS_19GroundCollisionLineE
_ZN3app7fighter26is_final_status_or_standbyEv
_ZN3app7fighter35is_final_status_or_stage_transitionEv
_ZN3app7fighter26is_absolutely_final_statusEv
_ZN3app7fighter9set_finalEP9lua_Statehj
_ZN3app7fighter22set_opponent_team_slowEP9lua_Stateii
_ZN3app7fighter22set_opponent_team_stopEP9lua_Statei
_ZN3app7fighter21get_joint_from_hit_noEi
_ZN3app7fighter14waist_joint_idEPKNS_26BattleObjectModuleAccessorE
_ZN3app7utility12get_categoryEj
_ZN3app7utility8get_kindEPKNS_26BattleObjectModuleAccessorE
_ZN3app7fighter20get_id_from_entry_idEi
_ZN3app7fighter14set_assistbeatEi
_ZN3app7fighter23get_fighter_entry_countEv
_ZN3app7fighter16is_have_on_mouthEj
_ZN3app7fighter18is_fighter_enabledEj
_ZN3app7fighter11is_ready_goEv
_ZN3app5stage12get_stage_idEv
_ZN3app5stage13is_flat_stageEv
_ZN3app5stage24get_stage_position_deltaEv
_ZN3app5stage32is_the_stage_needs_render_offsetEv
_ZN3app5stage24calc_offset_with_gravityERKN3phx8Vector2fERKNS1_8Vector3fE
_ZN3app5stage17is_normal_gravityEv
_ZN3app5stage20get_gravity_positionEv
_ZN3app5stage11back_line_zEv
_ZN3app5stage31is_exist_item_generate_positionEv
_ZN3app5stage22item_generate_positionEv
_ZN3app5stage30item_generate_position_nearestERKN3phx8Vector3fEi
_ZN3app5stage30item_generate_position_in_rectEffffRN3phx8Vector3fE
_ZN3app5stage18get_smashball_rectEv
_ZN3app5stage18lr_to_stage_centerEP9lua_State
_ZN3app5stage26is_looking_at_stage_centerEP9lua_State
_ZN3app6random9get_floatEv
_ZN3app6random9range_intEii
_ZN3app6random11range_floatEff
_ZN3app6random10is_percentEf
_ZN3app7utility19get_module_accessorEj
_ZN3app7utility13get_item_kindEj
_ZN3app7utility12send_messageEjif
_ZN3app7utility18is_targetable_itemEj
_ZN3app5math26rotateERKN3phx8Vector2fEf
_ZN3app5math28rotate_xERKN3phx8Vector3fEf
_ZN3app5math28rotate_yERKN3phx8Vector3fEf
_ZN3app5math28rotate_zERKN3phx8Vector3fEf
_ZN3app5math213calc_angle_2dERKN3phx8Vector2fES4_
_ZN3app5math210calc_angleERKN3phx8Vector3fES4_
_ZN3app5math213reflection_2dERKN3phx8Vector2fES4_
_ZN3app5math24powfEff
_ZN3app5math212bezier_curveEfffff
_ZN3app5math24wrapEfff
_ZN3app16global_parameter14is_team_battleEv
_ZN3app16global_parameter30is_team_battle_and_team_attackEv
_ZN3app16global_parameter14is_boss_battleEv
_ZN3app16global_parameter17is_spirits_battleEv
_ZN3app5debug9log_fatalEPKc
_ZN3app5debug8log_infoEPKc
_ZN3app5debug14set_draw_colorEP9lua_Stateffff
_ZN3app5debug9draw_lineEP9lua_StateRKN3phx8Vector2fES6_i
_ZN3app5debug17add_debug_commandEP9lua_StatePKci
_ZN3app18kinetic_energy_rot9mul_speedEP9lua_StateRKN3phx8Vector3fE
_ZN3app18kinetic_energy_rot6enableEP9lua_State
_ZN3app18kinetic_energy_rot6unableEP9lua_State
_ZN3app20kinetic_energy_outer9get_speedEP9lua_State
_ZN3app20kinetic_energy_outer11get_speed_xEP9lua_State
_ZN3app20kinetic_energy_outer11get_speed_yEP9lua_State
_ZN3app20kinetic_energy_outer9mul_speedEP9lua_StateRKN3phx8Vector3fE
_ZN3app20kinetic_energy_outer6enableEP9lua_State
_ZN3app20kinetic_energy_outer6unableEP9lua_State
_ZN3app22kinetic_energy_gravity9get_speedEP9lua_State
_ZN3app22kinetic_energy_gravity9mul_speedEP9lua_StateRKN3phx8Vector3fE
_ZN3app22kinetic_energy_gravity6enableEP9lua_State
_ZN3app22kinetic_energy_gravity6unableEP9lua_State
_ZN3app22kinetic_energy_gravity9is_enableEP9lua_State
_ZN3app21kinetic_energy_ground11get_speed_yEP9lua_State
_ZN3app21kinetic_energy_ground6unableEP9lua_State
_ZN3app22kinetic_energy_control9get_speedEP9lua_State
_ZN3app22kinetic_energy_control11get_speed_xEP9lua_State
_ZN3app22kinetic_energy_control11get_speed_yEP9lua_State
_ZN3app22kinetic_energy_control9mul_speedEP9lua_StateRKN3phx8Vector3fE
_ZN3app22kinetic_energy_control9mul_accelEP9lua_StateRKN3phx8Vector3fE
_ZN3app22kinetic_energy_control6enableEP9lua_State
_ZN3app22kinetic_energy_control6unableEP9lua_State
_ZN3app22kinetic_energy_control7suspendEP9lua_State
_ZN3app22kinetic_energy_control6resumeEP9lua_State
_ZN3app26kinetic_energy_control_rot9mul_speedEP9lua_StateRKN3phx8Vector3fE
_ZN3app26kinetic_energy_control_rot6enableEP9lua_State
_ZN3app26kinetic_energy_control_rot6unableEP9lua_State
_ZN3app26kinetic_energy_control_rot7suspendEP9lua_State
_ZN3app26kinetic_energy_control_rot6resumeEP9lua_State
_ZN3app21kinetic_energy_motion9get_speedEP9lua_State
_ZN3app21kinetic_energy_motion11get_speed_xEP9lua_State
_ZN3app21kinetic_energy_motion11get_speed_yEP9lua_State
_ZN3app21kinetic_energy_motion6enableEP9lua_State
_ZN3app19kinetic_energy_stop9get_speedEP9lua_State
_ZN3app19kinetic_energy_stop11get_speed_xEP9lua_State
_ZN3app19kinetic_energy_stop9mul_speedEP9lua_StateRKN3phx8Vector3fE
_ZN3app19kinetic_energy_stop6enableEP9lua_State
_ZN3app19kinetic_energy_stop6unableEP9lua_State
_ZN3app19kinetic_energy_stop9is_enableEP9lua_State
_ZN3app21kinetic_energy_jostle11get_speed_xEP9lua_State
_ZN3app21kinetic_energy_jostle6enableEP9lua_State
_ZN3app21kinetic_energy_jostle6unableEP9lua_State
_ZN3app30kinetic_energy_ground_movement9get_speedEP9lua_State
_ZN3app30kinetic_energy_ground_movement11get_speed_xEP9lua_State
_ZN3app30kinetic_energy_ground_movement6enableEP9lua_State
_ZN3app30kinetic_energy_ground_movement6unableEP9lua_State
_ZN3app21kinetic_energy_damage11get_speed_xEP9lua_State
_ZN3app19kinetic_energy_wind9get_speedEP9lua_State
_ZN3app33kinetic_energy_motion_linked_main9get_speedEP9lua_State
_ZN3app33kinetic_energy_motion_linked_main11get_speed_xEP9lua_State
_ZN3app33kinetic_energy_motion_linked_main11get_speed_yEP9lua_State
_ZN3app33kinetic_energy_motion_linked_main6enableEP9lua_State
_ZN3app33kinetic_energy_motion_linked_main6unableEP9lua_State
_ZN3app33kinetic_energy_motion_linked_sub19get_speedEP9lua_State
_ZN3app33kinetic_energy_motion_linked_sub111get_speed_xEP9lua_State
_ZN3app33kinetic_energy_motion_linked_sub111get_speed_yEP9lua_State
_ZN3app33kinetic_energy_motion_linked_sub16enableEP9lua_State
_ZN3app33kinetic_energy_motion_linked_sub16unableEP9lua_State
_ZN3app33kinetic_energy_motion_linked_sub19is_enableEP9lua_State
_ZN3app20kinetic_energy_outer11clear_speedEP9lua_State
_ZN3app22kinetic_energy_gravity11clear_speedEP9lua_State
_ZN3app22kinetic_energy_control11clear_speedEP9lua_State
_ZN3app21kinetic_energy_motion11clear_speedEP9lua_State
_ZN3app33kinetic_energy_motion_linked_sub111clear_speedEP9lua_State
_ZN3app18kinetic_energy_rot14get_rotation_zEP9lua_State
_ZN3app18kinetic_energy_rot12get_rotationEP9lua_State
_ZN3app18kinetic_energy_rot15clear_rot_speedEP9lua_State
_ZN3app26kinetic_energy_control_rot12get_rotationEP9lua_State
_ZN3app26kinetic_energy_control_rot15clear_rot_speedEP9lua_State
_ZN3app21kinetic_energy_ground9set_speedEP9lua_StateRKN3phx8Vector2fE
_ZN3app22kinetic_energy_control9get_accelEP9lua_State
_ZN3app22kinetic_energy_control9get_brakeEP9lua_State
_ZN3app22kinetic_energy_control15get_limit_speedEP9lua_State
_ZN3app22kinetic_energy_control9set_accelEP9lua_StateRKN3phx8Vector2fE
_ZN3app22kinetic_energy_control16set_stable_speedEP9lua_StateRKN3phx8Vector2fE
_ZN3app22kinetic_energy_control9set_brakeEP9lua_StateRKN3phx8Vector2fE
_ZN3app22kinetic_energy_control15set_limit_speedEP9lua_StateRKN3phx8Vector2fE
_ZN3app22kinetic_energy_control9set_speedEP9lua_StateRKN3phx8Vector2fE
_ZN3app22kinetic_energy_control9add_speedEP9lua_StateRKN3phx8Vector2fE
_ZN3app19kinetic_energy_stop9set_accelEP9lua_StateRKN3phx8Vector2fE
_ZN3app19kinetic_energy_stop16set_stable_speedEP9lua_StateRKN3phx8Vector2fE
_ZN3app19kinetic_energy_stop11set_brake_yEP9lua_Statef
_ZN3app19kinetic_energy_stop10set_brake2EP9lua_Statefff
_ZN3app19kinetic_energy_stop15set_limit_speedEP9lua_StateRKN3phx8Vector2fE
_ZN3app19kinetic_energy_stop9set_speedEP9lua_StateRKN3phx8Vector2fE
_ZN3app21kinetic_energy_damage9set_speedEP9lua_StateRKN3phx8Vector2fE
_ZN3app33kinetic_energy_motion_linked_main9set_speedEP9lua_StateRKN3phx8Vector2fE
_ZN3app33kinetic_energy_motion_linked_sub19set_speedEP9lua_StateRKN3phx8Vector2fE
_ZN3app20kinetic_energy_outer9get_accelEP9lua_State
_ZN3app20kinetic_energy_outer15get_limit_speedEP9lua_State
_ZN3app20kinetic_energy_outer9set_accelEP9lua_StateRKN3phx8Vector3fE
_ZN3app20kinetic_energy_outer9set_brakeEP9lua_StateRKN3phx8Vector3fE
_ZN3app20kinetic_energy_outer15set_limit_speedEP9lua_StateRKN3phx8Vector3fE
_ZN3app18kinetic_energy_rot9set_brakeEP9lua_StateRKN3phx8Vector3fE
_ZN3app26kinetic_energy_control_rot16set_stable_speedEP9lua_StateRKN3phx8Vector3fE
_ZN3app26kinetic_energy_control_rot9set_brakeEP9lua_StateRKN3phx8Vector3fE
_ZN3app20kinetic_energy_outer12set_speed_3fEP9lua_StateRKN3phx8Vector3fE
_ZN3app20kinetic_energy_outer12set_speed_2fEP9lua_StateRKN3phx8Vector2fE
_ZN3app21kinetic_energy_motion12set_speed_2fEP9lua_StateRKN3phx8Vector2fE
_ZN3app18kinetic_energy_rot12set_rotationEP9lua_StateRKN3phx8Vector3fE
_ZN3app26kinetic_energy_control_rot12set_rotationEP9lua_StateRKN3phx8Vector3fE
_ZN3app22kinetic_energy_gravity12get_speed_1fEP9lua_State
_ZN3app22kinetic_energy_gravity9get_accelEP9lua_State
_ZN3app22kinetic_energy_gravity15get_limit_speedEP9lua_State
_ZN3app22kinetic_energy_gravity12set_speed_1fEP9lua_Statef
_ZN3app22kinetic_energy_gravity9set_accelEP9lua_Statef
_ZN3app22kinetic_energy_gravity16set_stable_speedEP9lua_Statef
_ZN3app22kinetic_energy_gravity9set_brakeEP9lua_Statef
_ZN3app22kinetic_energy_gravity15set_limit_speedEP9lua_Statef
_ZN3app21kinetic_energy_damage21is_ground_type_energyEP9lua_State
_ZN3app19kinetic_energy_wind12set_speed_3fEP9lua_StateRKN3phx8Vector3fE
_ZN3app33kinetic_energy_motion_linked_main12set_init_posEP9lua_StateRKN3phx8Vector3fE
_ZN3app33kinetic_energy_motion_linked_main15set_speed_angleEP9lua_Statef
_ZN3app33kinetic_energy_motion_linked_main11sleep_speedEP9lua_Stateb
_ZN3app33kinetic_energy_motion_linked_main14is_sleep_speedEP9lua_State
_ZN3app33kinetic_energy_motion_linked_main21set_motion_trans_rateEP9lua_StateRKN3phx8Vector3fE
_ZN3app33kinetic_energy_motion_linked_main24force_update_trans_speedEP9lua_State
_ZN3app33kinetic_energy_motion_linked_sub116set_speed_lengthEP9lua_Statef
_ZN3app33kinetic_energy_motion_linked_sub115set_speed_angleEP9lua_Statef
_ZN3app33kinetic_energy_motion_linked_sub115set_speed_accelEP9lua_Statef
_ZN3app33kinetic_energy_motion_linked_sub120set_speed_length_minEP9lua_Statef
_ZN3app33kinetic_energy_motion_linked_sub120set_speed_length_maxEP9lua_Statef
_ZN3app33kinetic_energy_motion_linked_sub116get_speed_lengthEP9lua_State
_ZN3app33kinetic_energy_motion_linked_sub115get_speed_angleEP9lua_State
_ZN3app33kinetic_energy_motion_linked_sub111sleep_speedEP9lua_Stateb
_ZN3app33kinetic_energy_motion_linked_sub114is_sleep_speedEP9lua_State
_ZN3app33kinetic_energy_motion_linked_sub124force_update_trans_speedEP9lua_State
_ZN3app33kinetic_energy_motion_linked_sub112set_speed_lrEP9lua_Statef
_ZNK3app17ItemParamAccessor19is_valid_self_paramENS_8ItemKindEN3phx6Hash40E
_ZN3app20ItemCameraModuleImpl18end_camera_subjectEv
_ZN3app20ItemCameraModuleImpl20start_camera_subjectEv
_ZN3app20ItemCameraModuleImpl25set_camera_subject_enableEib
_ZN3app20ItemCameraModuleImpl22set_camera_subject_posEiRKN3phx8Vector3fE
_ZN3app20ItemCameraModuleImpl22get_camera_subject_posEi
_ZN3app20ItemCameraModuleImpl24set_camera_subject_rangeEiRKN3phx8Vector4fE
_ZNK3app20ItemDamageModuleImpl15is_smash_damageEff
_ZNK3app20ItemDamageModuleImpl22damage_log_value_floatEN3phx6Hash40E
_ZNK3app20ItemDamageModuleImpl20damage_log_value_intEN3phx6Hash40E
_ZN3app21ItemKineticModuleImpl16add_speed_damageERKN3phx8Vector3fE
_ZN3app22ItemInkPaintModuleImpl20apply_link_ink_paintEv
_ZN3app21ItemKineticModuleImpl16set_param_geminiEffRKN3phx8Vector2fE
_ZN3app21ItemKineticModuleImpl11clear_speedEb
_ZN3app21ItemKineticModuleImpl26add_speed_consider_gravityERKN3phx8Vector3fEb
_ZNK3app21ItemKineticModuleImpl11slope_angleEj
_ZN3app21ItemKineticModuleImpl21set_motion_trans_rateERKN3phx8Vector3fE
_ZNK3app21ItemKineticModuleImpl21get_motion_trans_rateEv
_ZN3app21ItemKineticModuleImpl22set_motion_trans_angleEf
_ZNK3app21ItemKineticModuleImpl22get_motion_trans_angleEv
_ZN3app21ItemKineticModuleImpl25set_motion_trans_rate_2ndERKN3phx8Vector3fE
_ZN3app21ItemKineticModuleImpl26set_motion_trans_angle_2ndEf
_ZN3app21ItemKineticModuleImpl10it_ai_typeENS_10ItemAiTypeERKN3phx8Vector2fES5_
_ZN3app21ItemKineticModuleImpl16it_ai_dir_factorEf
_ZN3app21ItemKineticModuleImpl21it_ai_distance_factorEf
_ZN3app21ItemKineticModuleImpl18it_ai_dir_rot_modeEb
_ZN3app21ItemKineticModuleImpl11it_base_rotERKN3phx8Vector3fE
_ZN3app27ItemMotionAnimcmdModuleImpl12set_fix_rateEf
_ZN3app5akira14set_all_shieldERNS_26BattleObjectModuleAccessorE
_ZN3app5akira17set_bullet_shieldERNS_26BattleObjectModuleAccessorE
_ZN3app7andross26get_stage_andross_positionEv
_ZN3app11androssshot9hit_checkERNS_18ItemModuleAccessorE
_ZN3app11androssshot14is_valid_pos_zEff
_ZN3app10baitocrane28is_enable_capture_baitocraneERKNS_26BattleObjectModuleAccessorE
_ZN3app10baitocrane8set_grabERNS_26BattleObjectModuleAccessorE
_ZN3app10baitocrane16add_camera_rangeERNS_26BattleObjectModuleAccessorEff
_ZN3app9bomberman10set_searchERNS_18ItemModuleAccessorEN3phx6Hash40E
_ZN3app9bomberman16create_item_haveERNS_18ItemModuleAccessorENS_8ItemKindEN3phx6Hash40E
_ZN3app9bomberman8put_itemERNS_18ItemModuleAccessorEjRKN3phx8Vector3fE
_ZN3app13bombermanbomb24send_event_bomberman_hitERNS_18ItemModuleAccessorEjRKN3phx8Vector3fE
_ZN3app6cyborg13set_reflectorERNS_18ItemModuleAccessorE
_ZN3app5devil20is_camera_mode_meleeEv
_ZN3app5devil14IT_MOVE_CAMERAERNS_18ItemModuleAccessorEbff
_ZN3app5devil24get_stage_devil_positionEv
_ZN3app5devil21set_camera_devil_modeEb
_ZN3app5devil25set_camera_devil_fix_modeEb
_ZN3app5devil23set_camera_devil_offsetEff
_ZN3app5devil23get_camera_devil_offsetEv
_ZN3app5devil33set_camera_devil_interpolate_rateEf
_ZN3app6driver10link_catchERNS_18ItemModuleAccessorEj
_ZN3app6driver21get_rhombus_front_posERNS_18ItemModuleAccessorE
_ZN3app6driver10set_attackERNS_18ItemModuleAccessorEii
_ZN3app6driver14get_center_posEj
_ZN3app10flyandhand14start_zoom_outEi
_ZN3app10flyandhand13revert_cameraEv
_ZN3app10flyandhand27get_camera_range_center_posEv
_ZN3app10flyandhand16get_camera_rangeEv
_ZN3app10flyandhand16set_camera_rangeERKN3phx8Vector4fE
_ZN3app8ghirahim10set_shieldERNS_18ItemModuleAccessorE
_ZN3app5guile10set_shieldERNS_26BattleObjectModuleAccessorE
_ZN3app16jeffpencilrocket14is_hit_fighterERNS_18ItemModuleAccessorEf
_ZN3app8kawasaki9link_tossERNS_18ItemModuleAccessorEjjffff
_ZN3app8kawasaki13link_cook_endERNS_18ItemModuleAccessorEj
_ZN3app8kawasaki21is_enable_toss_objectEj
_ZN3app8kawasaki16create_item_haveERNS_18ItemModuleAccessorEN3phx6Hash40E
_ZN3app8kawasaki10item_throwERNS_18ItemModuleAccessorEjRKN3phx8Vector2fE
_ZN3app8knuckles17get_rebound_speedERKN3phx8Vector2fES4_j
_ZN3app13kozukatasight15screen_to_worldERKN3phx8Vector2fEf
_ZN3app13kozukatasight12screen_widthEv
_ZN3app13kozukatasight13screen_heightEv
_ZN3app13kozukatasight10center_posEj
_ZN3app13kozukatasight10add_poisonEjiif
_ZN3app13kozukatasight14set_bgm_volumeEfj
_ZN3app13kozukatasight20start_sound_effectorERNS_18ItemModuleAccessorEf
_ZN3app13kozukatasight18end_sound_effectorERNS_18ItemModuleAccessorEf
_ZN3app13kozukatasight14is_large_stageEv
_ZN3app13kozukatasight13is_dark_stageEv
_ZN3app7lioleus17is_enable_landingERNS_18ItemModuleAccessorERKN3phx8Vector2fERS4_
_ZN3app7lioleus11create_itemERNS_18ItemModuleAccessorERKN3phx8Vector3fE
_ZN3app5midna8set_grabERNS_18ItemModuleAccessorE
_ZN3app5midna12throw_attackERNS_18ItemModuleAccessorE
_ZN3app8monsters23get_initialize_positionERNS_18ItemModuleAccessorES2_
_ZN3app8monsters17make_list_fighterERNS_18ItemModuleAccessorE
_ZN3app8monsters11get_fighterEiRN3phx8Vector4fERNS_18ItemModuleAccessorE
_ZN3app16motherbrainshot234set_attack_offset_and_size_to_workERNS_18ItemModuleAccessorE
_ZN3app9nightmare28get_stage_nightmare_positionEv
_ZN3app9nightmare25get_stage_nightmare_scaleEv
_ZN3app9nightmare34set_visibility_of_fighter_and_itemERNS_18ItemModuleAccessorEbi
_ZN3app12nintendogshi21set_nintendogs_effectERNS_18ItemModuleAccessorEb
_ZN3app12nintendogshi23is_training_camera_zoomEv
_ZN3app12nintendogshi24change_camera_type_meleeEv
_ZN3app4riki10yorokobemoERNS_18ItemModuleAccessorE
_ZN3app4riki8healdamoERNS_18ItemModuleAccessorE
_ZN3app4riki9stealdamoERNS_18ItemModuleAccessorE
_ZN3app9robinlift17is_enable_captureERKNS_26BattleObjectModuleAccessorE
_ZN3app9robinlift11set_clatterERNS_26BattleObjectModuleAccessorE
_ZN3app5rodin12get_positionEN3phx6Hash40E
_ZN3app5rodin12get_rotationEN3phx6Hash40E
_ZN3app5rodin18check_item_provideERNS_18ItemModuleAccessorE
_ZN3app5rodin16create_item_haveERNS_18ItemModuleAccessorEN3phx6Hash40E
_ZN3app5rodin10item_throwERNS_18ItemModuleAccessorEjRKN3phx8Vector2fE
_ZN3app10shiokarazu9can_existEv
_ZN3app10shiokarazu12get_warp_posEv
_ZN3app10shiokarazu18invalid_bgm_handleEv
_ZN3app10shiokarazu12get_bgm_kindEv
_ZN3app10shiokarazu9start_bgmEi
_ZN3app10shiokarazu7end_bgmEii
_ZN3app10shiokarazu23get_shrink_finish_frameEN3phx8Vector2fERKNS1_8Vector4fES3_
_ZN3app10shiokarazu35set_change_fighter_restart_positionEN3phx8Vector3fE
_ZN3app10shiokarazu38cancel_change_fighter_restart_positionEv
_ZN3app10shiokarazu16get_camera_rangeEv
_ZN3app10shiokarazu14get_dead_rangeEv
_ZN3app10shiokarazu25get_shrinked_camera_rangeEv
_ZN3app10shiokarazu23get_shrinked_dead_rangeEv
_ZN3app10shiokarazu16set_camera_rangeERKN3phx8Vector4fE
_ZN3app10shiokarazu14set_dead_rangeERKN3phx8Vector4fE
_ZN3app10shiokarazu14start_zoom_outEiRKN3phx8Vector4fE
_ZN3app10shiokarazu13revert_cameraEv
_ZN3app10shiokarazu13get_slow_rateERNS_18ItemModuleAccessorE
_ZN3app10shiokarazu13find_ptrainerERKN3phx8Vector4fEff
_ZN3app12shovelknight13set_reflectorERNS_26BattleObjectModuleAccessorE
_ZN3app12shovelknight11create_itemERNS_18ItemModuleAccessorERKN3phx8Vector2fE
_ZN3app8skullkid8can_flipEv
_ZN3app8skullkid16set_spycloak_subEbi
_ZN3app8skullkid12set_flip_subEbi
_ZN3app8skullkid11fill_screenERNS_18ItemModuleAccessorEib
_ZN3app9springman23set_joint_rotate_targetERNS_18ItemModuleAccessorEN3phx6Hash40ERKNS3_8Vector3fEf
_ZN3app9springman14set_all_shieldERNS_18ItemModuleAccessorE
_ZN3app9springman17set_bullet_shieldERNS_18ItemModuleAccessorE
_ZN3app7sukapon14set_all_shieldERNS_18ItemModuleAccessorE
_ZN3app7sukapon17set_bullet_shieldERNS_18ItemModuleAccessorE
_ZN3app6tvgame21set_camera_devil_modeEb
_ZN3app6tvgame33set_camera_devil_interpolate_rateEf
_ZN3app6tvgame13set_reflectorERNS_18ItemModuleAccessorE
_ZN3app6tvgame18set_info_tv15_initEff
_ZN3app6tvgame21set_info_tv15_visibleEb
_ZN3app6tvgame12add_past_logERNS_18ItemModuleAccessorEji
_ZN3app10tvgameshot10show_scoreERNS_18ItemModuleAccessorEii
_ZN3app10tvgameshot21info_tv15_set_visibleEb
_ZN3app10tvgameshot17info_tv15_gamesetEv
_ZN3app5vince24set_fighter_vince_statusERNS_18ItemModuleAccessorEiiN3phx6Hash40Eb
_ZN3app5vince28get_fighter_battle_object_idEi
_ZN3app6wanwan17get_neck_positionERNS_18ItemModuleAccessorE
_ZN3app6wanwan13is_same_floorEPKNS_19GroundCollisionLineES3_
_ZN3app6wanwan17get_pile_edge_posERNS_18ItemModuleAccessorERKN3phx8Vector2fE
_ZN3app6wanwan30get_pile_ground_movement_speedERNS_18ItemModuleAccessorE
_ZN3app6wanwan12add_movementERNS_18ItemModuleAccessorERKN3phx8Vector2fE
_ZN3app6wanwan24get_ground_height_from_xERNS_18ItemModuleAccessorEf
_ZN3app11wilycapsule13search_targetERNS_18ItemModuleAccessorERKN3phx8Vector4fE
_ZN3app11wilycapsule22get_damage_attacker_idERNS_18ItemModuleAccessorE
_ZN3app6wright10turn_startERNS_18ItemModuleAccessorE
_ZN3app9crazyhand16get_camera_rangeEv
_ZN3app9crazyhand14get_dead_rangeEv
_ZN3app9crazyhand25get_shrinked_camera_rangeEv
_ZN3app9crazyhand23get_shrinked_dead_rangeEv
_ZN3app9crazyhand16set_camera_rangeERKN3phx8Vector4fE
_ZN3app9crazyhand14set_dead_rangeERKN3phx8Vector4fE
_ZN3app9crazyhand14start_zoom_outEiRKN3phx8Vector4fE
_ZN3app9crazyhand13revert_cameraEv
_ZN3app13crazyhandbomb35send_event_parents_invincible_frameERNS_18ItemModuleAccessorEji
_ZN3app20crazyhandgravityball22send_catch_start_eventERNS_18ItemModuleAccessorEi
_ZN3app20crazyhandgravityball20send_catch_end_eventERNS_18ItemModuleAccessorEi
_ZN3app20crazyhandgravityball20send_catch_cut_eventERNS_18ItemModuleAccessorE
_ZN3app20crazyhandsearchlight17add_flower_damageEiff
_ZN3app4darz9can_existEv
_ZN3app4darz20get_look_at_rotationERKN3phx8Vector3fES4_S4_
_ZN3app10darztearup16set_fighter_slowEiii
_ZN3app10darztearup19cancel_fighter_slowEi
_ZN3app8dracula233notify_melee_start_to_hud_managerEv
_ZN3app7galleom8set_grabERNS_18ItemModuleAccessorEf
_ZN3app7galleom23send_link_event_clatterERNS_18ItemModuleAccessorEffff
_ZN3app7galleom21send_link_event_throwERNS_18ItemModuleAccessorE
_ZN3app7galleom31send_link_event_disable_clatterERNS_18ItemModuleAccessorE
_ZN3app5kiila9can_existEv
_ZN3app16kiiladarzmanager20entry_summon_fighterEi
_ZN3app16kiiladarzmanager25load_summon_fighter_lightEiNS_11FighterKindEii
_ZN3app16kiiladarzmanager24load_summon_fighter_darkEiNS_11FighterKindEii
_ZN3app16kiiladarzmanager32set_figher_information_parameterERNS_18ItemModuleAccessorEiifffN3phx6Hash40E
_ZN3app16kiiladarzmanager17is_loaded_fighterEi
_ZN3app16kiiladarzmanager13start_fighterEiRKN3phx8Vector3fEf
_ZN3app16kiiladarzmanager19is_activate_fighterEi
_ZN3app16kiiladarzmanager18deactivate_fighterEi
_ZN3app16kiiladarzmanager28get_fighter_battle_object_idEi
_ZN3app16kiiladarzmanager24set_stage_status_defaultEv
_ZN3app16kiiladarzmanager31set_stage_status_kiila_and_darzEv
_ZN3app16kiiladarzmanager22set_stage_status_kiilaEv
_ZN3app16kiiladarzmanager21set_stage_status_darzEv
_ZN3app16kiiladarzmanager26get_light_fighter_kind_numEv
_ZN3app16kiiladarzmanager22get_light_fighter_kindEi
_ZN3app16kiiladarzmanager25get_dark_fighter_kind_numEv
_ZN3app16kiiladarzmanager21get_dark_fighter_kindEi
_ZN3app16kiiladarzmanager36set_stage_floating_plates_visibilityEbi
_ZN3app16kiiladarzmanager10keyoff_bgmEi
_ZN3app16kiiladarzmanager15set_visible_hudEb
_ZN3app10kiilalaser16copy_attack_dataERNS_18ItemModuleAccessorEi
_ZN3app14kiilashockwave14get_center_posEi
_ZN3app12kiilatorrent15set_attack_dataERNS_18ItemModuleAccessorEi
_ZN3app4marx16is_large_fighterEi
_ZN3app4marx12fighter_stopEi
_ZN3app4marx15fighter_visibleEb
_ZN3app4marx22send_catch_start_eventERNS_18ItemModuleAccessorEiRKN3phx8Vector3fEif
_ZN3app4marx20send_catch_end_eventERNS_18ItemModuleAccessorEiRKN3phx8Vector3fE
_ZN3app4marx25set_capillary_attack_dataERNS_18ItemModuleAccessorEi
_ZN3app4marx16get_camera_rangeEv
_ZN3app4marx16set_camera_rangeERKN3phx8Vector4fE
_ZN3app4marx14start_zoom_outEiRKN3phx8Vector4fE
_ZN3app4marx13revert_cameraEv
_ZN3app12marxchaseeye31adjust_model_constraint_postureERNS_18ItemModuleAccessorE
_ZN3app10masterhand23send_link_event_clatterERNS_18ItemModuleAccessorEN3phx6Hash40Eiiif
_ZN3app10masterhand21send_link_event_throwERNS_18ItemModuleAccessorE
_ZN3app10masterhand20set_effect_ink_colorERNS_18ItemModuleAccessorEj
_ZN3app10masterhand17get_satellite_posEiib
_ZN3app10masterhand31adjust_model_constraint_postureERNS_18ItemModuleAccessorE
_ZN3app10masterhand23transform_affine_vectorERNS_18ItemModuleAccessorEN3phx6Hash40ERKNS3_8Vector3fE
_ZN3app10masterhand17get_ink_color_idxEv
_ZN3app10masterhand18get_rhombus_down_yERNS_18ItemModuleAccessorE
_ZN3app19masterhandpaintball15init_color_workERNS_18ItemModuleAccessorEi
_ZN3app10backshield20is_enable_backshieldEPKNS_26BattleObjectModuleAccessorE
_ZN3app10backshield21is_visible_backshieldEPKNS_26BattleObjectModuleAccessorE
_ZN3app10backshield27is_force_visible_backshieldEPKNS_26BattleObjectModuleAccessorE
_ZN3app10backshield13set_reflectorERNS_26BattleObjectModuleAccessorE
_ZN3app6beetle24is_enable_capture_beetleERKNS_26BattleObjectModuleAccessorE
_ZN3app6beetle8set_grabERNS_26BattleObjectModuleAccessorE
_ZN3app9blackball18add_suction_energyERNS_18ItemModuleAccessorEj
_ZN3app9blackball18start_item_captureERNS_18ItemModuleAccessorE
_ZN3app9blackball20start_weapon_captureERNS_18ItemModuleAccessorEj
_ZN3app9blackball29set_attack_offset_back_line_zERNS_18ItemModuleAccessorE
_ZN3app9boomerang16send_event_catchERNS_18ItemModuleAccessorE
_ZN3app9boomerang23is_catch_area_hit_checkERNS_18ItemModuleAccessorERKN3phx8Vector3fES6_f
_ZN3app10bossgalaga28is_enable_capture_bossgalagaERKNS_26BattleObjectModuleAccessorE
_ZN3app10bossgalaga8set_grabERNS_18ItemModuleAccessorEfff
_ZN3app7chicken17is_behind_fighterERNS_18ItemModuleAccessorE
_ZN3app7chicken16is_front_fighterERNS_18ItemModuleAccessorE
_ZN3app8clubshot18check_roll_up_areaERNS_18ItemModuleAccessorE
_ZN3app9curryshot20init_log_attack_infoERNS_18ItemModuleAccessorE
_ZN3app9curryshot15is_preview_modeEv
_ZN3app11daisydaikon35DAISY_DAISYDAIKON_DAIKON_LIFE_FRAMEEv
_ZN3app11daisydaikon31DAISY_DAISYDAIKON_DAIKON_1_PROBEv
_ZN3app11daisydaikon31DAISY_DAISYDAIKON_DAIKON_2_PROBEv
_ZN3app11daisydaikon31DAISY_DAISYDAIKON_DAIKON_3_PROBEv
_ZN3app11daisydaikon31DAISY_DAISYDAIKON_DAIKON_4_PROBEv
_ZN3app11daisydaikon31DAISY_DAISYDAIKON_DAIKON_5_PROBEv
_ZN3app11daisydaikon31DAISY_DAISYDAIKON_DAIKON_6_PROBEv
_ZN3app11daisydaikon31DAISY_DAISYDAIKON_DAIKON_7_PROBEv
_ZN3app11daisydaikon31DAISY_DAISYDAIKON_DAIKON_8_PROBEv
_ZN3app11daisydaikon32DAISY_DAISYDAIKON_DAIKON_1_POWEREv
_ZN3app11daisydaikon32DAISY_DAISYDAIKON_DAIKON_2_POWEREv
_ZN3app11daisydaikon32DAISY_DAISYDAIKON_DAIKON_3_POWEREv
_ZN3app11daisydaikon32DAISY_DAISYDAIKON_DAIKON_4_POWEREv
_ZN3app11daisydaikon32DAISY_DAISYDAIKON_DAIKON_5_POWEREv
_ZN3app11daisydaikon32DAISY_DAISYDAIKON_DAIKON_6_POWEREv
_ZN3app11daisydaikon32DAISY_DAISYDAIKON_DAIKON_7_POWEREv
_ZN3app11daisydaikon32DAISY_DAISYDAIKON_DAIKON_8_POWEREv
_ZN3app11daisydaikon12is_not_meleeEv
_ZN3app4doll9DOLL_LIFEEv
_ZN3app4doll17DOLL_REACTION_MULEv
_ZN3app4doll17DOLL_LIFE_DEC_MULEv
_ZN3app4doll18DOLL_SMASH_ACCEL_YEv
_ZN3app4doll22DOLL_SMASH_MAX_SPEED_XEv
_ZN3app4doll22DOLL_SMASH_MAX_SPEED_YEv
_ZN3app4doll14DOLL_POWER_MAXEv
_ZN3app4doll14DOLL_POWER_MINEv
_ZN3app4doll18DOLL_ROT_SPEED_MAXEv
_ZN3app4doll18DOLL_ROT_SPEED_MINEv
_ZN3app4doll12DOLL_SPEED_YEv
_ZN3app4doll16DOLL_ROT_SPEED_ZEv
_ZN3app4doll16DOLL_ROT_Z_RATIOEv
_ZN3app4doll22DOLL_HIT_DATA_OFFSET_1Ev
_ZN3app4doll22DOLL_HIT_DATA_OFFSET_2Ev
_ZN3app4doll18DOLL_HIT_DATA_SIZEEv
_ZN3app4doll15DOLL_SHAPE_TYPEEv
_ZN3app4doll17DOLL_MIN_DEGREE_YEv
_ZN3app4doll17DOLL_MAX_DEGREE_YEv
_ZN3app10dragoonset18calc_dragoonsight2Eff
_ZN3app12dragoonsight17calc_dragoonsightEbff
_ZN3app10dragoonset34get_stage_dragoon_camera_rectangleEv
_ZN3app12dragoonsight23set_dragoonsight_effectERNS_18ItemModuleAccessorEb
_ZN3app12dragoonsight39get_rotation_with_calc_camera_directionEv
_ZN3app13explosionbomb26EXPLOSIONBOMB_BURST_DAMAGEEv
_ZN3app13explosionbomb21EXPLOSIONBOMB_GRAVITYEv
_ZN3app13explosionbomb27EXPLOSIONBOMB_LIMIT_GRAVITYEv
_ZN3app13explosionbomb29EXPLOSIONBOMB_HOP_SPEED_MUL_XEv
_ZN3app13explosionbomb25EXPLOSIONBOMB_HOP_SPEED_YEv
_ZN3app13explosionbomb23EXPLOSIONBOMB_BOUND_NUMEv
_ZN3app13explosionbomb31EXPLOSIONBOMB_BOUND_SPEED_MUL_XEv
_ZN3app13explosionbomb31EXPLOSIONBOMB_BOUND_SPEED_MUL_YEv
_ZN3app13explosionbomb28EXPLOSIONBOMB_IGNITION_FRAMEEv
_ZN3app13explosionbomb26EXPLOSIONBOMB_WIRE_SPEED_XEv
_ZN3app13explosionbomb26EXPLOSIONBOMB_WIRE_SPEED_YEv
_ZN3app13explosionbomb26EXPLOSIONBOMB_WIRE_GRAVITYEv
_ZN3app13explosionbomb30EXPLOSIONBOMB_WIRE_BOUND_MUL_YEv
_ZN3app13explosionbomb25EXPLOSIONBOMB_BURST_FRAMEEv
_ZN3app13explosionbomb26EXPLOSIONBOMB_LIFE_MISFIREEv
_ZN3app13explosionbomb28EXPLOSIONBOMB_WIRE_ROT_SPEEDEv
_ZN3app13explosionbomb30set_notify_article_event_ejectERNS_18ItemModuleAccessorE
_ZN3app8healball12fighter_healERNS_18ItemModuleAccessorE
_ZN3app10kroolcrown9hit_spd_xEv
_ZN3app10kroolcrown9hit_spd_yEv
_ZN3app10kroolcrown11spawn_frameEv
_ZN3app10kroolcrown15spawn_frame_addEv
_ZN3app10kroolcrown15spawn_frame_maxEv
_ZN3app10kroolcrown26spawn_frame_get_krool_onlyEv
_ZN3app10kroolcrown12delete_frameEv
_ZN3app10kroolcrown18delete_flash_frameEv
_ZN3app9linkarrow19LINKARROW_ITEM_LIFEEv
_ZN3app9linkarrow27LINKARROW_ITEM_THROW_DEGREEEv
_ZN3app8linkbomb34LINK_LINKBOMB_LINKBOMB_LIMIT_FRAMEEi
_ZN3app8linkbomb34LINK_LINKBOMB_LINKBOMB_FLASH_FRAMEEi
_ZN3app8linkbomb33LINK_LINKBOMB_LINKBOMB_BOMB_SPEEDEi
_ZN3app8linkbomb33LINK_LINKBOMB_LINKBOMB_MIN_DAMAGEEi
_ZN3app8linkbomb33LINK_LINKBOMB_LINKBOMB_MAX_DAMAGEEi
_ZN3app8linkbomb39LINK_LINKBOMB_LINKBOMB_MIN_DAMAGE_SPEEDEi
_ZN3app8linkbomb39LINK_LINKBOMB_LINKBOMB_MAX_DAMAGE_SPEEDEi
_ZN3app8linkbomb36LINK_LINKBOMB_LINKBOMB_LANDING_SPEEDEi
_ZN3app8linkbomb39LINK_LINKBOMB_LINKBOMB_BLAST_WAIT_FRAMEEi
_ZN3app8linkbomb35LINK_LINKBOMB_LINKBOMB_BOUND_DEGREEEi
_ZN3app8linkbomb40LINK_LINKBOMB_LINKBOMB_MIN_BOUND_SPEED_XEi
_ZN3app8linkbomb40LINK_LINKBOMB_LINKBOMB_MAX_BOUND_SPEED_XEi
_ZN3app8linkbomb40LINK_LINKBOMB_LINKBOMB_MIN_BOUND_SPEED_YEi
_ZN3app8linkbomb40LINK_LINKBOMB_LINKBOMB_MAX_BOUND_SPEED_YEi
_ZN3app8linkbomb40LINK_LINKBOMB_LINKBOMB_BOUND_SPEED_X_MULEi
_ZN3app8linkbomb50LINK_LINKBOMB_LINKBOMB_IS_EXPLODE_WHEN_HIT_FIGHTEREi
_ZN3app3log8LOG_LIFEEv
_ZN3app3log16LOG_REACTION_MULEv
_ZN3app3log16LOG_LIFE_DEC_MULEv
_ZN3app3log17LOG_SMASH_ACCEL_YEv
_ZN3app3log21LOG_SMASH_MAX_SPEED_XEv
_ZN3app3log21LOG_SMASH_MAX_SPEED_YEv
_ZN3app3log13LOG_POWER_MAXEv
_ZN3app3log13LOG_POWER_MINEv
_ZN3app3log17LOG_ROT_SPEED_MAXEv
_ZN3app3log17LOG_ROT_SPEED_MINEv
_ZN3app3log11LOG_SPEED_YEv
_ZN3app3log15LOG_ROT_SPEED_ZEv
_ZN3app3log15LOG_ROT_Z_RATIOEv
_ZN3app3log21LOG_HIT_DATA_OFFSET_1Ev
_ZN3app3log21LOG_HIT_DATA_OFFSET_2Ev
_ZN3app3log17LOG_HIT_DATA_SIZEEv
_ZN3app3log14LOG_SHAPE_TYPEEv
_ZN3app9magicball13choose_targetERNS_18ItemModuleAccessorE
_ZN3app9magicball20get_magic_ball_paramERNS_18ItemModuleAccessorEjRN3phx8Vector2fERKS4_S5_
_ZN3app9magicball16is_enable_targetEj
_ZN3app9magicball21update_rotate_landingERNS_18ItemModuleAccessorEf
_ZN3app9magicball16add_camera_rangeERNS_18ItemModuleAccessorEffff
_ZN3app10mechakoopa22MECHAKOOPA_BURST_FRAMEEv
_ZN3app10mechakoopa27MECHAKOOPA_COUNT_DOWN_FRAMEEv
_ZN3app10mechakoopa26MECHAKOOPA_HOP_BURST_FRAMEEv
_ZN3app10mechakoopa25MECHAKOOPA_HOP_LOST_FRAMEEv
_ZN3app10mechakoopa22MECHAKOOPA_HOP_SPEED_XEv
_ZN3app10mechakoopa22MECHAKOOPA_HOP_SPEED_YEv
_ZN3app10mechakoopa18MECHAKOOPA_GRAVITYEv
_ZN3app10mechakoopa32MECHAKOOPA_BOUND_SPEED_THRESHOLDEv
_ZN3app10mechakoopa13MECHAKOOPA_HPEv
_ZN3app10mechakoopa18MECHAKOOPA_SPEED_XEv
_ZN3app10mechakoopa24MECHAKOOPA_LIMIT_SPEED_YEv
_ZN3app10mechakoopa27MECHAKOOPA_DAMAGE_SPEED_MULEv
_ZN3app10mechakoopa24MECHAKOOPA_SHOOT_SPEED_XEv
_ZN3app10mechakoopa22MECHAKOOPA_SHOOT_BRAKEEv
_ZN3app10mechakoopa24MECHAKOOPA_BOUND_SPEED_XEv
_ZN3app10mechakoopa24MECHAKOOPA_BOUND_SPEED_YEv
_ZN3app10mechakoopa22MECHAKOOPA_BOUND_BRAKEEv
_ZN3app10mechakoopa19MECHAKOOPA_TURN_NUMEv
_ZN3app10mechakoopa27MECHAKOOPA_DEAD_BURST_FRAMEEv
_ZN3app10mechakoopa28MECHAKOOPA_HIT_DATA_OFFSET_1Ev
_ZN3app10mechakoopa28MECHAKOOPA_HIT_DATA_OFFSET_2Ev
_ZN3app10mechakoopa24MECHAKOOPA_HIT_DATA_SIZEEv
_ZN3app10mechakoopa25MECHAKOOPA_HIT_DATA_JOINTEv
_ZN3app10mechakoopa24MECHAKOOPA_HIT_DATA_PARTEv
_ZN3app10mechakoopa26MECHAKOOPA_HIT_DATA_HEIGHTEv
_ZN3app10mechakoopa25MECHAKOOPA_STOP_SPEED_MULEv
_ZN3app10mechakoopa21MECHAKOOPA_STOP_BRAKEEv
_ZN3app10metalblade40ROCKMAN_METALBLADE_WAIT_LOST_COUNT_THROWEv
_ZN3app10metalblade40ROCKMAN_METALBLADE_WAIT_LOST_COUNT_STICKEv
_ZN3app10metalblade32ROCKMAN_METALBLADE_STICK_PERCENTEv
_ZN3app10metalblade27ROCKMAN_METALBLADE_IS_CATCHEv
_ZN3app10metalblade38ROCKMAN_METALBLADE_SPEED_REVERSE_FRAMEEv
_ZN3app10metalblade38OTHER_METALBLADE_WAIT_LOST_COUNT_THROWEv
_ZN3app10metalblade38OTHER_METALBLADE_WAIT_LOST_COUNT_STICKEv
_ZN3app10metalblade30OTHER_METALBLADE_STICK_PERCENTEv
_ZN3app10metalblade36OTHER_METALBLADE_SPEED_REVERSE_FRAMEEv
_ZN3app10metalblade32ROCKMAN_METALBLADE_LIFE_SUBTRACTEv
_ZN3app10metalblade39ROCKMAN_METALBLADE_STICK_ROT_STOP_FRAMEEv
_ZN3app10metalblade31ROCKMAN_METALBLADE_JOSTLE_SCALEEv
_ZN3app10metalblade22is_the_wall_stick_ableERNS_18ItemModuleAccessorE
_ZN3app11pacmanapple14PACMAN_ACCEL_YEv
_ZN3app11pacmanapple11PACMAN_LIFEEv
_ZN3app11pacmanapple25PACMAN_REFLECTION_MAX_NUMEv
_ZN3app11pacmanapple20PACMAN_HIT_DATA_SIZEEv
_ZN3app11pacmanapple17PACMAN_SHAPE_TYPEEv
_ZN3app10pacmanbell14PACMAN_ACCEL_YEv
_ZN3app10pacmanbell11PACMAN_LIFEEv
_ZN3app10pacmanbell25PACMAN_REFLECTION_MAX_NUMEv
_ZN3app10pacmanbell20PACMAN_HIT_DATA_SIZEEv
_ZN3app10pacmanbell17PACMAN_SHAPE_TYPEEv
_ZN3app10pacmanboss14PACMAN_ACCEL_YEv
_ZN3app10pacmanboss11PACMAN_LIFEEv
_ZN3app10pacmanboss25PACMAN_REFLECTION_MAX_NUMEv
_ZN3app10pacmanboss20PACMAN_HIT_DATA_SIZEEv
_ZN3app10pacmanboss17PACMAN_SHAPE_TYPEEv
_ZN3app12pacmancherry14PACMAN_ACCEL_YEv
_ZN3app12pacmancherry11PACMAN_LIFEEv
_ZN3app12pacmancherry25PACMAN_REFLECTION_MAX_NUMEv
_ZN3app12pacmancherry20PACMAN_HIT_DATA_SIZEEv
_ZN3app12pacmancherry17PACMAN_SHAPE_TYPEEv
_ZN3app24pacmanfruittarget_common19PACMAN_LANDING_LIFEEv
_ZN3app24pacmanfruittarget_common15PACMAN_HIT_LIFEEv
_ZN3app9pacmankey14PACMAN_ACCEL_YEv
_ZN3app9pacmankey11PACMAN_LIFEEv
_ZN3app9pacmankey25PACMAN_REFLECTION_MAX_NUMEv
_ZN3app9pacmankey20PACMAN_HIT_DATA_SIZEEv
_ZN3app9pacmankey17PACMAN_SHAPE_TYPEEv
_ZN3app11pacmanmelon14PACMAN_ACCEL_YEv
_ZN3app11pacmanmelon11PACMAN_LIFEEv
_ZN3app11pacmanmelon25PACMAN_REFLECTION_MAX_NUMEv
_ZN3app11pacmanmelon20PACMAN_HIT_DATA_SIZEEv
_ZN3app11pacmanmelon17PACMAN_SHAPE_TYPEEv
_ZN3app12pacmanorange14PACMAN_ACCEL_YEv
_ZN3app12pacmanorange11PACMAN_LIFEEv
_ZN3app12pacmanorange25PACMAN_REFLECTION_MAX_NUMEv
_ZN3app12pacmanorange20PACMAN_HIT_DATA_SIZEEv
_ZN3app12pacmanorange17PACMAN_SHAPE_TYPEEv
_ZN3app16pacmanstrawberry14PACMAN_ACCEL_YEv
_ZN3app16pacmanstrawberry11PACMAN_LIFEEv
_ZN3app16pacmanstrawberry25PACMAN_REFLECTION_MAX_NUMEv
_ZN3app16pacmanstrawberry20PACMAN_HIT_DATA_SIZEEv
_ZN3app16pacmanstrawberry17PACMAN_SHAPE_TYPEEv
_ZN3app11peachdaikon35PEACH_PEACHDAIKON_DAIKON_LIFE_FRAMEEv
_ZN3app11peachdaikon31PEACH_PEACHDAIKON_DAIKON_1_PROBEv
_ZN3app11peachdaikon31PEACH_PEACHDAIKON_DAIKON_2_PROBEv
_ZN3app11peachdaikon31PEACH_PEACHDAIKON_DAIKON_3_PROBEv
_ZN3app11peachdaikon31PEACH_PEACHDAIKON_DAIKON_4_PROBEv
_ZN3app11peachdaikon31PEACH_PEACHDAIKON_DAIKON_5_PROBEv
_ZN3app11peachdaikon31PEACH_PEACHDAIKON_DAIKON_6_PROBEv
_ZN3app11peachdaikon31PEACH_PEACHDAIKON_DAIKON_7_PROBEv
_ZN3app11peachdaikon31PEACH_PEACHDAIKON_DAIKON_8_PROBEv
_ZN3app11peachdaikon32PEACH_PEACHDAIKON_DAIKON_1_POWEREv
_ZN3app11peachdaikon32PEACH_PEACHDAIKON_DAIKON_2_POWEREv
_ZN3app11peachdaikon32PEACH_PEACHDAIKON_DAIKON_3_POWEREv
_ZN3app11peachdaikon32PEACH_PEACHDAIKON_DAIKON_4_POWEREv
_ZN3app11peachdaikon32PEACH_PEACHDAIKON_DAIKON_5_POWEREv
_ZN3app11peachdaikon32PEACH_PEACHDAIKON_DAIKON_6_POWEREv
_ZN3app11peachdaikon32PEACH_PEACHDAIKON_DAIKON_7_POWEREv
_ZN3app11peachdaikon32PEACH_PEACHDAIKON_DAIKON_8_POWEREv
_ZN3app8powblock16is_have2_fighterENS_11FighterKindE
_ZN3app8powblock16is_have3_fighterENS_11FighterKindE
_ZN3app8powblock16is_have4_fighterENS_11FighterKindE
_ZN3app8powblock16is_have5_fighterENS_11FighterKindE
_ZN3app8poweresa20POWERESA_HIT_SPEED_YEv
_ZN3app8poweresa16POWERESA_ACCEL_YEv
_ZN3app8poweresa13POWERESA_LIFEEv
_ZN3app8poweresa22POWERESA_HIT_DATA_SIZEEv
_ZN3app8poweresa19POWERESA_SHAPE_TYPEEv
_ZN3app8poweresa18POWERESA_HEAL_BASEEv
_ZN3app9robotgyro20ROBOTGYRO_MOVE_SPEEDEv
_ZN3app9robotgyro25ROBOTGYRO_MOVE_BASE_FRAMEEv
_ZN3app9robotgyro27ROBOTGYRO_MOVE_RANDOM_FRAMEEv
_ZN3app10rocketbelt20get_energy_max_frameEv
_ZN3app10rocketbelt26is_enable_rocketbelt_ejectEPKNS_26BattleObjectModuleAccessorE
_ZN3app7sandbag15get_motion_kindEi
_ZN3app7sandbag24get_audience_sound_labelENS_16enAudienceSETypeENS_17enAudienceSELevelE
_ZN3app7sandbag23set_info_sandbag_damageEf
_ZN3app7sandbag46get_float_battle_object_param_fly_top_angle_lwEv
_ZN3app7sandbag46get_float_battle_object_param_fly_top_angle_hiEv
_ZN3app10sensorbomb18set_flashing_colorERNS_26BattleObjectModuleAccessorEfff
_ZN3app9holywater19HOLYWATER_ROT_SPEEDENS_11FighterKindE
_ZN3app9holywater38HOLYWATER_REFLECT_SHIELD_GRAVITY_ACCELENS_11FighterKindE
_ZN3app9holywater42HOLYWATER_REFLECT_SHIELD_GRAVITY_ACCEL_MAXENS_11FighterKindE
_ZN3app9holywater34HOLYWATER_REFLECT_SHIELD_ROT_SPEEDENS_11FighterKindE
_ZN3app9holywater12HOLYWATER_HPENS_11FighterKindE
_ZN3app9holywater20HOLYWATER_HIT_DEC_HPENS_11FighterKindE
_ZN3app9holywater20HOLYWATER_LIFE_FRAMEENS_11FighterKindE
_ZN3app9holywater32HOLYWATER_FIRE_PILLAR_LIFE_FRAMEENS_11FighterKindE
_ZN3app9holywater29HOLYWATER_FIRE_PILLAR_SPEED_YENS_11FighterKindE
_ZN3app9holywater35HOLYWATER_FIRE_PILLAR_GRAVITY_ACCELENS_11FighterKindE
_ZN3app9holywater39HOLYWATER_FIRE_PILLAR_GRAVITY_ACCEL_MAXENS_11FighterKindE
_ZN3app9holywater31HOLYWATER_FIRE_PILLAR_SCALE_MINENS_11FighterKindE
_ZN3app9holywater26HOLYWATER_THROW_ANGLE_SIDEENS_11FighterKindE
_ZN3app9holywater28HOLYWATER_TRANSLATE_OFFSET_XENS_11FighterKindE
_ZN3app9holywater28HOLYWATER_TRANSLATE_OFFSET_YENS_11FighterKindE
_ZN3app9holywater25HOLYWATER_HIT_HOP_SPEED_YENS_11FighterKindE
_ZN3app9holywater25HOLYWATER_HIT_SPEED_X_MULENS_11FighterKindE
_ZN3app9holywater34HOLYWATER_HIT_HOP_AFTER_FALL_ACCELENS_11FighterKindE
_ZN3app9holywater35HOLYWATER_HIT_HOP_AFTER_SPEED_Y_MAXENS_11FighterKindE
_ZN3app9holywater17get_reflect_speedERNS_18ItemModuleAccessorEN3phx8Vector2fENS_11FighterKindE
_ZN3app9holywater16set_center_jointERNS_18ItemModuleAccessorEN3phx6Hash40E
_ZN3app4slow17request_bg_effectEv
_ZN3app9smartbomb14is_kumite_modeEv
_ZN3app9smashball16is_training_modeEv
_ZN3app9smashball15set_post_effectERNS_18ItemModuleAccessorEjb
_ZN3app9smashball23force_clear_post_effectERNS_18ItemModuleAccessorE
_ZN3app9smashball14get_auto_handiEj
_ZN3app9smashball19escape_from_fighterERNS_18ItemModuleAccessorE
_ZN3app9smashball13chase_fighterERNS_18ItemModuleAccessorE
_ZN3app9smashball26get_equip_draw_ability_numENS_14FighterEntryIDE
_ZN3app14smashballheavy23get_fighter_entry_countEv
_ZN3app14smashballheavy15set_post_effectERNS_18ItemModuleAccessorEjb
_ZN3app14smashballheavy23force_clear_post_effectERNS_18ItemModuleAccessorE
_ZN3app14smashballheavy14get_auto_handiEj
_ZN3app9snakecbox14update_area_lrERNS_18ItemModuleAccessorE
_ZN3app12snakegrenade4lifeEv
_ZN3app12snakegrenade20send_bomb_link_eventERNS_18ItemModuleAccessorE
_ZN3app8starring4linkERNS_18ItemModuleAccessorEj
_ZN3app8starring5shootERNS_18ItemModuleAccessorE
_ZN3app8st_shell14entry_to_stageEj
_ZN3app9superleaf25is_enable_superleaf_ejectERKNS_26BattleObjectModuleAccessorE
_ZN3app9superleaf20get_joint_position_lEPv
_ZN3app9superleaf20get_joint_position_rEPv
_ZN3app9superleaf20get_joint_rotation_lEPv
_ZN3app9superleaf20get_joint_rotation_rEPv
_ZN3app9superleaf17get_joint_scale_lEPv
_ZN3app9superleaf17get_joint_scale_rEPv
_ZN3app13teamhealfield13heal_fightersERNS_18ItemModuleAccessorE
_ZN3app9wariobike37WARIO_WARIOBIKE_BIKE_HP_DAMAGE_EFFECTEv
_ZN3app9wariobike22get_created_fighter_idERNS_18ItemModuleAccessorE
_ZN3app8warpstar20clear_collision_infoERNS_26BattleObjectModuleAccessorE
_ZN3app10wiifitball15WIIFITBALL_LIFEEv
_ZN3app10wiifitball29WIIFITBALL_ATTACK_START_SPEEDEv
_ZN3app10wiifitball27WIIFITBALL_ATTACK_POWER_MAXEv
_ZN3app10wiifitball20WIIFITBALL_BOUND_MAXEv
_ZN3app10wiifitball29WIIFITBALL_HEADING_SHOT_SPEEDEv
_ZN3app10wiifitball31WIIFITBALL_START_GROUND_GRAVITYEv
_ZN3app10wiifitball34WIIFITBALL_STAY_GROUND_START_FRAMEEv
_ZN3app10wiifitball30WIIFITBALL_STAY_GROUND_SPEED_YEv
_ZN3app10wiifitball30WIIFITBALL_STAY_GROUND_GRAVITYEv
_ZN3app10wiifitball34WIIFITBALL_FREE_GROUND_START_FRAMEEv
_ZN3app10wiifitball28WIIFITBALL_START_AIR_GRAVITYEv
_ZN3app10wiifitball31WIIFITBALL_STAY_AIR_START_FRAMEEv
_ZN3app10wiifitball27WIIFITBALL_STAY_AIR_SPEED_YEv
_ZN3app10wiifitball27WIIFITBALL_STAY_AIR_GRAVITYEv
_ZN3app10wiifitball31WIIFITBALL_FREE_AIR_START_FRAMEEv
_ZN3app10wiifitball35WIIFITBALL_LIFE_MINOUS_BOUND_GROUNDEv
_ZN3app10wiifitball28WIIFITBALL_THROW_ANGLE_UPPEREv
_ZN3app10wiifitball28WIIFITBALL_THROW_ANGLE_LOWEREv
_ZN3app10wiifitball18WIIFITBALL_BRAKE_XEv
_ZN3app10wiifitball24WIIFITBALL_RHOMBUS_SHAPEEv
_ZN3app10wiifitball16WIIFITBALL_SCALEEv
_ZN3app10wiifitball29WIIFITBALL_HIT_STOP_FRAME_MULEv
_ZN3app10wiifitball23WIIFITBALL_REACTION_MULEv
_ZN3app4wood9WOOD_LIFEEv
_ZN3app4wood14free_log_groupERNS_18ItemModuleAccessorE
_ZN3app5kasey15link_warp_startERNS_18ItemModuleAccessorEj
_ZN3app5kasey16link_warp_finishERNS_18ItemModuleAccessorEjRKN3phx8Vector3fEf
_ZN3app5kasey24get_camera_subject_rangeERNS_18ItemModuleAccessorE
_ZN3app5kasey22get_camera_limit_rangeEv
_ZN3app6lunala18get_ray_target_posERNS_18ItemModuleAccessorE
_ZN3app6lunala20get_look_at_rotationERKN3phx8Vector3fES4_S4_
_ZN3app9marshadow16move_x_edge_stopERNS_18ItemModuleAccessorEf
_ZN3app12meloettashot9OnReflectERNS_18ItemModuleAccessorEfff
_ZN3app12meloettashot18ReflectOnViewFrameERNS_18ItemModuleAccessorE
_ZN3app7metamon20load_metamon_fighterERNS_18ItemModuleAccessorE
_ZN3app7metamon25is_loaded_metamon_fighterEi
_ZN3app7metamon21start_metamon_fighterEiRNS_18ItemModuleAccessorE
_ZN3app7metamon19end_metamon_fighterEi
_ZN3app8mimikkyu39set_captured_fighter_visibility_and_hitERNS_18ItemModuleAccessorE
_ZN3app8mimikkyu26set_captured_fighter_scaleERNS_18ItemModuleAccessorEf
_ZN3app8mimikkyu26get_captured_fighter_scaleERNS_18ItemModuleAccessorE
_ZN3app8mimikkyu32send_link_event_release_mimikkyuERNS_18ItemModuleAccessorEb
_ZN3app6nassya21setup_collision_rightERNS_18ItemModuleAccessorE
_ZN3app6nassya20setup_collision_leftERNS_18ItemModuleAccessorE
_ZN3app6nassya22update_collision_rightERNS_18ItemModuleAccessorEi
_ZN3app6nassya21update_collision_leftERNS_18ItemModuleAccessorEi
_ZN3app6nassya16add_camera_rangeERNS_18ItemModuleAccessorEff
_ZN3app6palkia18set_info_palkia_swEb
_ZN3app6palkia22set_camera_roll_offsetEf
_ZN3app8sirnight13set_reflectorERNS_18ItemModuleAccessorE
_ZN3app8solgaleo16set_effect_pauseEjb
_ZN3app6togepy23set_darkness_effect_hudEb
_ZN3app7xerneas7powerupERNS_18ItemModuleAccessorE
_ZN3app7zoroark27send_link_event_final_startERNS_18ItemModuleAccessorEj
_ZN3app7zoroark28send_link_event_final_updateERNS_18ItemModuleAccessorEj
_ZN3app7zoroark28send_link_event_final_finishERNS_18ItemModuleAccessorEj
_ZNK2nn3err18ErrorResultVariant8GetStateEv
_ZN2nn3err18ErrorResultVariantC1Ev
_ZN2nn3ldn15MakeIpv4AddressEhhhh
_ZN2nn3ldn8GetStateEv
_ZN2nn3ldn32SetWirelessControllerRestrictionENS0_29WirelessControllerRestrictionE
_ZNSt3__19to_stringEi
expf
logf
_ZN2nn3err18ErrorResultVariantaSERKNS0_9ErrorCodeE
_ZN2nn2ec24ShowShopAddOnContentListENS_13ApplicationIdERKNS_7account10UserHandleE
_ZN2nn2ec24ShowShopAddOnContentListENS_13ApplicationIdE
_ZN2nn2ec22ShowShopProductDetailsENS0_5NsUidERKNS_7account10UserHandleE
toupper
_ZN2nn8settings12LanguageCode4MakeENS0_8LanguageE
free
malloc
_ZN2nn5album24MovieMakerMovieParameterC1Ev
_ZNK2nn5album24MovieMakerMovieParameter15GetAudioBitRateEv
_ZN2nn5album21GetExtraMovieFileListEPiPNS0_14AlbumFileEntryEi
_ZN2nn5album14LoadAlbumImageEPiS1_PvmS2_mRKNS0_14AlbumFileEntryE
_ZN2nn5album23LoadAlbumThumbnailImageEPiS1_PmPvmS3_mS3_mRKNS0_14AlbumFileEntryE
_ZN2nn5album14LoadAlbumImageEPiS1_PmPvmS3_mS3_mRKNS0_14AlbumFileEntryE
_ZN2nn5album20DeleteExtraMovieFileERKNS0_14AlbumFileEntryE
_ZN2nn4timegtERKNS0_12CalendarTimeES3_
_ZN2nn5album23GetAlbumFileCreatedTimeERKNS0_14AlbumFileEntryE
_ZNSt3__16chrono12steady_clock3nowEv
_ZN2nn4util8Vector4f13ConstantUnitXE
_ZNSt3__113random_deviceC1ERKNS_12basic_stringIcNS_11char_traitsIcEENS_9allocatorIcEEEE
_ZNSt3__113random_deviceclEv
_ZNSt3__113random_deviceD1Ev
_ZN3lib10LuaManager4lockEv
_ZN3lib10LuaManager6unlockEv
_ZNKSt3__112basic_stringIcNS_11char_traitsIcEENS_9allocatorIcEEE7compareEmmPKcm
_ZN3app9sv_system13battle_objectEP9lua_State
_ZN3app9sv_system29battle_object_module_accessorEP9lua_State
_ZN3app9sv_system22battle_object_categoryEP9lua_State
_ZN3app9sv_system18battle_object_kindEP9lua_State
_ZN3app9sv_system8owner_idEP9lua_State
_ZN3app16sv_module_access5slopeEP9lua_State
_ZN3app16sv_module_access6cameraEP9lua_State
_ZN3app16sv_module_access6effectEP9lua_State
_ZN3app16sv_module_access5soundEP9lua_State
_ZN3app16sv_module_access7articleEP9lua_State
_ZN3app16sv_module_access6cancelEP9lua_State
_ZN3app16sv_module_access6damageEP9lua_State
_ZN3app16sv_module_access4linkEP9lua_State
_ZN3app16sv_module_access6attackEP9lua_State
_ZN3app16sv_module_access6searchEP9lua_State
_ZN3app16sv_module_access6shieldEP9lua_State
_ZN3app16sv_module_access4grabEP9lua_State
_ZN3app16sv_module_access6_catchEP9lua_State
_ZN3app16sv_module_access7captureEP9lua_State
_ZN3app16sv_module_access4itemEP9lua_State
_ZN3app16sv_module_access11color_blendEP9lua_State
_ZN3app16sv_module_access7physicsEP9lua_State
_ZN3app19FL_sv_module_access5slopeEP9lua_State
_ZN3app19FL_sv_module_access4linkEP9lua_State
_ZN3app19FL_sv_module_access7captureEP9lua_State
_ZN3app14sv_information8stage_idEv
_ZN3app14sv_information20is_master_hand_stageEv
_ZN3app14sv_information24dead_up_camera_hit_countEv
_ZN3app14sv_information12dead_up_typeEv
_ZN3app14sv_information23is_stage_can_dead_frontEv
_ZN3app14sv_information22is_stage_can_dead_backEv
_ZN3app14sv_information22is_dead_up_force_crushEP9lua_State
_ZN3app14sv_information20is_disable_lock_downEv
_ZN3app14sv_information13is_flat_stageEv
_ZN3app14sv_information11is_ready_goEv
_ZN3app14sv_information11owner_handiEP9lua_State
_ZN3app14sv_information10owner_rankEP9lua_State
_ZN3app14sv_information14sleep_time_mulEP9lua_State
_ZN3app14sv_information9slow_rateEv
_ZN3app14sv_information16damage_log_valueEP9lua_State
_ZN3app14sv_information27get_remaining_time_as_frameEv
_ZN3app15sv_fighter_util10is_body_upEP9lua_State
_ZN3app15sv_fighter_util11adjust_wallEP9lua_Statefffbb
_ZN3app15sv_fighter_util11adjust_ceilEP9lua_Statefb
_ZN3app15sv_fighter_util20exit_thrown_lay_downEP9lua_State
_ZN3app15sv_fighter_util18switch_wait_motionEP9lua_Statei
_ZN3app15sv_fighter_util19switch_squat_motionEP9lua_Statei
_ZN3app15sv_fighter_util20stage_restart_scrollEP9lua_State
_ZN3app15sv_fighter_util28set_restart_pos_bezier_curveEP9lua_Stateffffffii
_ZN3app15sv_fighter_util40get_dead_up_camera_hit_my_distance_groupEP9lua_State
_ZN3app15sv_fighter_util46update_dead_up_camera_hit_first_distance_groupEP9lua_State
_ZN3app15sv_fighter_util34check_dead_mode_sub_fighter_beforeEP9lua_State
_ZN3app15sv_fighter_util33check_dead_mode_sub_fighter_afterEP9lua_Statei
_ZN3app15sv_fighter_util42get_dead_up_camera_hit_first_rand_offset_xEP9lua_State
_ZN3app15sv_fighter_util39get_dead_up_camera_hit_first_rand_rot_zEP9lua_State
_ZN3app15sv_fighter_util26get_dead_up_star_fall_probEP9lua_State
_ZN3app15sv_fighter_util27get_dead_up_camera_hit_probEP9lua_State
_ZN3app15sv_fighter_util33set_dead_up_camera_hit_vis_changeEP9lua_State
_ZN3app15sv_fighter_util14set_on_rebirthEP9lua_Stateb
_ZN3app15sv_fighter_util15set_dead_rumbleEP9lua_State
_ZN3app15sv_fighter_util26set_dead_camera_hit_rumbleEP9lua_State
_ZN3app15sv_fighter_util23is_capture_cut_distanceEP9lua_State
_ZN3app15sv_fighter_util22get_attack_s3_s_motionEP9lua_State
_ZN3app15sv_fighter_util21get_attack_hi3_motionEP9lua_State
_ZN3app15sv_fighter_util21get_attack_lw3_motionEP9lua_State
_ZN3app15sv_fighter_util20is_attack_air_statusEP9lua_Statei
_ZN3app15sv_fighter_util21is_exist_lose_fighterEP9lua_Statei
_ZN3app15sv_fighter_util29get_item_lift_motion_rate_mulEP9lua_State
_ZN3app15sv_fighter_util26get_item_swing_motion_rateEP9lua_Stateii
_ZN3app15sv_fighter_util18get_walk_speed_mulEP9lua_State
_ZN3app15sv_fighter_util18get_gravity_radianEP9lua_State
_ZN3app15sv_fighter_util19get_world_move_seedEv
_ZN3app15sv_fighter_util40get_default_fighter_param_walk_speed_maxEP9lua_State
_ZN3app15sv_fighter_util38get_default_fighter_param_ground_brakeEP9lua_State
_ZN3app15sv_fighter_util44get_default_fighter_param_ground_speed_limitEP9lua_State
_ZN3app15sv_fighter_util37get_default_fighter_param_air_brake_xEP9lua_State
_ZN3app15sv_fighter_util29get_damage_effect_line_radiusEP9lua_State
_ZN3app15sv_fighter_util21set_angle_wall_normalEP9lua_Statef
_ZN3app15sv_fighter_util28get_guard_damage_motion_rateEP9lua_Statem
_ZN3app15sv_fighter_util21get_kirifuda_positionEP9lua_Statei
_ZN3app15sv_fighter_util30adjust_joint_pos_change_motionEP9lua_StateN3phx6Hash40E
_ZN3app15sv_fighter_util23is_free_move_rot_legacyEv
_ZN3app17sv_camera_manager10dead_rangeEP9lua_State
_ZN3app17sv_camera_manager15inverse_mtx_mulEfff
_ZN3app17sv_camera_manager11inverse_rotEv
_ZN3app17sv_camera_manager12camera_rangeEv
_ZN3app17sv_camera_manager7get_fovEv
_ZN3app17sv_camera_manager30convert_pos_dead_range_gravityEP9lua_Stateffi
_ZN3app17sv_camera_manager30restore_pos_dead_range_gravityEP9lua_Stateffi
_ZN3app17sv_camera_manager15set_user_offsetEfffff
_ZN3app17sv_camera_manager7get_posEv
_ZN3app17sv_camera_manager10get_targetEv
_ZN3app17sv_camera_manager16get_internal_posEv
_ZN3app17sv_camera_manager19get_internal_targetEv
_ZN3app17sv_camera_manager15world_to_screenERKN3phx8Vector3fEb
_ZN3app19sv_fighter_audience20notify_event_msc_cmdEP9lua_State
_ZN3app16sv_battle_object4kindEj
_ZN3app16sv_battle_object8categoryEj
_ZN3app16sv_battle_object3posEj
_ZN3app16sv_battle_object15module_accessorEj
_ZN3app16sv_battle_object17add_speed_outsideEjiRKN3phx8Vector3fE
_ZN3app16sv_battle_object13fixed_scalingEjbiifi
_ZN3app16sv_battle_object9set_floatEjfi
_ZN3app16sv_battle_object9is_activeEj
_ZN3app16sv_battle_object7is_nullEj
_ZN3app16sv_battle_object21joint_global_positionEjN3phx6Hash40ERNS1_8Vector3fE
_ZN3app16sv_battle_object33joint_global_position_with_offsetEjN3phx6Hash40ERKNS1_8Vector3fERS3_
_ZN3app16sv_battle_object14get_founder_idEj
_ZN3app16sv_battle_object30set_power_mul_region_attr_infoERNS_26BattleObjectModuleAccessorES2_
_ZN3app16sv_battle_object20notify_event_msc_cmdEP9lua_State
_ZN3app16sv_battle_object8entry_idEj
_ZN3app16sv_battle_object11end_inhaledEjb
_ZN3app16sv_battle_object18get_item_hold_kindEj
_ZN3app16sv_battle_object15log_attack_kindEj
_ZN3app7sv_item32create_item_init_normal_safe_posENS_8ItemKindEiiRKN3phx8Vector3fES5_fj
_ZN3app7sv_item22update_log_attack_infoEPNS_4ItemEi
_ZN3app7sv_item17start_boss_finishEP9lua_StateNS_8ItemKindEN3phx6Hash40E
_ZN3app7sv_item12is_boss_stopEv
_ZN3app7sv_item23is_standard_boss_seriesEv
_ZN3app7sv_item11is_capturedEj
_ZN3app19sv_global_parameter28melee_melee_info_item_appearEv
_ZN3app19sv_global_parameter15melee_rule_modeEv
_ZN3app19sv_global_parameter15melee_rule_typeEv
_ZN3app24sv_ground_collision_line8is_floorEPKNS_19GroundCollisionLineE
_ZN3app24sv_ground_collision_line14get_center_posEPKNS_19GroundCollisionLineE
_ZN3app24sv_ground_collision_line10get_normalEPKNS_19GroundCollisionLineE
_ZN3app17sv_kinetic_energy12reset_energyEP9lua_State
_ZN3app17sv_kinetic_energy6enableEP9lua_State
_ZN3app17sv_kinetic_energy6unableEP9lua_State
_ZN3app17sv_kinetic_energy9is_enableEP9lua_State
_ZN3app17sv_kinetic_energy11clear_speedEP9lua_State
_ZN3app17sv_kinetic_energy9mul_speedEP9lua_State
_ZN3app17sv_kinetic_energy11friction_onEP9lua_State
_ZN3app17sv_kinetic_energy12friction_offEP9lua_State
_ZN3app17sv_kinetic_energy9get_speedEP9lua_State
_ZN3app17sv_kinetic_energy11get_speed_xEP9lua_State
_ZN3app17sv_kinetic_energy11get_speed_yEP9lua_State
_ZN3app17sv_kinetic_energy16get_speed_lengthEP9lua_State
_ZN3app17sv_kinetic_energy11get_speed3fEP9lua_State
_ZN3app17sv_kinetic_energy12get_rotationEP9lua_State
_ZN3app17sv_kinetic_energy14get_rotation_xEP9lua_State
_ZN3app17sv_kinetic_energy14get_rotation_yEP9lua_State
_ZN3app17sv_kinetic_energy14get_rotation_zEP9lua_State
_ZN3app17sv_kinetic_energy7suspendEP9lua_State
_ZN3app17sv_kinetic_energy6resumeEP9lua_State
_ZN3app17sv_kinetic_energy9set_speedEP9lua_State
_ZN3app17sv_kinetic_energy9set_accelEP9lua_State
_ZN3app17sv_kinetic_energy9set_brakeEP9lua_State
_ZN3app17sv_kinetic_energy16set_stable_speedEP9lua_State
_ZN3app17sv_kinetic_energy15set_limit_speedEP9lua_State
_ZN3app17sv_kinetic_energy13set_speed_mulEP9lua_State
_ZN3app17sv_kinetic_energy17set_speed_mul_2ndEP9lua_State
_ZN3app17sv_kinetic_energy13set_chara_dirEP9lua_State
_ZN3app17sv_kinetic_energy9set_angleEP9lua_State
_ZN3app17sv_kinetic_energy9add_speedEP9lua_State
_ZN3app17sv_kinetic_energy15mul_x_speed_maxEP9lua_State
_ZN3app17sv_kinetic_energy14clear_speed_exEP9lua_State
_ZN3app17sv_kinetic_energy21is_cliff_ground_transEP9lua_State
_ZN3app17sv_kinetic_energy16set_ground_transEP9lua_State
_ZN3app17sv_kinetic_energy16set_damage_speedEP9lua_State
_ZN3app17sv_kinetic_energy26controller_set_accel_x_mulEP9lua_State
_ZN3app17sv_kinetic_energy26controller_set_accel_x_addEP9lua_State
_ZN3app17sv_kinetic_energy15set_accel_x_mulEP9lua_State
_ZN3app17sv_kinetic_energy15set_accel_x_addEP9lua_State
_ZN3app17sv_kinetic_energy15set_accel_y_mulEP9lua_State
_ZN3app17sv_kinetic_energy15set_accel_y_addEP9lua_State
_ZN3app17sv_kinetic_energy23set_gravity_coefficientEP9lua_State
_ZN3app17sv_kinetic_energy20is_gravity_fix_accelEP9lua_State
_ZN3app17sv_kinetic_energy29set_motion_energy_update_flagEP9lua_State
_ZN3app17sv_kinetic_energy17get_limit_speed_xEP9lua_State
_ZN3app17sv_kinetic_energy17get_limit_speed_yEP9lua_State
_ZN3app17sv_kinetic_energy18get_stable_speed_xEP9lua_State
_ZN3app17sv_kinetic_energy18get_stable_speed_yEP9lua_State
_ZN3app17sv_kinetic_energy11get_brake_yEP9lua_State
_ZN3app17sv_kinetic_energy13get_speed_mulEP9lua_State
_ZN3app17sv_kinetic_energy9get_accelEP9lua_State
_ZN3app10sv_animcmd9is_excuteEP9lua_State
_ZN3app10sv_animcmd4stopEP9lua_State
_ZN3app10sv_animcmd5frameEP9lua_Statef
_ZN3app10sv_animcmd7executeEP9lua_Statef
_ZN3app10sv_animcmd11frame_clearEP9lua_State
_ZN3app10sv_animcmd4waitEP9lua_Statef
_ZN3app10sv_animcmd9wait_loopEP9lua_State
_ZN3app10sv_animcmd18wait_loop_sync_motEP9lua_State
_ZN3app10sv_animcmd15wait_loop_clearEP9lua_State
_ZN3app10sv_animcmd13get_value_intEP9lua_Statei
_ZN3app10sv_animcmd15get_value_floatEP9lua_Statei
_ZN3app10sv_animcmd9IS_RANDOMEP9lua_State
_ZN3app10sv_animcmd16IS_EXIST_ARTICLEEP9lua_State
_ZN3app10sv_animcmd22IS_GENERATABLE_ARTICLEEP9lua_State
_ZN3app10sv_animcmd22IS_FIGHTER_STATUS_KINDEP9lua_State
_ZN3app10sv_animcmd14IS_STATUS_KINDEP9lua_State
_ZN3app10sv_animcmd17IS_HAVE_ITEM_KINDEP9lua_State
_ZN3app10sv_animcmd7IS_MENUEP9lua_State
_ZN3app10sv_animcmd9ATK_POWEREP9lua_State
_ZN3app10sv_animcmd6ATTACKEP9lua_State
_ZN3app10sv_animcmd19ATTACK_IGNORE_THROWEP9lua_State
_ZN3app10sv_animcmd10ATTACK_ABSEP9lua_State
_ZN3app10sv_animcmd11ATK_HIT_ABSEP9lua_State
_ZN3app10sv_animcmd14ATK_LERP_RATIOEP9lua_State
_ZN3app10sv_animcmd25ATK_SET_SHIELD_SETOFF_MULEP9lua_State
_ZN3app10sv_animcmd30ATK_SET_SHIELD_SETOFF_MUL_arg3EP9lua_State
_ZN3app10sv_animcmd30ATK_SET_SHIELD_SETOFF_MUL_arg4EP9lua_State
_ZN3app10sv_animcmd30ATK_SET_SHIELD_SETOFF_MUL_arg5EP9lua_State
_ZN3app10sv_animcmd15AFTER_IMAGE_OFFEP9lua_State
_ZN3app10sv_animcmd16FILL_SCREEN_arg9EP9lua_State
_ZN3app10sv_animcmd23FILL_SCREEN_MODEL_COLOREP9lua_State
_ZN3app10sv_animcmd16COLOR_COLLECTIONEP9lua_State
_ZN3app10sv_animcmd18FILL_SCREEN_LEGACYEP9lua_State
_ZN3app10sv_animcmd18CANCEL_FILL_SCREENEP9lua_State
_ZN3app10sv_animcmd26REMOVE_FINAL_SCREEN_EFFECTEP9lua_State
_ZN3app10sv_animcmd6EFFECTEP9lua_State
_ZN3app10sv_animcmd11EFFECT_WORKEP9lua_State
_ZN3app10sv_animcmd16EFFECT_VARIATIONEP9lua_State
_ZN3app10sv_animcmd11EFFECT_ATTREP9lua_State
_ZN3app10sv_animcmd13EFFECT_GLOBALEP9lua_State
_ZN3app10sv_animcmd25EFFECT_GLOBAL_BACK_GROUNDEP9lua_State
_ZN3app10sv_animcmd41EFFECT_GLOBAL_BACK_GROUND_CENTER_TOP_NODEEP9lua_State
_ZN3app10sv_animcmd43EFFECT_GLOBAL_BACK_GROUND_CUT_IN_CENTER_POSEP9lua_State
_ZN3app10sv_animcmd17EFFECT_STENCIL_ONEP9lua_State
_ZN3app10sv_animcmd18EFFECT_STENCIL_OFFEP9lua_State
_ZN3app10sv_animcmd13EFFECT_WORK_REP9lua_State
_ZN3app10sv_animcmd13EFFECT_FOLLOWEP9lua_State
_ZN3app10sv_animcmd18EFFECT_FOLLOW_WORKEP9lua_State
_ZN3app10sv_animcmd23EFFECT_FOLLOW_VARIATIONEP9lua_State
_ZN3app10sv_animcmd30EFFECT_FOLLOW_UNSYNC_VIS_WHOLEEP9lua_State
_ZN3app10sv_animcmd10EFFECT_OFFEP9lua_State
_ZN3app10sv_animcmd18EFFECT_REMOVE_ATTREP9lua_State
_ZN3app10sv_animcmd14EFFECT_FLW_POSEP9lua_State
_ZN3app10sv_animcmd22EFFECT_FLW_POS_NO_STOPEP9lua_State
_ZN3app10sv_animcmd25EFFECT_FLW_POS_UNSYNC_VISEP9lua_State
_ZN3app10sv_animcmd21EFFECT_FLW_UNSYNC_VISEP9lua_State
_ZN3app10sv_animcmd18EFFECT_FOLLOW_FLIPEP9lua_State
_ZN3app10sv_animcmd24EFFECT_FOLLOW_FLIP_arg13EP9lua_State
_ZN3app10sv_animcmd26EFFECT_FOLLOW_NO_STOP_FLIPEP9lua_State
_ZN3app10sv_animcmd19EFFECT_FOLLOW_LIGHTEP9lua_State
_ZN3app10sv_animcmd11EFFECT_FLIPEP9lua_State
_ZN3app10sv_animcmd16EFFECT_LIGHT_ENDEP9lua_State
_ZN3app10sv_animcmd11FOOT_EFFECTEP9lua_State
_ZN3app10sv_animcmd14LANDING_EFFECTEP9lua_State
_ZN3app10sv_animcmd11DOWN_EFFECTEP9lua_State
_ZN3app10sv_animcmd21EFFECT_FOLLOW_NO_STOPEP9lua_State
_ZN3app10sv_animcmd19EFFECT_FOLLOW_COLOREP9lua_State
_ZN3app10sv_animcmd24EFFECT_FOLLOW_FLIP_COLOREP9lua_State
_ZN3app10sv_animcmd19EFFECT_FOLLOW_arg11EP9lua_State
_ZN3app10sv_animcmd19EFFECT_FOLLOW_arg12EP9lua_State
_ZN3app10sv_animcmd15EFFECT_OFF_KINDEP9lua_State
_ZN3app10sv_animcmd20EFFECT_OFF_KIND_WORKEP9lua_State
_ZN3app10sv_animcmd12EFFECT_COLOREP9lua_State
_ZN3app10sv_animcmd17EFFECT_COLOR_WORKEP9lua_State
_ZN3app10sv_animcmd12EFFECT_ALPHAEP9lua_State
_ZN3app10sv_animcmd19EFFECT_FOLLOW_ALPHAEP9lua_State
_ZN3app10sv_animcmd17EFFECT_FOLLOW_RNDEP9lua_State
_ZN3app10sv_animcmd22EFFECT_FOLLOW_RND_WORKEP9lua_State
_ZN3app10sv_animcmd22EFFECT_FOLLOW_FLIP_RNDEP9lua_State
_ZN3app10sv_animcmd17EFFECT_FLIP_ALPHAEP9lua_State
_ZN3app10sv_animcmd24EFFECT_FOLLOW_FLIP_ALPHAEP9lua_State
_ZN3app10sv_animcmd16FOOT_EFFECT_FLIPEP9lua_State
_ZN3app10sv_animcmd19LANDING_EFFECT_FLIPEP9lua_State
_ZN3app10sv_animcmd23EFFECT_BRANCH_SITUATIONEP9lua_State
_ZN3app10sv_animcmd10COL_NORMALEP9lua_State
_ZN3app10sv_animcmd5FLASHEP9lua_State
_ZN3app10sv_animcmd9FLASH_FRMEP9lua_State
_ZN3app10sv_animcmd13FLASH_NO_STOPEP9lua_State
_ZN3app10sv_animcmd10BURN_COLOREP9lua_State
_ZN3app10sv_animcmd16BURN_COLOR_FRAMEEP9lua_State
_ZN3app10sv_animcmd17BURN_COLOR_NORMALEP9lua_State
_ZN3app10sv_animcmd7COL_PRIEP9lua_State
_ZN3app10sv_animcmd31FLASH_SET_LAST_ATTACK_DIRECTIONEP9lua_State
_ZN3app10sv_animcmd20LAST_EFFECT_SET_RATEEP9lua_State
_ZN3app10sv_animcmd25LAST_EFFECT_SET_RATE_WORKEP9lua_State
_ZN3app10sv_animcmd23LAST_EFFECT_SET_SCALE_WEP9lua_State
_ZN3app10sv_animcmd21LAST_EFFECT_SET_COLOREP9lua_State
_ZN3app10sv_animcmd21LAST_EFFECT_SET_ALPHAEP9lua_State
_ZN3app10sv_animcmd35LAST_EFFECT_SET_DISABLE_SYSTEM_SLOWEP9lua_State
_ZN3app10sv_animcmd37LAST_EFFECT_SET_OFFSET_TO_CAMERA_FLATEP9lua_State
_ZN3app10sv_animcmd24LAST_EFFECT_SET_WORK_INTEP9lua_State
_ZN3app10sv_animcmd18EFFECT_DETACH_KINDEP9lua_State
_ZN3app10sv_animcmd23EFFECT_DETACH_KIND_WORKEP9lua_State
_ZN3app10sv_animcmd23LAST_PARTICLE_SET_COLOREP9lua_State
_ZN3app10sv_animcmd22EFFECT_FOLLOW_NO_SCALEEP9lua_State
_ZN3app10sv_animcmd21AFTER_IMAGE4_ON_arg29EP9lua_State
_ZN3app10sv_animcmd26AFTER_IMAGE4_ON_WORK_arg29EP9lua_State
_ZN3app10sv_animcmd49BACK_GROUND_EFFECT_STAGE_SET_HIDING_FOR_DIRECTIONEP9lua_State
_ZN3app10sv_animcmd17EFFECT_OFF_HANDLEEP9lua_State
_ZN3app10sv_animcmd24SCREEN_EFFECT_SLOW_WHOLEEP9lua_State
_ZN3app10sv_animcmd11ENABLE_AREAEP9lua_State
_ZN3app10sv_animcmd11UNABLE_AREAEP9lua_State
_ZN3app10sv_animcmd17AREA_WIND_2ND_RADEP9lua_State
_ZN3app10sv_animcmd22AREA_WIND_2ND_RAD_arg9EP9lua_State
_ZN3app10sv_animcmd13AREA_WIND_2NDEP9lua_State
_ZN3app10sv_animcmd19AREA_WIND_2ND_arg10EP9lua_State
_ZN3app10sv_animcmd10REVERSE_LREP9lua_State
_ZN3app10sv_animcmd8STICK_LREP9lua_State
_ZN3app10sv_animcmd10UPDATE_ROTEP9lua_State
_ZN3app10sv_animcmd7CORRECTEP9lua_State
_ZN3app10sv_animcmd6SA_SETEP9lua_State
_ZN3app10sv_animcmd7SET_AIREP9lua_State
_ZN3app10sv_animcmd16SET_RATE_ARTICLEEP9lua_State
_ZN3app10sv_animcmd18SET_RATE_ARTICLE_VEP9lua_State
_ZN3app10sv_animcmd18ADD_SPEED_NO_LIMITEP9lua_State
_ZN3app10sv_animcmd5CATCHEP9lua_State
_ZN3app10sv_animcmd9CLR_SPEEDEP9lua_State
_ZN3app10sv_animcmd9SET_SPEEDEP9lua_State
_ZN3app10sv_animcmd12SET_SPEED_EXEP9lua_State
_ZN3app10sv_animcmd9WHOLE_HITEP9lua_State
_ZN3app10sv_animcmd8HIT_NODEEP9lua_State
_ZN3app10sv_animcmd6HIT_NOEP9lua_State
_ZN3app10sv_animcmd13HIT_RESET_ALLEP9lua_State
_ZN3app10sv_animcmd16CAM_ZOOM_IN_arg5EP9lua_State
_ZN3app10sv_animcmd16CAM_ZOOM_IN_arg6EP9lua_State
_ZN3app10sv_animcmd17CAM_ZOOM_IN_FINALEP9lua_State
_ZN3app10sv_animcmd23CAM_ZOOM_IN_FINAL_arg13EP9lua_State
_ZN3app10sv_animcmd12CAM_ZOOM_OUTEP9lua_State
_ZN3app10sv_animcmd18CAM_ZOOM_OUT_FINALEP9lua_State
_ZN3app10sv_animcmd22REQ_FINAL_START_CAMERAEP9lua_State
_ZN3app10sv_animcmd27REQ_FINAL_START_CAMERA_arg3EP9lua_State
_ZN3app10sv_animcmd19CHECK_FINISH_CAMERAEP9lua_State
_ZN3app10sv_animcmd5QUAKEEP9lua_State
_ZN3app10sv_animcmd10QUAKE_STOPEP9lua_State
_ZN3app10sv_animcmd6SEARCHEP9lua_State
_ZN3app10sv_animcmd13SLOW_OPPONENTEP9lua_State
_ZN3app10sv_animcmd14FT_MOTION_RATEEP9lua_State
_ZN3app10sv_animcmd19FT_MOTION_INTP_WAITEP9lua_State
_ZN3app10sv_animcmd23FT_MOTION_INTP_TURN_ENDEP9lua_State
_ZN3app10sv_animcmd26FT_MOTION_CHANGE_HAVE_ITEMEP9lua_State
_ZN3app10sv_animcmd26FT_ATTACK_ABS_CAMERA_QUAKEEP9lua_State
_ZN3app10sv_animcmd33FT_START_ADJUST_MOTION_FRAME_arg1EP9lua_State
_ZN3app10sv_animcmd33ATK_NO_REACTION_SEARCH_WITCH_TIMEEP9lua_State
_ZN3app10sv_animcmd13FT_CATCH_STOPEP9lua_State
_ZN3app10sv_animcmd13FT_ADD_DAMAGEEP9lua_State
_ZN3app10sv_animcmd10RUMBLE_HITEP9lua_State
_ZN3app10sv_animcmd17RUMBLE_HIT_STATUSEP9lua_State
_ZN3app10sv_animcmd12RUMBLE_DUMMYEP9lua_State
_ZN3app10sv_animcmd19RUMBLE_FINAL_TARGETEP9lua_State
_ZN3app10sv_animcmd18RUMBLE_FINAL_OTHEREP9lua_State
_ZN3app10sv_animcmd10RUMBLE_ALLEP9lua_State
_ZN3app10sv_animcmd20START_INFO_FLASH_EYEEP9lua_State
_ZN3app10sv_animcmd30CHECK_VALID_FINAL_START_CAMERAEP9lua_State
_ZN3app10sv_animcmd14FT_START_CUTINEP9lua_State
_ZN3app10sv_animcmd19FT_START_CUTIN_arg1EP9lua_State
_ZN3app10sv_animcmd22FT_SET_FINAL_FEAR_FACEEP9lua_State
_ZN3app10sv_animcmd21FT_UPDATE_FACE_MOTIONEP9lua_State
_ZN3app10sv_animcmd20FT_REMOVE_FINAL_AURAEP9lua_State
_ZN3app10sv_animcmd24FT_SET_FINAL_SMASH_LIGHTEP9lua_State
_ZN3app10sv_animcmd27FT_IS_SAME_FIGHTER_CATEGORYEP9lua_State
_ZN3app10sv_animcmd21FT_LEAVE_NEAR_OTTOTTOEP9lua_State
_ZN3app10sv_animcmd7PLAY_SEEP9lua_State
_ZN3app10sv_animcmd13PLAY_SE_NO_3DEP9lua_State
_ZN3app10sv_animcmd30PLAY_SE_NO_3D_FORCE_AUTO_PITCHEP9lua_State
_ZN3app10sv_animcmd14PLAY_SE_REMAINEP9lua_State
_ZN3app10sv_animcmd11PLAY_STATUSEP9lua_State
_ZN3app10sv_animcmd7STOP_SEEP9lua_State
_ZN3app10sv_animcmd9PLAY_STEPEP9lua_State
_ZN3app10sv_animcmd19PLAY_STEP_FLIPPABLEEP9lua_State
_ZN3app10sv_animcmd15PLAY_LANDING_SEEP9lua_State
_ZN3app10sv_animcmd12PLAY_DOWN_SEEP9lua_State
_ZN3app10sv_animcmd13PLAY_SEQUENCEEP9lua_State
_ZN3app10sv_animcmd15PLAY_DAMAGESTOPEP9lua_State
_ZN3app10sv_animcmd24PLAY_SEQUENCE_DAMAGESTOPEP9lua_State
_ZN3app10sv_animcmd14SET_TAKEOUT_SEEP9lua_State
_ZN3app10sv_animcmd16SET_PLAY_INHIVITEP9lua_State
_ZN3app10sv_animcmd14REG_LANDING_SEEP9lua_State
_ZN3app10sv_animcmd14PLAY_FLY_VOICEEP9lua_State
_ZN3app10sv_animcmd21SET_TAKEOUT_SE_STATUSEP9lua_State
_ZN3app10sv_animcmd16GET_VOICE_REGIONEP9lua_State
_ZN3app10sv_animcmd19GET_VOICE_VARIATIONEP9lua_State
_ZN3app10sv_animcmd18PLAY_ITEM_EMPTY_SEEP9lua_State
_ZN3app10sv_animcmd18PLAY_SE_SET_HANDLEEP9lua_State
_ZN3app10sv_animcmd15THROW_ITEM_arg3EP9lua_State
_ZN3app10sv_animcmd17THROW_ITEM_REFLETEP9lua_State
_ZN3app10sv_animcmd17THROW_ITEM_OFFSETEP9lua_State
_ZN3app10sv_animcmd22THROW_ITEM_OFFSET_arg4EP9lua_State
_ZN3app10sv_animcmd17SHOOT_ITEM_BULLETEP9lua_State
_ZN3app10sv_animcmd24SHOOT_ITEM_BULLET_CHARGEEP9lua_State
_ZNK3app14AreaContactLog15store_l2c_tableEv
_ZN3lib8L2CValueD1Ev
_ZN3lib8L2CValueC1Ei
_ZNK3lib8L2CValueixEN3phx6Hash40E
_ZN3lib8L2CValueaSERKS0_
_ZN3lib8L2CValueC1ERKS0_
_ZN3lib8L2CValueC1Ef
_ZN3lib8L2CValueC1El
_ZN3lib8L2CValueC1Eb
_ZN3app18AttackAbsoluteData19load_from_l2c_tableERKN3lib8L2CValueE
_ZNK3lib8L2CValue7as_boolEv
_ZNK3app10AttackData15store_l2c_tableEv
_ZN3app10AttackData19load_from_l2c_tableERKN3lib8L2CValueE
_ZN3lib8L2CValueC1EPv
_ZNK3app10DamageInfo15store_l2c_tableERKN3lib8L2CValueE
_ZN3app10DamageInfo13new_l2c_tableEv
_ZN3app15stWaterAreaInfo19load_from_l2c_tableERKN3lib8L2CValueE
_ZNK3lib8L2CValue10as_pointerEv
_ZNK3app8Rhombus215store_l2c_tableEv
_ZNK3lib4Rect15store_l2c_tableEv
_ZN3lib4Rect19load_from_l2c_tableERKNS_8L2CValueE
_ZN3lib8L2CTableC1Ei
_ZN3lib8L2CValueC1EPNS_8L2CTableE
_ZNK3lib8L2CValue10as_integerEv
_ZNK3lib8L2CValue9as_numberEv
_ZTVN3app13LinkEventMaskE
_ZTVN3app22LinkEventCapturePulledE
_ZTVN3app20LinkEventCaptureItemE
_ZTVN3app24LinkEventCaptureMimikkyuE
_ZTVN3app22LinkEventCaptureDriverE
_ZTVN3app27GimmickEventTornadoMoveInfoE
_ZTVN3app28GimmickEventTornadoShootInfoE
_ZTVN3app25GimmickEventTornadoEscapeE
_ZTVN3app18GimmickEventLadderE
_ZTVN3app29GimmickEventDrumCheckNeedHideE
_ZTVN3app21GimmickEventDrumShakeE
_ZTVN3app22GimmickEventDrumEscapeE
_ZTVN3app25GimmickEventSlashLockInfoE
_ZTVN3app23GimmickEventSlashEscapeE
_ZN3app7sv_math4randEN3phx6Hash40Ei
_ZN3app7sv_math5randfEN3phx6Hash40Ef
_ZN3app7sv_math7is_zeroEf
_ZN3app7sv_math12vec2_is_zeroEff
_ZN3app7sv_math11vec2_lengthEff
_ZN3app7sv_math18vec2_length_squareEff
_ZN3app7sv_math10vec2_angleEffff
_ZN3app7sv_math8vec2_rotEfff
_ZN3app7sv_math14vec2_normalizeEff
_ZN3app7sv_math15vec2_reflectionEffff
_ZN3app7sv_math8vec2_dotEffff
_ZN3app7sv_math13vec2_distanceEffff
_ZN3app7sv_math12vec3_is_zeroEfff
_ZN3app7sv_math11vec3_lengthEfff
_ZN3app7sv_math18vec3_length_squareEfff
_ZN3app7sv_math8vec3_dotEffffff
_ZN3app7sv_math10vec3_crossEffffff
_ZN3app7sv_math14vec3_normalizeEfff
_ZN3app7sv_math13vec3_distanceEffffff
_ZN3app7sv_math9vec3_lerpEfffffff
_ZN3app7sv_math8vec3_rotEffffff
_ZN3app7sv_math4powfEff
_ZN3app7sv_math12bezier_curveEfffff
_ZN3app7sv_math18vec3_between_angleEfffffffff
_ZNK3app12StageManager27is_discretion_final_enabledEv
_ZN3app27WeaponSpecializer_MarioPump10set_chargeERNS_26BattleObjectModuleAccessorEf
_ZN3app32WeaponSpecializer_MarioHugeFlame14request_effectERNS_26BattleObjectModuleAccessorEN3phx6Hash40ERKNS3_8Vector3fE
_ZN3app30WeaponSpecializer_LinkBowarrow7to_itemERNS_26BattleObjectModuleAccessorE
_ZN3app31WeaponSpecializer_PikachuVortex22get_camera_clip_boundsEv
_ZN3app30WeaponSpecializer_LuigiPlunger20modify_physics_paramERNS_6WeaponE
_ZN3app30WeaponSpecializer_LuigiPlunger24modify_physics_param_2ndERNS_6WeaponE
_ZN3app30WeaponSpecializer_LuigiPlunger18update_joint_speedERNS_6WeaponEi
_ZN3app30WeaponSpecializer_NessYoyoHead28get_takeup_constraint_offsetERNS_26BattleObjectModuleAccessorERKN3phx8Vector3fE
_ZN3app29WeaponSpecializer_KoopaKoopaG15get_stage_paramERNS_26BattleObjectModuleAccessorE
_ZN3app28WeaponSpecializer_PopoCondor17get_reverse_rangeERNS_6WeaponE
_ZN3app28WeaponSpecializer_PopoCondor16get_unlink_rangeERNS_6WeaponE
_ZN3app25WeaponSpecializer_SnakeC417detach_constraintERNS_6WeaponEb
_ZN3app25WeaponSpecializer_SnakeC415stick_stage_rotERNS_26BattleObjectModuleAccessorE
_ZN3app25WeaponSpecializer_SnakeC49drop_fallERNS_6WeaponE
_ZN3app33WeaponSpecializer_PitChariotsight17calc_chariotsightEbff
_ZN3app33WeaponSpecializer_LucarioAuraball9set_scaleERNS_26BattleObjectModuleAccessorE
_ZN3app33WeaponSpecializer_RobotNarrowbeam8calc_posERNS_26BattleObjectModuleAccessorE
_ZN3app29WeaponSpecializer_RosettaTico21owner_module_accessorERNS_26BattleObjectModuleAccessorE
_ZN3app29WeaponSpecializer_RosettaTico7is_weakERNS_26BattleObjectModuleAccessorE
_ZN3app29WeaponSpecializer_RosettaTico13is_turn_delayERNS_26BattleObjectModuleAccessorE
_ZN3app35WeaponSpecializer_MurabitoFlowerpot14is_touch_asaseERNS_26BattleObjectModuleAccessorE
_ZN3app35WeaponSpecializer_MurabitoFlowerpot8is_waterERNS_26BattleObjectModuleAccessorE
_ZN3app40WeaponSpecializer_PalutenaExplosiveflame13is_touch_downERNS_6WeaponE
_ZN3app35WeaponSpecializer_GekkougaGekkougaS18set_link_final_endERNS_26BattleObjectModuleAccessorEb
_ZN3app35WeaponSpecializer_GekkougaGekkougaS20update_moon_positionERNS_26BattleObjectModuleAccessorE
_ZN3app35WeaponSpecializer_GekkougaGekkougaS19raise_moon_positionERNS_26BattleObjectModuleAccessorE
_ZN3app34WeaponSpecializer_MewtwoShadowball16set_effect_scaleERNS_26BattleObjectModuleAccessorEb
_ZN3app34WeaponSpecializer_ShizueFishingrod11start_shootERNS_26BattleObjectModuleAccessorERKN3phx8Vector3fEf
_ZN3app34WeaponSpecializer_ShizueFishingrod20is_float_touch_floorERNS_26BattleObjectModuleAccessorE
_ZN3app34WeaponSpecializer_ShizueFishingrod30get_float_touch_floor_materialERNS_26BattleObjectModuleAccessorE
_ZN3app34WeaponSpecializer_ShizueFishingrod14start_hit_reelERNS_26BattleObjectModuleAccessorE
_ZN3app34WeaponSpecializer_ShizueFishingrod28setup_physics_air_resistanceERNS_26BattleObjectModuleAccessorE
_ZN3app34WeaponSpecializer_ShizueFishingrod9start_cutERNS_26BattleObjectModuleAccessorE
_ZN3app34WeaponSpecializer_ShizueFishingrod13enable_searchERNS_26BattleObjectModuleAccessorEb
_ZN3app27WeaponSpecializer_SimonWhip21sleep_attack_by_speedERNS_6WeaponE
_ZN3app27WeaponSpecializer_SimonWhip9add_speedERNS_6WeaponEiff
_ZN3app27WeaponSpecializer_SimonWhip22set_node_fix_flag_listERNS_6WeaponEiiiiiiiiiiiiiiiiiiiiiiiiiiiiii
_ZN3app27WeaponSpecializer_SimonWhip24reset_node_fix_flag_listERNS_6WeaponE
_ZN3app27WeaponSpecializer_SimonWhip15set_2nd_gravityERNS_6WeaponEf
_ZN3app27WeaponSpecializer_SimonWhip22set_2nd_air_resistanceERNS_6WeaponEf
_ZN3app27WeaponSpecializer_SimonWhip22set_chain_2_visibilityERNS_6WeaponEb
_ZN3app26WeaponSpecializer_SimonAxe22set_map_collision_dataERNS_6WeaponEi
_ZN3app34WeaponSpecializer_PTrainerPTrainer22request_change_pokemonERNS_6WeaponE
_ZN3app34WeaponSpecializer_PTrainerPTrainer11wait_motionERNS_6WeaponE
_ZN3app34WeaponSpecializer_PTrainerPTrainer11owner_stockERNS_6WeaponE
_ZN3app34WeaponSpecializer_PTrainerPTrainer10play_voiceERNS_6WeaponEi
_ZN3app34WeaponSpecializer_PTrainerPTrainer20display_final_windowERNS_6WeaponEi
_ZTVN3app32LinkEventYoshiTamagoDamageEffectE
_ZTVN3app46FighterPikminLinkEventWeaponPikminChangeStatusE
_ZTVN3app46FighterPikminLinkEventWeaponPikminChangeMotionE
_ZTVN3app40FighterPikminLinkEventWeaponPikminSyncLRE
_ZTVN3app41FighterPikminLinkEventWeaponPikminSyncPosE
_ZTVN3app44FighterPikminLinkEventWeaponPikminConstraintE
_ZTVN3app40FighterPikminLinkEventWeaponPikminOnFlagE
_ZTVN3app40FighterPikminLinkEventWeaponPikminSetIntE
_ZTVN3app42FighterPikminLinkEventWeaponPikminSetFloatE
_ZTVN3app51FighterPikminLinkEventWeaponPikminSetPowerMulStatusE
_ZTVN3app37WeaponRobotHominglaserLinkEventSearchE
_ZTVN3app36WeaponRobotHominglaserLinkEventBurstE
_ZTVN3app34FighterRyuLinkEventFinalDeadDamageE
_ZTVN3app34FighterRyuLinkEventFinalMoveTargetE
_ZTVN3app26FighterCloudLinkEventFinalE
_ZTVN3app28FighterInklingLinkEventPaintE
_ZTVN3app36WeaponShizueFishingrodLinkEventCliffE
_ZTVN3app36WeaponShizueFishingrodLinkEventShootE
_ZTVN3app35WeaponShizueFishingrodLinkEventReelE
_ZTVN3app34WeaponShizueFishingrodLinkEventCutE
_ZTVN3app28FighterRidleyLinkEventMotionE
_ZN2nn2ro18RegisterModuleInfoEPNS0_16RegistrationInfoEPKv
_ZN2nn2ro20UnregisterModuleInfoEPNS0_16RegistrationInfoE
_ZN2nn2ro13GetBufferSizeEPmPKv
_ZN2nn2ro10LoadModuleEPNS0_6ModuleEPKvPvmi
_ZN2nn2ro12UnloadModuleEPNS0_6ModuleE
strncmp
__cxa_deleted_virtual
printf
strncpy
atoi
sscanf
_ZNSt3__112basic_stringIcNS_11char_traitsIcEENS_9allocatorIcEEE5eraseEmm
_ZNSt3__1plIcNS_11char_traitsIcEENS_9allocatorIcEEEENS_12basic_stringIT_T0_T1_EEPKS6_RKS9_
tolower
strstr
_ZN2nn4util6detail16AtanCoefficientsE
_ZN2nn4util8Vector4f13ConstantUnitYE
_ZNSt3__112basic_stringIcNS_11char_traitsIcEENS_9allocatorIcEEE9push_backEc
strcpy
strchr
_ZNSt3__113basic_ostreamIcNS_11char_traitsIcEEElsEi
_ZNSt3__19basic_iosIcNS_11char_traitsIcEEED2Ev
_ZNSt3__113basic_ostreamIcNS_11char_traitsIcEEED1Ev
_ZNSt3__113basic_ostreamIcNS_11char_traitsIcEEED0Ev
_ZTv0_n24_NSt3__113basic_ostreamIcNS_11char_traitsIcEEED1Ev
_ZTv0_n24_NSt3__113basic_ostreamIcNS_11char_traitsIcEEED0Ev
_ZNSt3__113basic_ostreamIcNS_11char_traitsIcEEED2Ev
_ZNSt3__115basic_streambufIcNS_11char_traitsIcEEED2Ev
_ZNSt3__115basic_streambufIcNS_11char_traitsIcEEE5imbueERKNS_6localeE
_ZNSt3__115basic_streambufIcNS_11char_traitsIcEEE6setbufEPcl
_ZNSt3__115basic_streambufIcNS_11char_traitsIcEEE4syncEv
_ZNSt3__115basic_streambufIcNS_11char_traitsIcEEE9showmanycEv
_ZNSt3__115basic_streambufIcNS_11char_traitsIcEEE6xsgetnEPcl
_ZNSt3__115basic_streambufIcNS_11char_traitsIcEEE5uflowEv
_ZNSt3__115basic_streambufIcNS_11char_traitsIcEEE6xsputnEPKcl
_ZNSt3__112basic_stringIcNS_11char_traitsIcEENS_9allocatorIcEEE6resizeEmc
_ZNSt3__18ios_base4initEPv
_ZNSt3__115basic_streambufIcNS_11char_traitsIcEEEC2Ev
_ZNSt3__112basic_stringIcNS_11char_traitsIcEENS_9allocatorIcEEE6insertEmPKc
memchr
fopen
fwrite
fread
fclose
_ZNSt3__113basic_ostreamIcNS_11char_traitsIcEEE6sentryC1ERS3_
_ZNSt3__113basic_ostreamIcNS_11char_traitsIcEEE6sentryD1Ev
_ZNKSt3__18ios_base6getlocEv
_ZNSt3__16localeD1Ev
_ZNKSt3__16locale9use_facetERNS0_2idE
_ZNSt3__18ios_base5clearEj
_ZNSt3__15ctypeIcE2idE
_ZN3phx5Fiber17get_current_fiberEv
_ZNSt3__16chrono12system_clock3nowEv
_ZNSt3__118condition_variable15__do_timed_waitERNS_11unique_lockINS_5mutexEEENS_6chrono10time_pointINS5_12system_clockENS5_8durationIxNS_5ratioILl1ELl1000000000EEEEEEE
_ZNSt3__117__assoc_sub_state10__sub_waitERNS_11unique_lockINS_5mutexEEE
_ZNSt13exception_ptrD1Ev
_ZSt17rethrow_exceptionSt13exception_ptr
_ZNSt13exception_ptrC1ERKS_
_ZNSt3__15mutex8try_lockEv
_ZNK2nn3err18ErrorResultVariantcvNS_6ResultEEv
_ZNK3lib7utility8Variadic10get_formatEv
_ZN7lua2cpp43create_agent_fighter_status_script_ptrainerEN3phx6Hash40EPN3app12BattleObjectEPNS2_26BattleObjectModuleAccessorEP9lua_State
_ZN7lua2cpp42create_agent_fighter_animcmd_game_ptrainerEN3phx6Hash40EPN3app12BattleObjectEPNS2_26BattleObjectModuleAccessorEP9lua_State
_ZN7lua2cpp44create_agent_fighter_animcmd_effect_ptrainerEN3phx6Hash40EPN3app12BattleObjectEPNS2_26BattleObjectModuleAccessorEP9lua_State
_ZN7lua2cpp43create_agent_fighter_animcmd_sound_ptrainerEN3phx6Hash40EPN3app12BattleObjectEPNS2_26BattleObjectModuleAccessorEP9lua_State
strrchr
_ZN2nn2fs12SetAllocatorEPFPvmEPFvS1_mE
_ZnamRKSt9nothrow_t
realloc
calloc
aligned_alloc
_ZN2nn2os10TryWaitAnyEPNS0_13MultiWaitTypeE
_ZN2nn2os19InitializeMultiWaitEPNS0_13MultiWaitTypeE
_ZN2nn2os25InitializeMultiWaitHolderEPNS0_19MultiWaitHolderTypeEPNS0_10ThreadTypeE
_ZN2nn2os19LinkMultiWaitHolderEPNS0_13MultiWaitTypeEPNS0_19MultiWaitHolderTypeE
_ZN2nn2os21UnlinkMultiWaitHolderEPNS0_19MultiWaitHolderTypeE
_ZN2nn2os23FinalizeMultiWaitHolderEPNS0_19MultiWaitHolderTypeE
_ZN2nn2os17FinalizeMultiWaitEPNS0_13MultiWaitTypeE
_ZN2nn2os15AllocateTlsSlotEPNS0_7TlsSlotEPFvmE
_ZN2nn2os11FreeTlsSlotENS0_7TlsSlotE
_ZN2nn2os11GetTlsValueENS0_7TlsSlotE
_ZN2nn2os11SetTlsValueENS0_7TlsSlotEm
bsearch
_ZN2nn2os20InitializeLightEventEPNS0_14LightEventTypeEbNS0_14EventClearModeE
_ZN2nn2os15ClearLightEventEPNS0_14LightEventTypeE
_ZN2nn2os14WaitLightEventEPNS0_14LightEventTypeE
_ZN2nn2os16SignalLightEventEPNS0_14LightEventTypeE
_ZN2nn2os18FinalizeLightEventEPNS0_14LightEventTypeE
_ZN2nn2os13GetSystemTickEv
_ZN2nn3aoc17CountAddOnContentEv
_ZN2nn3aoc16ListAddOnContentEPiii
_ZN2nn2os17ConvertToTimeSpanENS0_4TickE
_ZNKSt3__121__basic_string_commonILb1EE20__throw_out_of_rangeEv
_ZNK2nn4util16BinaryFileHeader11GetFileSizeEv
_ZNK2nn4util16BinaryFileHeader12GetAlignmentEv
_ZN2nn4util16BinaryFileHeader13GetFirstBlockEv
_ZNSt3__17promiseIvEC1Ev
_ZNSt3__17promiseIvE10get_futureEv
_ZNSt3__16futureIvED1Ev
_ZNSt3__17promiseIvED1Ev
_ZNSt3__17promiseIvE9set_valueEv
_ZNSt3__16localeC1Ev
_ZNKSt3__16localeeqERKS0_
_ZNSt3__16locale7classicEv
_ZNSt3__112basic_stringIcNS_11char_traitsIcEENS_9allocatorIcEEE9__grow_byEmmmmmm
_ZNSt3__18numpunctIcE2idE
_ZNSt3__118condition_variable10notify_allEv
_ZNSt3__118condition_variable4waitERNS_11unique_lockINS_5mutexEEE
_ZNSt3__118condition_variableD1Ev
_ZNSt3__112future_errorC1ENS_10error_codeE
_ZNSt3__115future_categoryEv
_ZNSt3__117__assoc_sub_state9__executeEv
_ZNSt3__114__shared_countD2Ev
_ZTVNSt3__117__assoc_sub_stateE
_ZNSt3__113basic_ostreamIcNS_11char_traitsIcEEElsEm
_ZN2nn2os13FinalizeMutexEPNS0_9MutexTypeE
atof
strtoul
_ZNSt9exceptionD2Ev
strtoull
_ZNSt12out_of_rangeD1Ev
_ZNSt12out_of_rangeD2Ev
_ZTVSt12out_of_range
_ZN2nn3hid14InitializeNpadEv
_ZN2nn3hid24SetSupportedNpadStyleSetENS_4util10BitFlagSetILi32ENS0_12NpadStyleTagEEE
_ZN2nn3hid22SetSupportedNpadIdTypeEPKjm
_ZN2nn3hid18SetNpadJoyHoldTypeENS0_15NpadJoyHoldTypeE
_ZN2nn3hid20GetNpadJoyAssignmentERKj
_ZN2nn3hid30SetNpadJoyAssignmentModeSingleERKjNS0_17NpadJoyDeviceTypeE
_ZN2nn3hid30SetNpadJoyAssignmentModeSingleERKj
_ZN2nn3hid28SetNpadJoyAssignmentModeDualERKj
_ZN2nn3hid23MergeSingleJoyAsDualJoyERKjS2_
_ZN2nn3hid18SwapNpadAssignmentERKjS2_
_ZN2nn3hid19GetPlayerLedPatternERKj
_ZN2nn3hid15GetNpadStyleSetERKj
_ZN2nn3hid12GetNpadStateEPNS0_16NpadFullKeyStateERKj
_ZN2nn3hid12GetNpadStateEPNS0_16NpadJoyDualStateERKj
_ZN2nn3hid12GetNpadStateEPNS0_16NpadJoyLeftStateERKj
_ZN2nn3hid12GetNpadStateEPNS0_17NpadJoyRightStateERKj
_ZN2nn3hid12GetNpadStateEPNS0_11NpadGcStateERKj
_ZN2nn3hid22GetNpadControllerColorEPNS0_19NpadControllerColorES2_RKj
_ZN2nn3hid22GetNpadControllerColorEPNS0_19NpadControllerColorERKj
_ZN2nn3hid12GetNpadStateEPNS0_17NpadHandheldStateERKj
_ZN2nn3hid21InitializeTouchScreenEv
_ZN2nn3hid19GetTouchScreenStateILm16EEEvPNS0_16TouchScreenStateIXT_EEE
_ZN2nn3hid6NpadId8HandheldE
_ZN2nn3hid21StartLrAssignmentModeEv
_ZN2nn3hid20StopLrAssignmentModeEv
_ZN2nn3hid21GetSixAxisSensorStateEPNS0_18SixAxisSensorStateERKNS0_19SixAxisSensorHandleE
_ZNK2nn3hid18SixAxisSensorState13GetQuaternionEPNS_4util4neon12Vector4fTypeE
_ZN2nn3hid21IsSixAxisSensorAtRestERKNS0_19SixAxisSensorHandleE
_ZN2nn3hid23GetSixAxisSensorHandlesEPNS0_19SixAxisSensorHandleEiRKjNS_4util10BitFlagSetILi32ENS0_12NpadStyleTagEEE
_ZN2nn3hid18StartSixAxisSensorERKNS0_19SixAxisSensorHandleE
_ZN2nn3hid22GetVibrationDeviceInfoEPNS0_19VibrationDeviceInfoERKNS0_21VibrationDeviceHandleE
_ZN2nn3hid18SendVibrationValueERKNS0_21VibrationDeviceHandleERKNS0_14VibrationValueE
_ZN2nn3hid25SendVibrationGcErmCommandERKNS0_21VibrationDeviceHandleERKNS0_21VibrationGcErmCommandE
_ZN2nn3hid23GetActualVibrationValueEPNS0_14VibrationValueERKNS0_21VibrationDeviceHandleE
_ZN2nn3hid30GetActualVibrationGcErmCommandEPNS0_21VibrationGcErmCommandERKNS0_21VibrationDeviceHandleE
_ZN2nn3hid25GetVibrationDeviceHandlesEPNS0_21VibrationDeviceHandleEiRKjNS_4util10BitFlagSetILi32ENS0_12NpadStyleTagEEE
_ZN2nn3hid25InitializeVibrationDeviceERKNS0_21VibrationDeviceHandleE
srand
_ZNSt3__16__sortIRNS_6__lessIyyEEPyEEvT0_S5_T_
_ZN5movie12SetAllocatorEPFPvmmS0_EPFvS0_S0_EPFS0_S0_mS0_ES0_
_ZN5movie11SetCoreMaskEm
_ZN5movie17SetThreadPriorityEi
_ZN2nn2os15InitializeEventEPNS0_9EventTypeEbNS0_14EventClearModeE
_ZN2nn2os25InitializeMultiWaitHolderEPNS0_19MultiWaitHolderTypeEPNS0_9EventTypeE
_ZN2nn2os26SetMultiWaitHolderUserDataEPNS0_19MultiWaitHolderTypeEm
_ZN2nn2os26GetMultiWaitHolderUserDataEPKNS0_19MultiWaitHolderTypeE
_ZN2nn2os13FinalizeEventEPNS0_9EventTypeE
_ZN2nn2os10ClearEventEPNS0_9EventTypeE
_ZN2nn5album25PrecheckToStartMovieMakerEm
_ZN2nn5album10InitializeEv
_ZN2nn5album8FinalizeEv
_ZN2nn5album27EncodeMovieMakerAudioSampleEPKvm
_ZN2nn5album20CheckMovieMakerErrorEv
_ZN2nn5album15AbortMovieMakerEv
_ZN2nn5album35GetMovieMakerRequiredWorkMemorySizeEv
_ZN2nn5album40GetMovieMakerRequiredWorkMemoryAlignmentEv
_ZN2nn5album20InitializeMovieMakerEPvm
_ZN2nn5album24MovieMakerMovieParameter13SetVideoWidthEi
_ZN2nn5album24MovieMakerMovieParameter14SetVideoHeightEi
_ZN2nn5album24MovieMakerMovieParameter17SetVideoFrameRateEi
_ZN2nn5album24MovieMakerMovieParameter24SetVideoKeyFrameIntervalEi
_ZN2nn5album24MovieMakerMovieParameter15SetVideoBitRateEi
_ZN2nn5album24MovieMakerMovieParameter15SetAudioBitRateEi
_ZN2nn5album24MovieMakerMovieParameter18SetAudioSampleRateEi
_ZN2nn5album24MovieMakerMovieParameter20SetAudioChannelCountEi
_ZN2nn5album15StartMovieMakerERKNS0_24MovieMakerMovieParameterE
_ZN2nn5album16FinishMovieMakerEPKvmS2_mNS0_9ImageSizeE
_ZN2nn5album16FinishMovieMakerEPKvm
_ZN2nn5album19IsMovieMakerRunningEv
_ZN2nn2os11SleepThreadENS_8TimeSpanE
_ZN2nn5album18FinalizeMovieMakerEv
_ZN2nn5album25GetMovieMakerNativeWindowEPPv
_ZN2nn5album14SaveScreenshotEPKvmNS0_9ImageSizeENS0_17AlbumReportOptionE
_ZN2nn2os11SignalEventEPNS0_9EventTypeE
_ZN2nn2os10WaitThreadEPNS0_10ThreadTypeE
_ZN2nn2os13DestroyThreadEPNS0_10ThreadTypeE
_ZN2nn2os12CreateThreadEPNS0_10ThreadTypeEPFvPvES3_S3_mi
_ZN2nn2os13SetThreadNameEPNS0_10ThreadTypeEPKc
_ZN2nn2os11StartThreadEPNS0_10ThreadTypeE
_ZN5movie6BufferC1Ev
_ZN5movie6BufferD1Ev
_ZN2nn2os16SendMessageQueueEPNS0_16MessageQueueTypeEm
_ZN2nn2os20FinalizeMessageQueueEPNS0_16MessageQueueTypeE
_ZN2nn2os22InitializeMessageQueueEPNS0_16MessageQueueTypeEPmm
_ZNK5movie6Buffer4SizeEv
_ZNK5movie6Buffer6OffsetEv
_ZN2nn2os17SetThreadCoreMaskEPNS0_10ThreadTypeEim
_ZN2nn2os16GetCurrentThreadEv
_ZN2nn2os24TimedReceiveMessageQueueEPmPNS0_16MessageQueueTypeENS_8TimeSpanE
_ZN5movie6BufferC1Em
_ZN5movie6Buffer8SetRangeEii
_ZN5movie6BufferC1EPvm
_ZNK5movie6Buffer4BaseEv
_ZNK5movie6Buffer13GetUint32DataEv
_ZNK5movie6Buffer12GetInt64DataEv
_ZNK5movie6Buffer8CapacityEv
_ZN5movie6Buffer12SetInt64DataEl
_ZN5movie6Buffer13SetUint32DataEj
_ZN5movie6Buffer12SetInt32DataEi
_ZN5movie6BufferC1ERKS0_
_ZN5movie6BufferaSERKS0_
_ZN2nn2os14TimedWaitEventEPNS0_9EventTypeENS_8TimeSpanE
_ZN2nn2os7WaitAnyEPNS0_13MultiWaitTypeE
_ZN5movie9MediaDataC1Ev
_ZNK5movie9MediaData9FindInt32EPKcPi
_ZN5movie9MediaData5ClearEv
_ZN5movie9MediaDataD1Ev
_ZNK5movie9MediaData10FindStringEPKcPS2_
strncasecmp
_ZN5movie7DecoderC1ENS_11DecoderTypeENS_19DecoderOutputFormatENS_11DecoderModeEi
_ZN5movie9MediaData8SetInt32EPKci
_ZN5movie9ExtractorC1ENS_13ContainerTypeE
_ZNK5movie9MediaData9FindInt64EPKcPl
_ZNSt3__112basic_stringIcNS_11char_traitsIcEENS_9allocatorIcEEEC1ERKS5_mmRKS4_
_ZN2nn5album20OpenAlbumMovieStreamEPNS0_17MovieStreamHandleERKNS0_14AlbumFileEntryE
_ZN2nn2fs8OpenFileEPNS0_10FileHandleEPKci
_ZN2nn2fs11GetFileSizeEPlNS0_10FileHandleE
_ZN2nn5album20ReadAlbumMovieStreamEPmPvmNS0_17MovieStreamHandleEl
_ZN2nn2fs8ReadFileEPmNS0_10FileHandleElPvm
_ZN2nn5album21CloseAlbumMovieStreamENS0_17MovieStreamHandleE
_ZN2nn2fs9CloseFileENS0_10FileHandleE
_ZN2nn5album23GetAlbumMovieStreamSizeEPmNS0_17MovieStreamHandleE
_ZN5movie6Buffer18SetDataAndCapacityEPvm
_ZN2nn3mem17StandardAllocatorC1Ev
_ZN2nn3mem17StandardAllocator8FinalizeEv
_ZN2nn3mem17StandardAllocator10InitializeEPvm
_ZN2nn3mem17StandardAllocator8AllocateEmm
_ZN2nn3mem17StandardAllocator4FreeEPv
_ZNK2nn3mem17StandardAllocator16GetTotalFreeSizeEv
_ZN2nn4bcat10InitializeEv
_ZN2nn4bcat25MountDeliveryCacheStorageEv
_ZN2nn4bcat31EnumerateDeliveryCacheDirectoryEPiPNS0_13DirectoryNameEi
_ZN2nn4bcat22DeliveryCacheDirectoryC1Ev
_ZN2nn4bcat22DeliveryCacheDirectory4OpenERKNS0_13DirectoryNameE
_ZN2nn4bcat22DeliveryCacheDirectory4ReadEPiPNS0_27DeliveryCacheDirectoryEntryEi
_ZN2nn4bcat22DeliveryCacheDirectory5CloseEv
_ZN2nn4bcat22DeliveryCacheDirectoryD1Ev
_ZN2nn4bcat27UnmountDeliveryCacheStorageEv
_ZN2nn4bcat24RequestSyncDeliveryCacheEPNS0_21DeliveryCacheProgressE
_ZN2nn4bcat24RequestSyncDeliveryCacheEPNS0_21DeliveryCacheProgressEPKc
_ZN2nn4bcat21DeliveryCacheProgress6UpdateEv
_ZNK2nn4bcat21DeliveryCacheProgress9GetStatusEv
_ZNK2nn4bcat21DeliveryCacheProgress13GetWholeTotalEv
_ZNK2nn4bcat21DeliveryCacheProgress18GetWholeDownloadedEv
_ZNK2nn4bcat21DeliveryCacheProgress9GetResultEv
_ZN2nn4bcat17DeliveryCacheFileC1Ev
_ZN2nn4bcat17DeliveryCacheFile4OpenERKNS0_13DirectoryNameERKNS0_8FileNameE
_ZN2nn4bcat17DeliveryCacheFile4ReadEPmlPvm
_ZN2nn4bcat17DeliveryCacheFile5CloseEv
_ZN2nn4bcat17DeliveryCacheFileD1Ev
_ZN2nn4bcat21DeliveryCacheProgressC1Ev
_ZN2nn4bcat21DeliveryCacheProgressD1Ev
_ZN2nn3ldn14GetNetworkInfoEPNS0_11NetworkInfoE
_ZN2nn3ldn10InitializeEv
_ZN2nn3ldn8FinalizeEv
_ZN2nn3err18ErrorResultVariantaSERKNS_6ResultE
_ZN2nn6socket10InitializeEPvmmi
_ZN2nn6socket8FinalizeEv
_ZN2nn2os13ConvertToTickENS_8TimeSpanE
_ZN2nn3nfp8GetStateEv
_ZN2nn3nfp10InitializeEv
_ZN2nn3nfp29AttachAvailabilityChangeEventEPNS_2os15SystemEventTypeE
_ZN2nn2os18DestroySystemEventEPNS0_15SystemEventTypeE
_ZN2nn2os16ClearSystemEventEPNS0_15SystemEventTypeE
_ZN2nn3nfp8FinalizeEv
_ZN2nn3nfp11ListDevicesEPNS0_12DeviceHandleEPii
_ZN2nn3nfp9GetNpadIdEPjRKNS0_12DeviceHandleE
_ZN2nn3nfp19AttachActivateEventEPNS_2os15SystemEventTypeERKNS0_12DeviceHandleE
_ZN2nn3nfp21AttachDeactivateEventEPNS_2os15SystemEventTypeERKNS0_12DeviceHandleE
_ZN2nn3nfp14StartDetectionERKNS0_12DeviceHandleE
_ZN2nn3nfp13StopDetectionERKNS0_12DeviceHandleE
_ZN2nn3nfp5MountERKNS0_12DeviceHandleENS0_9ModelTypeE
_ZN2nn3nfp7UnmountERKNS0_12DeviceHandleE
_ZN2nn3nfp19OpenApplicationAreaERKNS0_12DeviceHandleEj
_ZN2nn3nfp18GetApplicationAreaEPvPmRKNS0_12DeviceHandleEm
_ZN2nn3nfp18SetApplicationAreaERKNS0_12DeviceHandleEPKvm
_ZN2nn3nfp23RecreateApplicationAreaERKNS0_12DeviceHandleERKNS0_25ApplicationAreaCreateInfoE
_ZN2nn3nfp5FlushERKNS0_12DeviceHandleE
_ZN2nn3nfp7RestoreERKNS0_12DeviceHandleE
_ZN2nn3nfp21CreateApplicationAreaERKNS0_12DeviceHandleERKNS0_25ApplicationAreaCreateInfoE
_ZN2nn3nfp10GetTagInfoEPNS0_7TagInfoERKNS0_12DeviceHandleE
_ZN2nn3nfp15GetRegisterInfoEPNS0_12RegisterInfoERKNS0_12DeviceHandleE
_ZN2nn3nfp13GetCommonInfoEPNS0_10CommonInfoERKNS0_12DeviceHandleE
_ZN2nn3nfp12GetModelInfoEPNS0_9ModelInfoERKNS0_12DeviceHandleE
_ZN2nn3nfp29StartNicknameAndOwnerSettingsEPNS0_12DeviceHandleEPbPNS0_12RegisterInfoERKNS0_24AmiiboSettingsStartParamERKNS0_7TagInfoE
_ZN2nn3nfp29StartNicknameAndOwnerSettingsEPNS0_12DeviceHandleEPbPNS0_12RegisterInfoERKNS0_24AmiiboSettingsStartParamERKNS0_7TagInfoERKS4_
_ZN2nn3nfp13StartRestorerEPNS0_12DeviceHandleERKNS0_24AmiiboSettingsStartParamERKNS0_7TagInfoE
_ZN2nn3nfp19StartGameDataEraserEPNS0_12DeviceHandleERKNS0_24AmiiboSettingsStartParamERKNS0_7TagInfoE
_ZN2nn3nfp14GetDeviceStateERKNS0_12DeviceHandleE
_ZN2nn2os18TryWaitSystemEventEPNS0_15SystemEventTypeE
_ZN2nn2fs17MountCacheStorageEPKc
_ZN2nn2fs14EnsureSaveDataERKNS_7account3UidE
_ZN2nn2fs7UnmountEPKc
_ZN2nn2fs13MountSaveDataEPKcRKNS_7account3UidE
_ZN2nn2fs15GetSaveDataSizeEPlS1_RKNS_7account3UidE
_ZN2nn2fs18IsSaveDataExistingERKNS_7account3UidE
_ZN2nn2fs12GetEntryTypeEPNS0_18DirectoryEntryTypeEPKc
_ZN2nn2fs10DeleteFileEPKc
_ZN2nn2fs6CommitEPKc
_ZN2nn4diag6detail9AbortImplEPKcS3_S3_i
_ZN2nn2fs10CreateFileEPKcl
_ZN2nn2fs9WriteFileENS0_10FileHandleElPKvmRKNS0_11WriteOptionE
_ZN3lib8L2CAgentC2EP9lua_State
_ZN3lib8L2CAgentD2Ev
_ZN3lib8L2CAgent20sv_set_function_hashEPvN3phx6Hash40E
_ZN3lib8L2CAgent15clear_lua_stackEv
_ZN3lib8L2CAgent14push_lua_stackERKNS_8L2CValueE
_ZNK3lib8L2CValue9as_stringEv
_ZN3lib8L2CAgent13pop_lua_stackEi
_ZN3lib8L2CValueC1EPKc
_ZN3lib8L2CValueC1Ev
_ZN3lib8L2CAgent12setmetatableENS_8L2CValueERKS1_
_ZNK3lib8L2CValue8as_tableEv
_ZN3lib8L2CAgent4sortERKNS_8L2CValueE
_ZN3lib8L2CAgent4sortERKNS_8L2CValueES3_
_ZN3lib8L2CAgent5pairsERKNS_8L2CValueE
_ZN3lib8L2CValueC1EN3phx6Hash40E
_ZN3lib8L2CAgent6ipairsERKNS_8L2CValueE
_ZN3lib8L2CAgent6insertERKNS_8L2CValueES3_
_ZN3lib8L2CAgent6removeERKNS_8L2CValueES3_
_ZN3lib8L2CAgent8math_absERKNS_8L2CValueE
_ZN3lib8L2CAgent8math_sinERKNS_8L2CValueE
_ZN3lib8L2CAgent8math_cosERKNS_8L2CValueE
_ZN3lib8L2CAgent8math_tanERKNS_8L2CValueE
_ZN3lib8L2CAgent9math_acosERKNS_8L2CValueE
_ZN3lib8L2CAgent9math_atanERKNS_8L2CValueES3_
_ZN3lib8L2CAgent10math_tointERKNS_8L2CValueE
_ZN3lib8L2CAgent10math_floorERKNS_8L2CValueE
_ZN3lib8L2CAgent9math_ceilERKNS_8L2CValueE
_ZN3lib8L2CAgent9math_sqrtERKNS_8L2CValueE
_ZN3lib8L2CAgent8math_logERKNS_8L2CValueES3_
_ZN3lib8L2CAgent8math_degERKNS_8L2CValueE
_ZN3lib8L2CAgent8math_radERKNS_8L2CValueE
_ZN3lib8L2CAgent8math_minERKNS_8L2CValueES3_
_ZNK3lib8L2CValueltERKS0_
_ZN3lib8L2CAgent8math_maxERKNS_8L2CValueES3_
_ZNK3lib8L2CValuemlERKS0_
_ZNK3lib8L2CValuedvERKS0_
_ZNK3lib8L2CValue17as_inner_functionEv
_ZN3lib8L2CValue3NILE
_ZN3lib8L2CAgent7math_piE
_ZN3lib8L2CAgent9math_hugeE
_ZN3lib8L2CAgent12math_FLT_MAXE
_ZN3lib8L2CTable14find_metatableERKN3phx6Hash40E
_ZNK3lib8L2CValuecvbEv
_ZNK3lib8L2CValueeqERKS0_
_ZNK3lib8L2CValueleERKS0_
_ZNK3lib8L2CValuengEv
_ZNK3lib8L2CValuecoEv
_ZNK3lib8L2CValuentEv
_ZNK3lib8L2CValueplERKS0_
_ZNK3lib8L2CValue9to_stringEv
_ZNK3lib8L2CValuemiERKS0_
_ZNK3lib8L2CValuermERKS0_
_ZNK3lib8L2CValueanERKS0_
_ZNK3lib8L2CValueorERKS0_
_ZNK3lib8L2CValueeoERKS0_
_ZNK3lib8L2CValuelsERKS0_
_ZNK3lib8L2CValuersERKS0_
_ZNK3lib8L2CValueixEi
_ZNK3lib8L2CValueixERKS0_
_ZNK3lib8L2CValue7as_hashEv
_ZNK3lib8L2CValue6lengthEv
_ZN3lib8L2CValue13push_variadicEmPKcRNS_7utility8VariadicE
_ZN3lib8L2CValue12pop_variadicERPKcRSt9__va_list
_ZN3lib8L2CValueC1Ej
_ZN3lib8L2CValueC1Em
_ZN3lib8L2CValueC1EPNS_20L2CInnerFunctionBaseE
_ZNSt3__115recursive_mutex8try_lockEv
_ZN2nn5audio39AcquireAudioDeviceNotificationForOutputEPNS_2os11SystemEventE
_ZN2nn5audio26SetAudioDeviceOutputVolumeEPKNS0_15AudioDeviceNameEf
_ZN2nn2os20TimedWaitSystemEventEPNS0_15SystemEventTypeENS_8TimeSpanE
_ZN2nn4time19StandardSteadyClock3nowEv
_ZN2nn4time11IsValidDateEiii
_ZN2nn4time18ToPosixTimeFromUtcERKNS0_12CalendarTimeE
_ZN2nn4time11ToPosixTimeEPiPNS0_9PosixTimeEiRKNS0_12CalendarTimeE
_ZN2nn4time23StandardUserSystemClock14GetCurrentTimeEPNS0_9PosixTimeE
_ZN2nn4time26StandardNetworkSystemClock14GetCurrentTimeEPNS0_9PosixTimeE
_ZN2nn4time14ToCalendarTimeEPNS0_12CalendarTimeEPNS0_22CalendarAdditionalInfoERKNS0_9PosixTimeE
_ZN2nn4time12GetDayOfWeekEiii
_ZN2nn4time19ToCalendarTimeInUtcERKNS0_9PosixTimeE
_ZN2nn2oe18GetDesiredLanguageEv
_ZN2nn8settingseqERKNS0_12LanguageCodeES3_
_ZN2nn2oe10InitializeEv
_ZN2nn2oe27SetPerformanceConfigurationENS0_15PerformanceModeEi
_ZN2nn2oe16DisableRecordingEv
_ZN2nn2ro10InitializeEv
_ZN2nn2oe17FinishStartupLogoEv
_ZN2nn2oe27GetNotificationMessageEventEv
_ZN2nn2oe16GetOperationModeEv
_ZN2nn2os15WaitSystemEventEPNS0_15SystemEventTypeE
_ZN2nn2oe25TryPopNotificationMessageEPj
_ZN2nn2oe20GetCurrentFocusStateEv
_ZN2nn4util12GenerateUuidEv
_ZN2nn2oe20SetFocusHandlingModeENS0_17FocusHandlingModeE
_ZN2nn2oe31EnterExitRequestHandlingSectionEv
_ZN2nn2oe31LeaveExitRequestHandlingSectionEv
_ZN2nn4time13ClockSnapshotC1Ev
_ZN2nn4time13ClockSnapshot29CreateWithStandardSystemClockEPS1_
_ZN2nn4time20CalculateSpanBetweenEPNS_8TimeSpanERKNS0_13ClockSnapshotES5_
_ZN2nn2oe29BeginAutoSleepDisabledSectionEv
_ZN2nn2oe27EndAutoSleepDisabledSectionEv
_ZN2nn2oe21SwitchLcdBacklightOffEv
_ZN2nn2oe20SwitchLcdBacklightOnEv
_ZN2nn2oe28RequestToRelaunchApplicationEv
_ZN2nn2os20GetCurrentCoreNumberEv
_ZN2nn2os15GetCurrentFiberEv
_ZN2nn2oe16EnableScreenShotEv
_ZN2nn2oe17DisableScreenShotEv
_ZN2nn3err9ShowErrorENS0_9ErrorCodeE
_ZN2nn3err9ShowErrorENS_6ResultE
_ZN2nn5swkbd20SetTextCheckCallbackEPNS0_15ShowKeyboardArgEPFNS0_15TextCheckResultEPvPmPNS0_6StringEE
_ZN2nn5swkbd12ShowKeyboardEPNS0_6StringERKNS0_15ShowKeyboardArgE
_ZN2nn5swkbd24InitializeKeyboardConfigEPNS0_14KeyboardConfigE
_ZN2nn5swkbd10MakePresetEPNS0_14KeyboardConfigENS0_6PresetE
_ZN2nn5swkbd12SetGuideTextEPNS0_14KeyboardConfigEPKDs
_ZN2nn5swkbd13SetHeaderTextEPNS0_14KeyboardConfigEPKDs
_ZN2nn5swkbd10SetSubTextEPNS0_14KeyboardConfigEPKDs
_ZN2nn5swkbd14SetInitialTextEPNS0_15ShowKeyboardArgEPKDs
_ZN2nn5swkbd25GetRequiredWorkBufferSizeEb
_ZN2nn5swkbd34GetRequiredTextCheckWorkBufferSizeEv
_ZN2nn5swkbd27GetRequiredStringBufferSizeEv
_ZN2nn3web22ShowOfflineHtmlPageArg16SetFooterEnabledEb
_ZN2nn3web22ShowOfflineHtmlPageArg21SetJsExtensionEnabledEb
_ZN2nn3web22ShowOfflineHtmlPageArg18SetWebAudioEnabledEb
_ZN2nn3web22ShowOfflineHtmlPageArg17SetPointerEnabledEb
_ZN2nn3web22ShowOfflineHtmlPageArg18SetPageFadeEnabledEb
_ZN2nn3web22ShowOfflineHtmlPageArg25SetTouchEnabledOnContentsEb
_ZN2nn3web22ShowOfflineHtmlPageArg17SetKeyRepeatFrameEii
_ZN2nn3web22ShowOfflineHtmlPageArg18SetBootDisplayKindENS0_22OfflineBootDisplayKindE
_ZN2nn3web22ShowOfflineHtmlPageArg17SetBackgroundKindERKNS0_21OfflineBackgroundKindE
_ZN2nn3web26OfflineHtmlPageReturnValueC1Ev
_ZN2nn2oe24GetExpectedVolumeBalanceEPfS1_
_ZN2nn2oe24SetExpectedVolumeBalanceEff
_ZN2nn3web36ShowOfflineHtmlPageArgWithPlayReportC1EPKc
_ZN2nn3web19ShowOfflineHtmlPageEPNS0_26OfflineHtmlPageReturnValueERKNS0_22ShowOfflineHtmlPageArgE
_ZN2nn3web22ShowOfflineHtmlPageArgC1EPKc
_ZN2nn3web14ShowWebPageArgC1EPKc
_ZN2nn3web14ShowWebPageArg18SetBootDisplayKindENS0_18WebBootDisplayKindE
_ZN2nn3web14ShowWebPageArg17SetBackgroundKindENS0_17WebBackgroundKindE
_ZN2nn3web14ShowWebPageArg21SetJsExtensionEnabledEb
_ZN2nn3web14ShowWebPageArg18SetWebAudioEnabledEb
_ZN2nn3web14ShowWebPageArg17SetPointerEnabledEb
_ZN2nn3web14ShowWebPageArg18SetPageFadeEnabledEb
_ZN2nn3web14ShowWebPageArg25SetTouchEnabledOnContentsEb
_ZN2nn3web18SetShopJumpEnabledEPNS0_14ShowWebPageArgE
_ZN2nn3web14ShowWebPageArg6SetUidERKNS_7account3UidE
_ZN2nn3web14ShowWebPageArg14SetCallbackUrlEPKc
_ZN2nn3web18WebPageReturnValueC1Ev
_ZN2nn3web11ShowWebPageEPNS0_18WebPageReturnValueERKNS0_14ShowWebPageArgE
_ZNK2nn3web18WebPageReturnValue16GetWebExitReasonEv
_ZNK2nn3web18WebPageReturnValue10GetLastUrlEv
_ZN2nn7account10InitializeEv
_ZN2nn7account12ListAllUsersEPiPNS0_3UidEi
_ZN2nn7account11GetNicknameEPNS0_8NicknameERKNS0_3UidE
_ZN2nn7account25CachedNintendoAccountInfoC1Ev
_ZN2nn7account19OpenPreselectedUserEPNS0_10UserHandleE
_ZN2nn7account9GetUserIdEPNS0_3UidERKNS0_10UserHandleE
_ZN2nn7account16ShowUserSelectorEPNS0_3UidERKNS0_21UserSelectionSettingsE
_ZN2nn7account12AsyncContext7HasDoneEPb
_ZN2nn7account12AsyncContextC1Ev
_ZN2nn7account12AsyncContextD1Ev
_ZN2nn7account44EnsureNetworkServiceAccountIdTokenCacheAsyncEPNS0_12AsyncContextERKNS0_10UserHandleE
_ZN2nn7account12AsyncContextaSEOS1_
_ZN2nn7account12AsyncContextC1EOS1_
_ZN2nn7account12AsyncContext9GetResultEv
_ZN2nn7account37LoadNetworkServiceAccountIdTokenCacheEPmPcmRKNS0_10UserHandleE
_ZN2nn7account32IsNetworkServiceAccountAvailableEPbRKNS0_10UserHandleE
_ZN2nn7account36EnsureNetworkServiceAccountAvailableERKNS0_10UserHandleE
_ZN2nn7account26GetNetworkServiceAccountIdEPNS0_23NetworkServiceAccountIdERKNS0_10UserHandleE
_ZN2nn7account29LoadCachedNintendoAccountInfoEPNS0_25CachedNintendoAccountInfoERKNS0_10UserHandleEPvm
_ZNK2nn7account25CachedNintendoAccountInfo10GetCountryEPm
_ZN2nn4nifm10InitializeEv
_ZN2nn4nifm20SubmitNetworkRequestEv
_ZN2nn4nifm20CancelNetworkRequestEv
_ZN2nn4nifm22IsNetworkRequestOnHoldEv
_ZN2nn4nifm18IsNetworkAvailableEv
_ZN2nn4nifm26HandleNetworkRequestResultEv
_ZN2nn4nifm22GetCurrentIpConfigInfoEP7in_addrS2_S2_S2_S2_
_ZN2nn4nifm27SubmitNetworkRequestAndWaitEv
_ZN2nn7friends18ShowUserDetailInfoERKNS_7account3UidERKNS1_23NetworkServiceAccountIdERKNS0_15InAppScreenNameESA_
_ZN2nn7friends12UserPresence10InitializeERKNS_7account3UidE
_ZN2nn7friends6FriendC1Ev
_ZN2nn7friends13GetFriendListEPiPNS0_6FriendERKNS_7account3UidEiiRKNS0_12FriendFilterE
_ZNK2nn7friends6Friend7IsValidEv
_ZNK2nn7friends6Friend12GetAccountIdEv
_ZN2nn7friends17NotificationQueue8FinalizeEv
_ZN2nn7friends17NotificationQueue10InitializeERKNS_7account3UidE
_ZN2nn7friends17NotificationQueue14GetSystemEventEv
_ZN2nn7friends17NotificationQueue3PopEPNS0_16NotificationInfoE
_ZNK2nn7friends12AsyncContext9GetResultEv
_ZNK2nn7friends7Profile7IsValidEv
_ZNK2nn7friends7Profile12GetAccountIdEv
_ZN2nn7friends16UpdateFriendInfoEPNS0_6FriendERKNS_7account3UidEPKNS3_23NetworkServiceAccountIdEi
_ZN2nn7friends7ProfileC1Ev
_ZN2nn7friends12AsyncContextC1Ev
_ZN2nn7friends12UserPresenceC1Ev
_ZN2nn7friends17NotificationQueueC1Ev
_ZN2nn7friends10InitializeEv
_ZN2nn7friends17NotificationQueueD1Ev
_ZN2nn7friends12AsyncContextD1Ev
_ZN2nn3mii16CharInfoAccessorC1ERKNS0_8CharInfoE
_ZNK2nn3mii16CharInfoAccessor7IsValidEv
_ZNK2nn3mii16CharInfoAccessor11GetNicknameEPNS0_8NicknameEi
_ZNK2nn3mii16CharInfoAccessor13GetFontRegionEv
_ZNK2nn3mii16CharInfoAccessor16GetFavoriteColorEv
_ZNK2nn3mii16CharInfoAccessor9GetGenderEv
_ZNK2nn3mii16CharInfoAccessor9GetHeightEv
_ZNK2nn3mii16CharInfoAccessor8GetBuildEv
_ZNK2nn3mii16CharInfoAccessor11GetHairTypeEv
_ZNK2nn3mii16CharInfoAccessor15GetFacelineTypeEv
_ZNK2nn3mii16CharInfoAccessor12GetSkinColorEv
_ZN2nn3mii12GetSkinColorEiNS0_9GammaTypeE
_ZN2nn3mii16GetFavoriteColorENS0_13FavoriteColorENS0_9GammaTypeE
_ZN2nn3mii8Database10InitializeEv
_ZNK2nn3mii8Database12BuildDefaultEPNS0_8CharInfoEi
_ZN2nn3mii8Database3GetEPiPNS0_8CharInfoEii
_ZN2nn3mii9AppendMiiEPi
_ZN2nn3mii8Database9IsUpdatedEi
_ZNK2nn3mii8Database8GetCountEi
_ZN2nn3mii8Database11BuildRandomEPNS0_8CharInfoERKNS0_10RandomDescE
_ZN2nn3mii8Database7ConvertEPNS0_8CharInfoERKNS0_13Ver3StoreDataE
_ZN2nn3mii8DatabaseC1Ev
_ZN2nn3mii8DatabaseD1Ev
_ZN2nn5prepo10InitializeEv
_ZN2nn5prepo28RequestImmediateTransmissionEv
_ZN2nn5prepo10PlayReport3AddEPKcRKNS0_10Any64BitIdE
_ZN2nn5prepo10PlayReport3AddEPKcl
_ZN2nn5prepo10PlayReport3AddEPKcd
_ZN2nn5prepo10PlayReport3AddEPKcS3_
_ZN2nn5prepo10PlayReport4SaveERKNS_7account3UidE
_ZN2nn5prepo10PlayReportC1Ev
_ZN2nn5prepo10PlayReport10SetEventIdEPKc
_ZN2nn5prepo10PlayReport9SetBufferEPvm
_ZN2nn2pl21RequestSharedFontLoadENS0_14SharedFontTypeE
_ZN2nn2pl22GetSharedFontLoadStateENS0_14SharedFontTypeE
_ZN2nn2pl20GetSharedFontAddressENS0_14SharedFontTypeE
_ZN2nn2pl17GetSharedFontSizeENS0_14SharedFontTypeE
_ZN2nn4util6detail17SinCosSampleTableE
_ZN2nn4util6detail19AngleIndexHalfRoundE
_ZN2nn5image11JpegDecoderC1Ev
_ZN2nn5image11JpegDecoder12SetImageDataEPKvm
_ZN2nn5image11JpegDecoder7AnalyzeEv
_ZNK2nn5image11JpegDecoder20GetAnalyzedDimensionEv
_ZNK2nn5image11JpegDecoder25GetAnalyzedWorkBufferSizeEv
_ZN2nn5image11JpegDecoder6DecodeEPvmiS2_m
_ZN2nn5image11JpegDecoderD1Ev
_ZNK2nn4util17BinaryBlockHeader12GetBlockSizeEv
__gxx_personality_v0
_ZTVN10__cxxabiv120__si_class_type_infoE
_ZTVN10__cxxabiv117__class_type_infoE
memset
__cxa_begin_catch
_ZSt9terminatev
memcpy
__cxa_guard_abort
_ZTVN10__cxxabiv121__vmi_class_type_infoE
__cxa_allocate_exception
__cxa_free_exception
__cxa_throw
_ZTISt12out_of_range
_ZN2nn2fs13OpenDirectoryEPNS0_15DirectoryHandleEPKci
_ZN2nn2fs22GetDirectoryEntryCountEPlNS0_15DirectoryHandleE
_ZN2nn2fs13ReadDirectoryEPlPNS0_14DirectoryEntryENS0_15DirectoryHandleEl
_ZN2nn2fs14CloseDirectoryENS0_15DirectoryHandleE
_ZN2nn2fs15CreateDirectoryEPKc
_ZN2nn2fs15DeleteDirectoryEPKc
_ZN2nn2fs22QueryMountRomCacheSizeEPm
_ZN2nn2fs8MountRomEPKcPvm
_ZN2nn2fs8ReadFileENS0_10FileHandleElPvm
_ZN2nu16VirtualAllocHookEmmPv
_ZN2nu15VirtualFreeHookEPv
_ZN2nn2os25GetCurrentProcessorNumberEv
_ZN2nn2os15InitializeMutexEPNS0_9MutexTypeEbi
_ZN2nn2os9LockMutexEPNS0_9MutexTypeE
_ZN2nn2os11UnlockMutexEPNS0_9MutexTypeE
_ZN2nn2os19AllocateMemoryPagesEmm
_ZN2nn2os15FreeMemoryPagesEmm
_ZN2nn2os21AllocateAddressRegionEPmm
_ZNSt3__112basic_stringIwNS_11char_traitsIwEENS_9allocatorIwEEED2Ev
__cxa_call_unexpected
_ZN2nn2vi10InitializeEv
_ZN2nn2vi18OpenDefaultDisplayEPPNS0_7DisplayE
_ZN2nn2vi11CreateLayerEPPNS0_5LayerEPNS0_7DisplayE
_ZN2nn2vi19SetLayerScalingModeEPNS0_5LayerENS0_11ScalingModeE
_ZN2nn2vi15GetNativeWindowEPPvPNS0_5LayerE
_ZN2nn2oe42SetOperationModeChangedNotificationEnabledEb
_ZN2nn2vi12DestroyLayerEPNS0_5LayerE
_ZN2nn2vi12CloseDisplayEPNS0_7DisplayE
_ZN2nn2vi8FinalizeEv
wmemcpy
_ZN2nn2os9WaitEventEPNS0_9EventTypeE
_ZN2nn2os13FinalizeFiberEPNS0_9FiberTypeE
_ZN2nn2os15InitializeFiberEPNS0_9FiberTypeEPFS2_PvES3_S3_mi
_ZN2nn2os13SwitchToFiberEPNS0_9FiberTypeE
_ZNKSt9exception4whatEv
_ZTISt9exception
_ZN2nn2os19InitializeSemaphoreEPNS0_13SemaphoreTypeEii
_ZN2nn2os17FinalizeSemaphoreEPNS0_13SemaphoreTypeE
_ZN2nn2os16AcquireSemaphoreEPNS0_13SemaphoreTypeE
_ZN2nn2os16ReleaseSemaphoreEPNS0_13SemaphoreTypeE
_ZN2nn2os17GetThreadPriorityEPKNS0_10ThreadTypeE
_ZN2nn2os17GetThreadCoreMaskEPiPmPKNS0_10ThreadTypeE
_ZN2nn2os11YieldThreadEv
log2f
_ZN2nn4time13IsInitializedEv
_ZN2nn4time10InitializeEv
_ZN2nn4time8FinalizeEv
_ZN2nn4time16LoadTimeZoneRuleEPNS0_12TimeZoneRuleERKNS0_12LocationNameE
_ZN2nn4time14ToCalendarTimeEPNS0_12CalendarTimeEPNS0_22CalendarAdditionalInfoERKNS0_9PosixTimeERKNS0_12TimeZoneRuleE
_ZNSt12length_errorD1Ev
_ZNSt9bad_allocC1Ev
_ZNSt9bad_allocD1Ev
_ZTISt12length_error
_ZTVSt12length_error
_ZTISt9bad_alloc
__cxa_rethrow
__cxa_end_catch
_ZNSt3__118condition_variable10notify_oneEv
_ZN2nv20SetGraphicsAllocatorEPFPvmmS0_EPFvS0_S0_EPFS0_S0_mS0_ES0_
_ZN2nv18InitializeGraphicsEPvm
_ZN2nv28SetGraphicsDevtoolsAllocatorEPFPvmmS0_EPFvS0_S0_EPFS0_S0_mS0_ES0_
nvnBootstrapLoader
_ZN2nn2vi20GetDisplayVsyncEventEPNS_2os15SystemEventTypeEPNS0_7DisplayE
_ZNSt3__16__sortIRNS_6__lessIjjEEPjEEvT0_S5_T_
__cxa_bad_typeid
_ZNSt9exceptionD1Ev
_ZNSt8bad_castD2Ev
_ZNSt8bad_castC2Ev
_ZNSt3__113basic_istreamIcNS_11char_traitsIcEEErsERf
_ZNSt3__113basic_istreamIcNS_11char_traitsIcEEE3getEv
_ZNSt3__113basic_istreamIcNS_11char_traitsIcEEED1Ev
_ZNSt3__115basic_streambufIcNS_11char_traitsIcEEE9underflowEv
_ZNSt3__115basic_streambufIcNS_11char_traitsIcEEE9pbackfailEi
_ZNSt3__115basic_streambufIcNS_11char_traitsIcEEE8overflowEi
_ZNKSt3__112basic_stringIcNS_11char_traitsIcEENS_9allocatorIcEEE4findEcm
isspace
ispunct
strtof
_ZTINSt3__115basic_streambufIcNS_11char_traitsIcEEEE
_ZTVNSt3__113basic_ostreamIcNS_11char_traitsIcEEEE
_ZTINSt3__18ios_base7failureE
_ZTIb
_ZTISt8bad_cast
_ZTVSt9exception
_ZTIi
_ZTIj
_ZTVNSt3__113basic_istreamIcNS_11char_traitsIcEEEE
_ZTIf
_ZNSt3__16localeC1ERKS0_
_ZNSt16invalid_argumentD2Ev
_ZNSt11logic_errorC2ERKNSt3__112basic_stringIcNS0_11char_traitsIcEENS0_9allocatorIcEEEE
_ZTISt16invalid_argument
_ZNKSt3__112basic_stringIcNS_11char_traitsIcEENS_9allocatorIcEEE5rfindEcm
_ZTINSt3__119__shared_weak_countE
_ZN2nn4util7Color4f13ConstantWhiteE
__errno_location
strerror
freopen
ferror
getc
feof
fprintf
fflush
stdin
stderr
longjmp
setjmp
strspn
isalnum
fputc
stdout
getenv
localeconv
strpbrk
iscntrl
isxdigit
frexpf
clock
time
strcoll
ffsl
pthread_mutex_trylock
pthread_mutex_unlock
atexit
strtol
write
pthread_mutexattr_init
pthread_mutexattr_settype
pthread_mutex_init
pthread_mutexattr_destroy
pthread_mutex_lock
gettimeofday
rand
_ZN2nn5audio24GetActiveAudioDeviceNameEPNS0_15AudioDeviceNameE
_ZN2nn4diag6detail7LogImplERKNS0_11LogMetaDataEPKcz
_ZN2nn5audio27InitializeAudioOutParameterEPNS0_17AudioOutParameterE
_ZN2nn5audio19OpenDefaultAudioOutEPNS0_8AudioOutEPNS_2os11SystemEventERKNS0_17AudioOutParameterE
_ZN2nn5audio23GetAudioOutChannelCountEPKNS0_8AudioOutE
_ZN2nn5audio21GetAudioOutSampleRateEPKNS0_8AudioOutE
_ZN2nn5audio23GetAudioOutSampleFormatEPKNS0_8AudioOutE
_ZN2nn5audio15GetAudioOutNameEPKNS0_8AudioOutE
_ZN2nn4diag6detail18OnAssertionFailureENS0_13AssertionTypeEPKcS4_S4_i
_ZN2nn5audio21SetAudioOutBufferInfoEPNS0_14AudioOutBufferEPvmm
_ZN2nn5audio20AppendAudioOutBufferEPNS0_8AudioOutEPNS0_14AudioOutBufferE
_ZN2nn2os12CreateThreadEPNS0_10ThreadTypeEPFvPvES3_S3_mii
_ZN2nn2os20ChangeThreadPriorityEPNS0_10ThreadTypeEi
_ZN2nn2os24GetThreadCurrentPriorityEPKNS0_10ThreadTypeE
_ZN2nn5audio13StartAudioOutEPNS0_8AudioOutE
_ZN2nn5audio25GetReleasedAudioOutBufferEPNS0_8AudioOutE
_ZN2nn5audio12StopAudioOutEPNS0_8AudioOutE
_ZN2nn5audio13CloseAudioOutEPNS0_8AudioOutE
_ZN2nn5audio28GetAudioOutBufferDataPointerEPKNS0_14AudioOutBufferE
_ZNSt3__15alignEmmRPvRm
_ZN2nn5codec19HardwareOpusDecoderC1Ei
__assert_fail
_ZN2nn4util6detail8FloatUlpE
_ZN2nn4util7FloatPiE
_ZN2nn4util6detail14FloatDegree180E
_ZN2nn4util16BinaryFileHeader18GetRelocationTableEv
_ZNK2nn4util16BinaryFileHeader11IsRelocatedEv
_ZNK2nn4util16BinaryFileHeader16IsAlignmentValidEv
_ZNK2nn4util16BinaryFileHeader16IsSignatureValidEl
_ZN2nn4lmem15CreateFrameHeapEPvmi
_ZN2nn4lmem16DestroyFrameHeapEPNS0_6detail8HeapHeadE
_ZN2nn4lmem21AllocateFromFrameHeapEPNS0_6detail8HeapHeadEmi
_ZN2nn4util11ReferSymbolEPKv
memmove
qsort
nnsocketInetHtons
nnosFinalizeMutex
nnosInitializeMutex
nnosLockMutex
nnosSleepThread
nnosUnlockMutex
nnsocketGetLastErrno
nnsocketResolverGetOption
nnsocketResolverSetOption
nnsocketBind
nnsocketClose
nnsocketConnect
nnsocketGetPeerName
nnsocketGetSockName
nnsocketGetSockOpt
nnsocketInetNtohs
nnsocketRecv
nnsocketSetLastErrno
nnsocketSetSockOpt
nnsocketSocket
nnsocketFcntl
gmtime
nnsocketPoll
nnsocketSend
strncat
nnResultGetDescription
nnResultGetModule
nnResultIsFailure
nnResultIsSuccess
nnsslConnectionCreate
nnsslConnectionDestroy
nnsslConnectionDoHandshakeWithCertBuffer
nnsslConnectionGetConnectionId
nnsslConnectionGetVerifyCertError
nnsslConnectionPeek
nnsslConnectionPending
nnsslConnectionRead
nnsslConnectionSetHostName
nnsslConnectionSetIoMode
nnsslConnectionSetOption
nnsslConnectionSetSessionCacheMode
nnsslConnectionSetSocketDescriptor
nnsslConnectionSetVerifyOption
nnsslConnectionWrite
nnsslContextDestroy
nnsslContextGetContextId
nnsslFinalize
nnsslInitialize
nndetailDiagAbortFormatImpl
strdup
_ZN2nn3nsd9ResolveExEPNS0_4FqdnERKS1_
_ZN2nn4nifm22GetCurrentProxySettingEPNS0_12ProxySettingE
nnosConvertTickToNanoSeconds
nnosGetSystemTick
nnosGetSystemTickFrequency
nnsocketGetHostByNameWithOptions
nnosCreateThread
nnosDestroyThread
nnosFinalizeEvent
nnosGetCurrentThread
nnosGetThreadPriority
nnosInitializeEvent
nnosSetThreadNamePointer
nnosSignalEvent
nnosStartThread
nnosWaitEvent
nnosWaitThread
_ZN2nn4util15RelocationTable8RelocateEv
_ZN2nn6detail21UnexpectedDefaultImplEPKcS2_i
_ZNK2nn4util16BinaryFileHeader13GetFirstBlockEv
_ZNSt3__112basic_stringIcNS_11char_traitsIcEENS_9allocatorIcEEE6assignEPKcm
glslcCompile
glslcCompilePreSpecialized
glslcCompileSpecialized
glslcFinalize
glslcGetDefaultOptions
glslcGetVersion
glslcInitialize
glslcSetAllocator
_ZN2nn3mem19NumberLineAllocator10InitializeEPFPvmS2_ES2_PFvS2_S2_ES2_b
_ZN2nn3mem19NumberLineAllocator4FreeEi
_ZN2nn3mem19NumberLineAllocator8AddRangeEii
_ZN2nn3mem19NumberLineAllocator8AllocateEPii
_ZN2nn4util8SNPrintfEPcmPKcz
_ZN2nn4util27ConvertCharacterUtf8ToUtf32EPjPKc
_ZN2nn4util30PickOutCharacterFromUtf8StringEPcPPKc
strcat
_ZN2nn6fontll18ScalableFontEngine10GetAdvanceEPsS2_PiS3_jt
_ZN2nn6fontll18ScalableFontEngine10GetKerningEPiS2_jj
_ZN2nn6fontll18ScalableFontEngine10InitializeEPvj
_ZN2nn6fontll18ScalableFontEngine11SetAutoHintEb
_ZN2nn6fontll18ScalableFontEngine13ReleasesGlyphEPv
_ZN2nn6fontll18ScalableFontEngine13SetBoldWeightEi
_ZN2nn6fontll18ScalableFontEngine14GetFontMetricsEPNS0_7MetricsE
_ZN2nn6fontll18ScalableFontEngine15AcquireGlyphmapEjt
_ZN2nn6fontll18ScalableFontEngine15CheckGlyphExistEj
_ZN2nn6fontll18ScalableFontEngine15SetOutlineWidthEt
_ZN2nn6fontll18ScalableFontEngine17AcquireOtfKerningEPKNS0_15OtfKerningTableEjjj
_ZN2nn6fontll18ScalableFontEngine21AcquireOtfKerningLastEPKNS0_15OtfKerningTableEjj
_ZN2nn6fontll18ScalableFontEngine22AcquireOtfKerningFirstEPKNS0_15OtfKerningTableEjj
_ZN2nn6fontll18ScalableFontEngine22GetPointerToWorkBufferEv
_ZN2nn6fontll18ScalableFontEngine23FinalizeOtfKerningTableEPNS0_15OtfKerningTableEPFvPvS4_ES4_
_ZN2nn6fontll18ScalableFontEngine25InitializeOtfKerningTableEPFPvmmS2_ES2_b
_ZN2nn6fontll18ScalableFontEngine7SetFontEPc
_ZN2nn6fontll18ScalableFontEngine8FinalizeEv
_ZN2nn6fontll18ScalableFontEngine8GetErrorEv
_ZN2nn6fontll18ScalableFontEngine8LoadFontEPcPKvjj
_ZN2nn6fontll18ScalableFontEngine8SetFlagsENS1_5FlagsE
_ZN2nn6fontll18ScalableFontEngine8SetScaleEiiii
_ZN2nn6fontll18ScalableFontEngineC1Ev
_ZN2nn6fontll24ScalableFontEngineHelper6DecodeEPKvj
_ZN2nn4util9VSNPrintfEPcmPKcSt9__va_list
_ZNK2nn4util16BinaryFileHeader15IsEndianReverseEv
pthread_mutex_destroy
pthread_cond_destroy
pthread_cond_broadcast
pthread_join
_ZN2nn2os12TryLockMutexEPNS0_9MutexTypeE
_ZN2nn2os22GetSystemTickFrequencyEv
_ZN2nn3err9ErrorCode19GetInvalidErrorCodeEv
_ZNK2nn3err9ErrorCode7IsValidEv
_ZN2nn6socket10SetSockOptEiNS0_5LevelENS0_6OptionEPKvj
_ZN2nn6socket11GAIStrErrorENS0_7AiErrnoE
_ZN2nn6socket11GetAddrInfoEPKcS2_PKNS0_8AddrInfoEPPS3_
_ZN2nn6socket12FreeAddrInfoEPNS0_8AddrInfoE
_ZN2nn6socket12GetLastErrnoEv
_ZN2nn6socket4BindEiPKNS0_8SockAddrEj
_ZN2nn6socket5CloseEi
_ZN2nn6socket6SendToEiPKvmNS0_7MsgFlagEPKNS0_8SockAddrEj
_ZN2nn6socket6SocketENS0_6FamilyENS0_4TypeENS0_8ProtocolE
_ZN2nn6socket8RecvFromEiPvmNS0_7MsgFlagEPNS0_8SockAddrEPj
_ZN2nn6socket8InetAtonEPKcPNS0_6InAddrE
_ZN2nn6crypto36GenerateCryptographicallyRandomBytesEPvm
memset_s
_ZN2nn2os18SdkAllocateTlsSlotEPNS0_7TlsSlotEPFvmE
_ZN2nn2os15JamMessageQueueEPNS0_16MessageQueueTypeEm
_ZN2nn2os18TryJamMessageQueueEPNS0_16MessageQueueTypeEm
_ZN2nn2os19ReceiveMessageQueueEPmPNS0_16MessageQueueTypeE
_ZN2nn2os19TrySendMessageQueueEPNS0_16MessageQueueTypeEm
_ZN2nn2os22TryReceiveMessageQueueEPmPNS0_16MessageQueueTypeE
_ZN2nn2os19GetCurrentStackInfoEPmS1_
_ZN2nn2os26GetThreadAvailableCoreMaskEv
_ZN2nn7account16GetUserExistenceEPbRKNS0_3UidE
_ZN2nn7friends14AddPlayHistoryERKNS_7account3UidERKNS0_26PlayHistoryRegistrationKeyERKNS0_15InAppScreenNameESA_
_ZN2nn7friends29GetPlayHistoryRegistrationKeyEPNS0_26PlayHistoryRegistrationKeyERKNS_7account3UidEb
_ZNSt3__16__sortIRNS_6__lessIiiEEPiEEvT0_S5_T_
_ZN2nn3ldn11OpenStationEv
_ZN2nn3ldn12CloseStationEv
_ZN2nn3ldn14GetIpv4AddressEPNS0_11Ipv4AddressEPNS0_10SubnetMaskE
_ZN2nn3ldn15OpenAccessPointEv
_ZN2nn3ldn16CloseAccessPointEv
_ZN2nn3ldn16SetAdvertiseDataEPKvm
_ZN2nn3ldn20GetSecurityParameterEPNS0_17SecurityParameterE
_ZN2nn3ldn20MakeBroadcastAddressENS0_11Ipv4AddressENS0_10SubnetMaskE
_ZN2nn3ldn22AttachStateChangeEventEPNS_2os15SystemEventTypeE
_ZN2nn3ldn22SetStationAcceptPolicyENS0_12AcceptPolicyE
_ZN2nn3ldn6RejectENS0_11Ipv4AddressE
_ZN2nn3ldn10DisconnectEv
_ZN2nn3ldn11ScanPrivateEPNS0_11NetworkInfoEPiiRKNS0_10ScanFilterEi
_ZN2nn3ldn13CreateNetworkERKNS0_13NetworkConfigERKNS0_14SecurityConfigERKNS0_10UserConfigE
_ZN2nn3ldn14ConnectPrivateERKNS0_13NetworkConfigERKNS0_14SecurityConfigERKNS0_17SecurityParameterERKNS0_10UserConfigEiNS0_13ConnectOptionE
_ZN2nn3ldn14DestroyNetworkEv
_ZN2nn3ldn16GetNetworkConfigEPNS0_13NetworkConfigE
_ZN2nn3ldn20CreateNetworkPrivateERKNS0_13NetworkConfigERKNS0_14SecurityConfigERKNS0_17SecurityParameterERKNS0_10UserConfigEiPKNS0_12AddressEntryE
_ZN2nn3ldn4ScanEPNS0_11NetworkInfoEPiiRKNS0_10ScanFilterEi
_ZN2nn3ldn7ConnectERKNS0_11NetworkInfoERKNS0_14SecurityConfigERKNS0_10UserConfigEiNS0_13ConnectOptionE
_ZN2nn6socket9InetHtonlEj
_ZN2nn3ldn19GetDisconnectReasonEv
_ZN2nn2os11GetThreadIdEPKNS0_10ThreadTypeE
_ZN2nn2os19GenerateRandomBytesEPvm
_ZN2nn2os21WaitConditionVariableEPNS0_21ConditionVariableTypeEPNS0_9MutexTypeE
_ZN2nn2os23SignalConditionVariableEPNS0_21ConditionVariableTypeE
_ZN2nn2os25FinalizeConditionVariableEPNS0_21ConditionVariableTypeE
_ZN2nn2os26BroadcastConditionVariableEPNS0_21ConditionVariableTypeE
_ZN2nn2os26TimedWaitConditionVariableEPNS0_21ConditionVariableTypeEPNS0_9MutexTypeENS_8TimeSpanE
_ZN2nn2os27InitializeConditionVariableEPNS0_21ConditionVariableTypeE
_ZN2nn3mem17StandardAllocator8AllocateEm
strcspn
_ZN2nn6socket10GetSockOptEiiiPvPj
_ZN2nn6socket10SetSockOptEiiiPKvj
_ZN2nn6socket11GetAddrInfoEPKcS2_PK8addrinfoPPS3_
_ZN2nn6socket11GetSockNameEiP8sockaddrPj
_ZN2nn6socket12FreeAddrInfoEP8addrinfo
_ZN2nn6socket4BindEiPK8sockaddrj
_ZN2nn6socket4PollEP6pollfdmi
_ZN2nn6socket4RecvEiPvmi
_ZN2nn6socket4SendEiPKvmi
_ZN2nn6socket5FcntlEiiz
_ZN2nn6socket6AcceptEiP8sockaddrPj
_ZN2nn6socket6ListenEii
_ZN2nn6socket6SendToEiPKvmiPK8sockaddrj
_ZN2nn6socket6SocketEiii
_ZN2nn6socket7ConnectEiPK8sockaddrj
_ZN2nn6socket8InetNtoaE7in_addr
_ZN2nn6socket8InetNtopEiPKvPcj
_ZN2nn6socket8InetPtonEiPKcPv
_ZN2nn6socket8RecvFromEiPvmiP8sockaddrPj
_ZN2nn6socket8ShutdownEii
_ZN2nn6socket9InetHtonsEt
_ZN2nn6socket9InetNtohlEj
_ZN2nn6socket9InetNtohsEt
_ZN2nn4nifm26GetCurrentPrimaryIpAddressEP7in_addr
_ZN2nn6crypto16GenerateSha1HashEPvmPKvm
_ZN2nn6crypto6detail7Md5Impl10InitializeEv
_ZN2nn6crypto6detail7Md5Impl6UpdateEPKvm
_ZN2nn6crypto6detail7Md5Impl7GetHashEPvm
_ZN2nn6crypto6detail7Md5ImplD1Ev
strcasecmp
_ZN2nn3ssl7Context15ImportServerPkiEPmPKcjNS0_17CertificateFormatE
_ZN2nn3ssl7Context6CreateENS1_10SslVersionE
strnlen
_ZN2nn7account12AsyncContext14GetSystemEventEPNS_2os11SystemEventE
_ZN2nn7account12AsyncContext6CancelEv
_ZN2nn3mii21ParamCharInfoAccessorC1ERKNS0_8CharInfoE
_ZN2nn3mii6detail15BufferAllocator7AdvanceEm
_ZN2nn3mii6detail15BufferAllocator7AlignUpEm
_ZN2nn3mii6detail15BufferAllocatorC1EPvm
_ZN2nn3mii6detail15BufferAllocatorD1Ev
_ZNK2nn3mii21ParamCharInfoAccessor7IsValidEv
_ZNK2nn3mii21ParamCharInfoAccessor9GetGenderEv
_ZN2nn3mii6detail25CalculateSizeAndAlignment20AddSizeWithAlignmentEmm
_ZN2nn3mii6detail25CalculateSizeAndAlignment7AddSizeEm
_ZN2nn3mii6detail25CalculateSizeAndAlignmentC1Ev
_ZN2nn3mii6detail25CalculateSizeAndAlignmentD1Ev
_ZNK2nn3mii6detail25CalculateSizeAndAlignment7GetSizeEv
_ZN2nn3mii12GetSkinColorENS0_13FacelineColorENS0_9GammaTypeE
_ZN2nn3mii14GetCommonColorENS0_11CommonColorENS0_9GammaTypeE
_ZN2nn3mii16GetNoselineColorENS0_9GammaTypeE
_ZN2nn3mii6detail25CalculateSizeAndAlignment20AddSizeWithAlignmentEmmi
_ZNK2nn3mii21ParamCharInfoAccessor11GetHairFlipEv
_ZNK2nn3mii21ParamCharInfoAccessor11GetHairTypeEv
_ZNK2nn3mii21ParamCharInfoAccessor11GetNoseTypeEv
_ZNK2nn3mii21ParamCharInfoAccessor12GetBeardTypeEv
_ZNK2nn3mii21ParamCharInfoAccessor12GetGlassTypeEv
_ZNK2nn3mii21ParamCharInfoAccessor12GetHairColorEv
_ZNK2nn3mii21ParamCharInfoAccessor12GetNoseScaleEv
_ZNK2nn3mii21ParamCharInfoAccessor13GetBeardColorEv
_ZNK2nn3mii21ParamCharInfoAccessor13GetGlassColorEv
_ZNK2nn3mii21ParamCharInfoAccessor13GetGlassScaleEv
_ZNK2nn3mii21ParamCharInfoAccessor15GetFacelineTypeEv
_ZNK2nn3mii21ParamCharInfoAccessor16GetFacelineColorEv
_ZNK2nn3mii21ParamCharInfoAccessor16GetFavoriteColorEv
_ZNK2nn3mii21ParamCharInfoAccessor8GetNoseYEv
_ZNK2nn3mii21ParamCharInfoAccessor9GetGlassYEv
_ZN2nn3mii15GetWrinkleColorENS0_9GammaTypeE
_ZNK2nn3mii21ParamCharInfoAccessor15GetFacelineMakeEv
_ZNK2nn3mii21ParamCharInfoAccessor18GetFacelineWrinkleEv
_ZNK2nn3mii21ParamCharInfoAccessor9IsSpecialEv
_ZN2nn3mii12GetMoleColorENS0_9GammaTypeE
_ZN2nn3mii14GetEyeRedColorENS0_9GammaTypeE
_ZN2nn3mii15GetEyeBlueColorENS0_11CommonColorENS0_9GammaTypeE
_ZN2nn3mii16GetEyeGreenColorENS0_9GammaTypeE
_ZN2nn3mii16GetMouthRedColorENS0_11CommonColorENS0_9GammaTypeE
_ZN2nn3mii17GetMouthBlueColorENS0_9GammaTypeE
_ZN2nn3mii18GetExpressionCountEi
_ZN2nn3mii18GetMouthGreenColorENS0_11CommonColorENS0_9GammaTypeE
_ZN2nn3mii6detail18GetEyeRotateOffsetENS0_7EyeTypeE
_ZN2nn3mii6detail22GetEyebrowRotateOffsetENS0_11EyebrowTypeE
_ZNK2nn3mii21ParamCharInfoAccessor10GetEyeTypeEv
_ZNK2nn3mii21ParamCharInfoAccessor11GetEyeColorEv
_ZNK2nn3mii21ParamCharInfoAccessor11GetEyeScaleEv
_ZNK2nn3mii21ParamCharInfoAccessor11GetEyebrowXEv
_ZNK2nn3mii21ParamCharInfoAccessor11GetEyebrowYEv
_ZNK2nn3mii21ParamCharInfoAccessor11GetMoleTypeEv
_ZNK2nn3mii21ParamCharInfoAccessor12GetEyeAspectEv
_ZNK2nn3mii21ParamCharInfoAccessor12GetEyeRotateEv
_ZNK2nn3mii21ParamCharInfoAccessor12GetMoleScaleEv
_ZNK2nn3mii21ParamCharInfoAccessor12GetMouthTypeEv
_ZNK2nn3mii21ParamCharInfoAccessor12GetMustacheYEv
_ZNK2nn3mii21ParamCharInfoAccessor13GetMouthColorEv
_ZNK2nn3mii21ParamCharInfoAccessor13GetMouthScaleEv
_ZNK2nn3mii21ParamCharInfoAccessor14GetEyebrowTypeEv
_ZNK2nn3mii21ParamCharInfoAccessor14GetMouthAspectEv
_ZNK2nn3mii21ParamCharInfoAccessor15GetEyebrowColorEv
_ZNK2nn3mii21ParamCharInfoAccessor15GetEyebrowScaleEv
_ZNK2nn3mii21ParamCharInfoAccessor15GetMustacheTypeEv
_ZNK2nn3mii21ParamCharInfoAccessor16GetEyebrowAspectEv
_ZNK2nn3mii21ParamCharInfoAccessor16GetEyebrowRotateEv
_ZNK2nn3mii21ParamCharInfoAccessor16GetMustacheScaleEv
_ZNK2nn3mii21ParamCharInfoAccessor7GetEyeXEv
_ZNK2nn3mii21ParamCharInfoAccessor7GetEyeYEv
_ZNK2nn3mii21ParamCharInfoAccessor8GetMoleXEv
_ZNK2nn3mii21ParamCharInfoAccessor8GetMoleYEv
_ZNK2nn3mii21ParamCharInfoAccessor9GetMouthYEv
_ZN2nn4util14DecompressZlibEPvmPKvmS1_m
__multf3
__floatditf
__subtf3
exp2f
_Unwind_Resume
__lttf2
MsgStdBn
LBL1
TXT2
ATR1
ATO1
TSY1
GpuBuffer management domain is lacking. \n
GpuBuffer Allocation Failed. Allocated size : %d Byte.\n
Current GpuBuffer Allocation : %d/%d.\n
The Resource is not found in VfxSystem. ResourceId : %d.\n
The EmitterSet is not found in this resource. EmitterSet Id : %d. ResourceId : %d\n
EmitterResource Setup Failed.\n
CustomShader Callback is not established. CustomShaderID : %d\n
CustomAction Callback is not established. CustomActionID : %d\n
Emitter Initialize Failed.\n
sysPosAttr
sysNormalAttr
sysTangentAttr
sysVertexColor0Attr
sysTexCoordAttr
sysLocalPosAttr
sysLocalVecAttr
sysLocalDiffAttr
sysScaleAttr
sysRandomAttr
sysInitRotateAttr
sysColor0Attr
sysColor1Attr
sysEmtMat0Attr
sysEmtMat1Attr
sysEmtMat2Attr
sysEmitterPluginAttr0
sysEmitterPluginAttr1
sysEmitterPluginAttr2
sysEmitterPluginAttr3
sysEmitterPluginAttr4
ShaderBinary Bind Error.\n
Binary Tag Error.\n
Data    Version:%d\n
Runtime Version:%d\n
Binary Version Error!!! Please check your binary file.\n
Data    API:%d\n
Runtime API:%d\n
Graphic API Unmatched Error!!! Please check your binary file.\n
Required Alignment:%d\n
               Gap:%d\n
Alignment Unmatched Error!!! Please check your binary file.\n
Heap is not set in the argument of the resource destruction method.
Faild to initialize primitive: Index %d \n
Appointed Texture is not found from Resident Resource.\n
The Texture which was not found is %s.\n
Appointed Primitive is not found from Resident Resource.\n
%s.fmdb : A format of _u1 is different from _uo of the particle shape.\n
sysEmitterDynamicUniformBlock
sysEmitterStaticUniformBlock
sysEmitterFieldUniformBlock
sysCurlNoiseTextureArray
sysPosBuff
sysVecBuff
sysPosDeltaBuff
sysScaleBuff
sysRandomBuff
sysEmtMat0Buff
sysEmtMat1Buff
sysEmtMat2Buff
sysTextureSampler0
sysTextureSampler1
sysTextureSampler2
sysFrameBufferTexture
sysDepthBufferTexture
sysCustomShaderTextureSampler0
sysCustomShaderTextureSampler1
sysCustomShaderTextureSampler2
sysCustomShaderTextureSampler3
sysCustomShaderTextureArraySampler0
sysCustomShaderTextureArraySampler1
sysCustomShaderTextureArraySampler2
sysCustomShaderTextureArraySampler3
sysCustomShaderTexture3DSampler0
sysCustomShaderTexture3DSampler1
sysCustomShaderTexture3DSampler2
sysCustomShaderTexture3DSampler3
sysCustomShaderCubeSampler0
sysCustomShaderCubeSampler1
sysCustomShaderCubeSampler2
sysCustomShaderCubeSampler3
sysCustomShaderCubeArraySampler0
sysCustomShaderCubeArraySampler1
sysCustomShaderCubeArraySampler2
sysCustomShaderCubeArraySampler3
sysCustomShaderShadowSampler0
sysCustomShaderShadowSampler1
sysCustomShaderShadowSampler2
sysCustomShaderShadowSampler3
sysCustomShaderShadowArraySampler0
sysCustomShaderShadowArraySampler1
sysCustomShaderShadowArraySampler2
sysCustomShaderShadowArraySampler3
sysViewUniformBlock
sysEmitterPluginUniformBlock
sysCustomShaderReservedUniformBlockParam
sysCustomShaderUniformBlock0
sysCustomShaderUniformBlock1
sysCustomShaderUniformBlock2
sysCustomShaderUniformBlock3
StripeSystem is already initialized.\n
[Stripe] Memory Allocate Error!! : %d\n
Stripe instance is null\n
Stripe instance is not used\n
EmitterPluginUserData is empty\n
Vertex buffer for stripe has not allocated\n
Buffer for stripe history is not enough\n
There is no available Stripe instance.\n
SuperStripeSystem is already initialized.\n
[SuperStripe] Memory Allocate Error!! : %d\n
SuperStripe instance is null\n
SuperStripe instance is not used\n
System Static     WorkSize : %d \n
System Static     AlcCount : %d \n
  DelayFree       WorkSize : %d \n
  Random          WorkSize : %d \n
  Resource        WorkSize : %d \n
  EmitterSet      WorkSize : %d ( EmitterSetNum:%d )\n
  Emitter         WorkSize : %d ( EmitterNum:%d )\n
  EmitterCalc     WorkSize : %d \n
  EmitterConstBuf WorkSize : %d \n
  EmitterSetSort  WorkSize : %d \n
  ParticleSort    WorkSize : %d \n
  NoiseTexture    WorkSize : %d \n
  TempBuffer      WorkSize : %d \n
-------------------------------\n
Stripe            WorkSize : %d \n
vfx system deleted the registered binary. resource id : %d.
vfx system deleted the registered binary. resource id : %d.\n
The Resource to be cleared does not exist. ResourceId : %d.\n
There is no available EmitterSet instance.\n
There is no available Emitter instance.\n
EmitterSet has been already deleted.\n
EmitterSet Remove Failed.\n
Particle sort has failed. More buffer size is needed. \n
ConnectionStripeSystem is already initialized.\n
[ConnectedStripe] Memory Allocate Error!! : %d\n
TemporaryBuffer Allocation Failed. Allocation size : %d Byte.\n
Current TemporaryBuffer Allocation : %d/%d.\n
Texture Sampler Table Already Created.\n
easy handle already used in multi handle
CONNECT_ONLY is required!
Failed to get recent socket
ignoring failed cookie_init for %s\n
%1023[^;\r\n =] =%4999[^;\r\n]
secure
httponly
path
domain
skipped cookie with bad tailmatch domain: %s\n
version
max-age
expires
#HttpOnly_
TRUE
FALSE
%s cookie %s=\"%s\" for domain %s, path %s, expire %ld\n
Replaced
Added
none
Set-Cookie:
WARNING: failed to save cookies in %s\n
%s%s%s\t%s\t%s\t%s\t%ld\t%s\t%s
unknown
# Netscape HTTP Cookie File\n# http://curl.haxx.se/docs/http-cookies.html\n# This file was generated by libcurl! Edit at your own risk.\n\n
#\n# Fatal libcurl error\n
getpeername() failed with errno %d: %s
getsockname() failed with errno %d: %s
ssrem inet_ntop() failed with errno %d: %s
ssloc inet_ntop() failed with errno %d: %s
Connection time-out
After %ldms connect time, move on!\n
Connection failed\n
connect to %s port %ld failed: %s\n
Failed to connect to %s port %ld: %s
sa_addr inet_ntop() failed with errno %d: %s
  Trying %s...\n
Immediate connect fail for %s: %s\n
Could not set SO_NOSIGPIPE: %s\n
Failed to set SO_KEEPALIVE on fd %d\n
host!
Couldn't bind to interface '%s'
Local Interface %s is ip %s using address family %i\n
Name '%s' family %i resolved to '%s' family %i\n
Couldn't bind to '%s'
Local port: %hu\n
Bind to local port %hu failed, trying next\n
bind failed with errno %d: %s
proxy
host
Could not resolve %s: %s
Hostname %s was found in DNS cache\n
%255[^:]:%d
Couldn't parse CURLOPT_RESOLVE removal entry '%s'!\n
%255[^:]:%d:%255s
Couldn't parse CURLOPT_RESOLVE entry '%s'!\n
Address in '%s' found illegal!\n
Added %s:%d:%s to DNS cache\n
Hostname in DNS cache was stale, zapped\n
%s:%d
%d.%d.%d.%d
0123456789abcdefghijklmnopqrstuvwxyz
0123456789ABCDEFGHIJKLMNOPQRSTUVWXYZ
(nil)
.%ld
Curl_poll(%d ds, %d ms)\n
Internal error clearing splay node = %d\n
Internal error removing splay node = %d\n
Pipe broke: handle %p, url = %s\n
In state %d with no easy_conn, bail out!\n
Resolving timed out after %ld milliseconds
Connection timed out after %ld milliseconds
Operation timed out after %ld milliseconds with %ld out of %ld bytes received
Operation timed out after %ld milliseconds with %ld bytes received
Hostname was found in DNS cache\n
HTTP
HTTPS
The requested URL returned error: %d
Digest
Ignoring duplicate digest auth header.\n
Authentication problem. Ignoring this.\n
Basic
Empty reply from server
Host:
Content-Type:
Content-Length
Connection
%s\r\n
Invalid TIMEVALUE
%s, %02d %s %4d %02d:%02d:%02d GMT
If-Modified-Since: %s\r\n
If-Unmodified-Since: %s\r\n
Last-Modified: %s\r\n
HEAD
POST
User-Agent:
Referer:
Referer: %s\r\n
Cookie:
Accept-Encoding:
Accept-Encoding: %s\r\n
Transfer-Encoding:
chunked
Chunky upload is not supported by HTTP 1.0
Transfer-Encoding: chunked\r\n
Host: %s%s%s\r\n
Host: %s%s%s:%hu\r\n
ftp://
;type=
;type=%c
Accept:
Accept: */*\r\n
Could not seek stream
Could only read %ld bytes from the input
File already completely uploaded
Range:
Range: bytes=%s\r\n
Content-Range:
Content-Range: bytes 0-%ld/%ld\r\n
Content-Range: bytes %s%ld/%ld\r\n
Content-Range: bytes %s/%ld\r\n
ftp://%s:%s@%s
%s HTTP/%s\r\n%s%s%s%s%s%s%s%s%s%s%s
Proxy-Connection:
Proxy-Connection: Keep-Alive\r\n
Cookie: 
%s%s=%s
%s%s
Content-Length: 0\r\n\r\n
Failed sending POST request
Internal HTTP POST error!
Content-Length:
Content-Length: %ld\r\n
Could not get Content-Type header line!
Failed sending PUT request
Content-Type: application/x-www-form-urlencoded\r\n
Expect:
100-continue
%x\r\n
0\r\n\r\n
Failed sending HTTP POST request
Failed sending HTTP request
upload completely sent off: %ld out of %ld bytes\n
Received 101\n
no chunk, no close, no size. Assume close to signal end\n
HTTP error before end of send, stop sending\n
Keep sending data to get tossed away!\n
 HTTP/%d.%d %d
Lying server, not serving HTTP/2\n
 HTTP %3d
 RTSP/%d.%d %3d
HTTP 1.0, assume close after body\n
Maximum file size exceeded
Negative content-length: %ld, closing after transfer\n
Server:
keep-alive
HTTP/1.0 proxy connection set to keep alive!\n
close
HTTP/1.1 proxy connection set close!\n
Connection:
HTTP/1.0 connection set to keep alive!\n
identity
deflate
gzip
x-gzip
compress
x-compress
Content-Encoding:
Last-Modified:
WWW-Authenticate:
Proxy-authenticate:
Location:
Proxy-authorization:
Authorization:
%s auth using %s with user '%s'\n
Proxy
Server
%s:%s
%sAuthorization: Basic %s\r\n
Proxy-
Expect: 100-continue\r\n
Avoided giant realloc for header (max is %d)!
Failed to alloc memory for big header!
HTTP/
The requested URL returned error: %s
%s; boundary=%s\r\n
Content-Type: multipart/form-data
--%s\r\n
Content-Disposition: form-data; name=\"
\r\nContent-Type: multipart/mixed; boundary=%s\r\n
\r\n--%s\r\nContent-Disposition: attachment
\r\nContent-Type: %s
\r\n%s
\r\n\r\n
couldn't open file \"%s\"
\r\n--%s--
\r\n--%s--\r\n
.gif
image/gif
.jpg
image/jpeg
.jpeg
.txt
text/plain
.html
text/html
.xml
application/xml
application/octet-stream
; filename=\"%s\"
------------------------%08x%08x
%c%c==
%c%c%c=
%c%c%c%c
Too long hexadecimal number
Illegal or missing hexadecimal sequence
Malformed encoding found
Write error
Bad content-encoding found
Out of memory
%.*s
%sAuthorization: Digest %s\r\n
%08x%08x%08x%08x
%02x
nonce
stale
true
realm
opaque
auth
auth-int
algorithm
MD5-sess
%s:%s:%s
d41d8cd98f00b204e9800998ecf8427e
%s:%s:%08x:%s:%s:%s
username=\"%s\", realm=\"%s\", nonce=\"%s\", uri=\"%s\", cnonce=\"%s\", nc=%08x, qop=%s, response=\"%s\"
username=\"%s\", realm=\"%s\", nonce=\"%s\", uri=\"%s\", response=\"%s\"
%s, opaque=\"%s\"
%s, algorithm=\"%s\"
Establish HTTP proxy tunnel to %s:%hu\n
%s:%hu
CONNECT
%s%s%s:%hu
Host: %s\r\n
CONNECT %s HTTP/%s\r\n%s%s%s%s
Failed sending CONNECT to proxy
Proxy CONNECT aborted due to timeout
Proxy CONNECT aborted due to select/poll error
Proxy CONNECT connection closed
Proxy CONNECT aborted
chunk reading DONE\n
Read %zd bytes of chunk, continue\n
Ignore %ld bytes of response-body\n
%zd bytes of chunk left\n
Proxy CONNECT followed by %zd bytes of opaque data. Data ignored (known bug #39)
CONNECT responded chunked\n
HTTP/1.%d %d
TUNNEL_STATE switched to: %d\n
Connect me again please\n
Received HTTP code %d from proxy after CONNECT
Proxy replied OK to CONNECT request\n
%31[ABCDEFGHIJKLMNOPQRSTUVWXYZabcdefghijklmnopqrstuvwxyz]
%02d:%02d:%02d
%02d:%02d
Monday
Tuesday
Wednesday
Thursday
Friday
Saturday
Sunday
Conn: %ld (%p) Receive pipe weight: (%ld/%zu), penalized: %s\n
Site %s:%d is pipeline blacklisted\n
Server %s is blacklisted\n
Callback aborted
** Resuming transfer from byte position %ld\n
  %% Total    %% Received %% Xferd  Average Speed   Time    Time     Time  Current\n                                 Dload  Upload   Total   Spent    Left  Speed\n
\r%3ld %s  %3ld %s  %3ld %s  %s  %s %s %s %s %s
--:--:--
%2ld:%02ld:%02ld
%3ldd %02ldh
%7ldd
%5ld
%4ldk
%2ld.%0ldM
%4ldM
%2ld.%0ldG
%4ldG
%4ldT
%4ldP
Send failure: %s
Recv failure: %s
Write callback asked for PAUSE when not supported!
Failed writing body (%zu != %zu)
Failed writing header
Data
Header
from
[%s %s %s]
Operation too slow. Less than %ld bytes/sec transferred the last %ld seconds
Unknown error %d
operation aborted by callback
Read callback asked for PAUSE when not supported!
read function returned funny value
%x%s
seek callback returned error %d
the ioctl callback returned %d\n
ioctl callback returned error %d
necessary data rewind wasn't possible
The requested document is not new enough\n
The requested document is not old enough\n
select/poll returned error
Done waiting for 100-continue\n
transfer closed with %ld bytes remaining to read
transfer closed with outstanding read data remaining
No URL set!
Maximum (%ld) redirects followed
Issue another request to this URL: '%s'\n
Switch from POST to GET\n
Disables POST, goes with %s\n
Re-used connection seems dead, get a new one\n
Connection died, retrying a fresh connect\n
Rewinding stream by : %zd bytes on url %s (zero-length body)\n
Excess found in a non pipelined read: excess = %zd url = %s (zero-length body)\n
Ignoring the response-body\n
The entire document is already downloaded
HTTP server doesn't seem to support byte ranges. Cannot resume.
Simulate a HTTP 304 response!\n
Failed writing data
%s in chunked-encoding
Leftovers after chunking: %zu bytes\n
Rewinding %zu bytes\n
Rewinding stream by : %zu bytes on url %s (size = %ld, maxdownload = %ld, bytecount = %ld, nread = %zd)\n
Excess found in a non pipelined read: excess = %zu, size = %ld, maxdownload = %ld, bytecount = %ld\n
we are done reading and this is set to close, stop send\n
Failed to alloc scratch buffer!
We are completely uploaded and fine\n
%15[^?&/:]://%c
SESS
FLUSH
RELOAD
CURLOPT_SSL_VERIFYHOST no longer supports 1 as value!
Closing connection %ld\n
Connected to %s (%s) port %ld (#%ld)\n
User-Agent: %s\r\n
Connection #%ld to host %s left intact\n
%15[^\n:]://%[^\n/?:]%[^\n]
%[^\n/?:]%[^\n]
%s://
%s://%s
Warning: CURLOPT_PROXYAUTOCONFIG is 1 (default), so options set via CURLOPT_PROXY* are ignored.\n
memory shortage
Found connection %ld, with requests in the pipe (%zu)\n
We can reuse, but we want a new connection anyway\n
Re-using existing connection! (#%ld) with %s %s\n
No connections available.\n
<no protocol>
Illegal characters found in URL
%15[^:]:%[^\n]
file
%15[^\n:]://%[^\n/?]%[^\n]
%[^\n/?]%[^\n]
<url> malformed
FTP.
DICT.
DICT
LDAP.
LDAP
IMAP.
IMAP
SMTP.
smtp
POP3.
pop3
http
Rebuilt URL to: %s\n
Please URL encode %% as %%25, see RFC 6874.\n
Invalid IPv6 address format\n
Protocol \"%s\" not supported or disabled in libcurl
no_proxy
NO_PROXY
http_proxy
all_proxy
ALL_PROXY
socks5h
socks5
socks4a
socks4
socks
[%*45[0123456789abcdefABCDEF:.]%c
%s://%s%s%s:%hu%s%s%s
Port number out of range
Couldn't find host %s in the .netrc file; using defaults\n
anonymous
ftp@example.com
Connection %ld seems to be dead!\n
Found bundle for host %s: %p\n
Server doesn't support pipelining\n
Connection #%ld is still name resolving, can't reuse\n
Connection #%ld isn't open enough, can't reuse\n
IDN support not present, can't parse Unicode domains\n
%lu-
Couldn't resolve host '%s'
Couldn't resolve proxy '%s'
Connection cache is full, closing the oldest one.\n
SOCKS4 communication to %s:%d\n
%hu.%hu.%hu.%hu
SOCKS4 connect to %s (locally resolved)\n
Failed to resolve \"%s\" for SOCKS4 connect.
Too long SOCKS proxy name, can't use!\n
Failed to send SOCKS4 connect request.
Failed to receive SOCKS4 connect request ack.
SOCKS4 reply has wrong version, version should be 4.
SOCKS4%s request granted.\n
Can't complete SOCKS4 connection to %d.%d.%d.%d:%d. (%d), request rejected or failed.
Can't complete SOCKS4 connection to %d.%d.%d.%d:%d. (%d), request rejected because SOCKS server cannot connect to identd on the client.
Can't complete SOCKS4 connection to %d.%d.%d.%d:%d. (%d), request rejected because the client program and identd report different user-ids.
Can't complete SOCKS4 connection to %d.%d.%d.%d:%d. (%d), Unknown.
SOCKS5: server resolving disabled for hostnames of length > 255 [actual len=%zu]\n
SOCKS5: no connection here
SOCKS5: connection timeout
SOCKS5: error occurred during connection
Unable to send initial SOCKS5 request.
SOCKS5 nothing to read
SOCKS5 read timeout
SOCKS5 read error occurred
Unable to receive initial SOCKS5 response.
Received invalid version in initial SOCKS5 response.
Failed to send SOCKS5 sub-negotiation request.
Unable to receive SOCKS5 sub-negotiation response.
User was rejected by the SOCKS5 server (%d %d).
SOCKS5 GSSAPI per-message authentication is not supported.
No authentication method was acceptable. (It is quite likely that the SOCKS5 server wanted a username/password, since none was supplied to the server on this connection.)
No authentication method was acceptable.
Undocumented SOCKS5 mode attempted to be used by server.
Failed to resolve \"%s\" for SOCKS5 connect.
Failed to send SOCKS5 connect request.
Failed to receive SOCKS5 connect request ack.
SOCKS5 reply has wrong version, version should be 5.
Can't complete SOCKS5 connection to %d.%d.%d.%d:%d. (%d)
Can't complete SOCKS5 connection to %s:%d. (%d)
Can't complete SOCKS5 connection to %02x%02x:%02x%02x:%02x%02x:%02x%02x:%02x%02x:%02x%02x:%02x%02x:%02x%02x:%d. (%d)
/../
HOME
%s%s%s
.netrc
machine
login
password
WARNING: Using weak random seed\n
Unrecognized parameter value passed via CURLOPT_SSLVERSION
NNC_ABORT
Curl_SigloFreeAligned
D:\\Home\\teamcity\\work\\sdk\\Externals\\curl\\siglo\\curl_nintendo_allocator.c
aligned free called before initialized
\nError: Failed to allocate memory for nn::nsd::ResolveEx().\n\n
\nError: nn::nsd::ResolveEx() failed. Err Desc: %d\n\n
\nError: nn::nifm::GetCurrentProxySetting() failed. Err Desc: %d\n\n
nnCurlShim_fwrite
D:\\Home\\teamcity\\work\\sdk\\Externals\\curl\\siglo\\curl_nintendo_shim.c
unsupported function (%s) called
unsupported
nnCurlShim_fputs
nnCurlShim_fflush
nnCurlShim_fprintf
nnCurlShim_vfprintf
nnCurlShim_fclose
nnCurlShim_fopen
nnCurlShim_fread
nnCurlShim_fseek
nnCurlShim_fgets
nnCurlShim_stat
LibcurlResolver
Curl_SigloThreadGCSetActive
D:\\Home\\teamcity\\work\\sdk\\Externals\\curl\\siglo\\curl_nintendo_threads.c
Adding a thread structure to the garbage collector when it is uninitialized
Curl_SigloThreadGCSetInactive
attempting to add a thread context (%p) to the inactive list that was never placed in the active list
unable to add an inactive thread context to the inactive thread list
Curl_SigloThreadGCFinalize
nvnDeviceBuilderSetDefaults
nvnDeviceBuilderSetFlags
nvnDeviceBuilderGetFlags
nvnDeviceInitialize
nvnDeviceFinalize
nvnDeviceSetDebugLabel
nvnDeviceGetProcAddress
nvnDeviceGetInteger
nvnDeviceGetCurrentTimestampInNanoseconds
nvnDeviceSetIntermediateShaderCache
nvnDeviceGetTextureHandle
nvnDeviceGetTexelFetchHandle
nvnDeviceGetImageHandle
nvnDeviceInstallDebugCallback
nvnDeviceGenerateDebugDomainId
nvnDeviceSetWindowOriginMode
nvnDeviceSetDepthMode
nvnDeviceRegisterFastClearColor
nvnDeviceRegisterFastClearColori
nvnDeviceRegisterFastClearColorui
nvnDeviceRegisterFastClearDepth
nvnDeviceGetWindowOriginMode
nvnDeviceGetDepthMode
nvnDeviceGetTimestampInNanoseconds
nvnDeviceApplyDeferredFinalizes
nvnDeviceFinalizeCommandHandle
nvnDeviceWalkDebugDatabase
nvnDeviceGetSeparateTextureHandle
nvnDeviceGetSeparateSamplerHandle
nvnDeviceIsExternalDebuggerAttached
nvnQueueGetError
nvnQueueGetTotalCommandMemoryUsed
nvnQueueGetTotalControlMemoryUsed
nvnQueueGetTotalComputeMemoryUsed
nvnQueueResetMemoryUsageCounts
nvnQueueBuilderSetDevice
nvnQueueBuilderSetDefaults
nvnQueueBuilderSetFlags
nvnQueueBuilderSetCommandMemorySize
nvnQueueBuilderSetComputeMemorySize
nvnQueueBuilderSetControlMemorySize
nvnQueueBuilderGetQueueMemorySize
nvnQueueBuilderSetQueueMemory
nvnQueueBuilderSetCommandFlushThreshold
nvnQueueBuilderGetDevice
nvnQueueBuilderGetFlags
nvnQueueBuilderGetCommandMemorySize
nvnQueueBuilderGetComputeMemorySize
nvnQueueBuilderGetControlMemorySize
nvnQueueBuilderGetCommandFlushThreshold
nvnQueueBuilderGetMemorySize
nvnQueueBuilderGetMemory
nvnQueueInitialize
nvnQueueFinalize
nvnQueueSetDebugLabel
nvnQueueSubmitCommands
nvnQueueFlush
nvnQueueFinish
nvnQueuePresentTexture
nvnQueueAcquireTexture
nvnWindowBuilderSetDevice
nvnWindowBuilderSetDefaults
nvnWindowBuilderSetNativeWindow
nvnWindowBuilderSetTextures
nvnWindowBuilderSetPresentInterval
nvnWindowBuilderGetDevice
nvnWindowBuilderGetNumTextures
nvnWindowBuilderGetTexture
nvnWindowBuilderGetNativeWindow
nvnWindowBuilderGetPresentInterval
nvnWindowInitialize
nvnWindowFinalize
nvnWindowSetDebugLabel
nvnWindowAcquireTexture
nvnWindowGetNativeWindow
nvnWindowGetPresentInterval
nvnWindowSetPresentInterval
nvnWindowSetCrop
nvnWindowGetCrop
nvnProgramInitialize
nvnProgramFinalize
nvnProgramSetDebugLabel
nvnProgramSetShaders
nvnMemoryPoolBuilderSetDevice
nvnMemoryPoolBuilderSetDefaults
nvnMemoryPoolBuilderSetStorage
nvnMemoryPoolBuilderSetFlags
nvnMemoryPoolBuilderGetDevice
nvnMemoryPoolBuilderGetMemory
nvnMemoryPoolBuilderGetSize
nvnMemoryPoolBuilderGetFlags
nvnMemoryPoolInitialize
nvnMemoryPoolSetDebugLabel
nvnMemoryPoolFinalize
nvnMemoryPoolMap
nvnMemoryPoolFlushMappedRange
nvnMemoryPoolInvalidateMappedRange
nvnMemoryPoolGetBufferAddress
nvnMemoryPoolMapVirtual
nvnMemoryPoolGetSize
nvnMemoryPoolGetFlags
nvnTexturePoolInitialize
nvnTexturePoolSetDebugLabel
nvnTexturePoolFinalize
nvnTexturePoolRegisterTexture
nvnTexturePoolRegisterImage
nvnTexturePoolGetMemoryPool
nvnTexturePoolGetMemoryOffset
nvnTexturePoolGetSize
nvnSamplerPoolInitialize
nvnSamplerPoolSetDebugLabel
nvnSamplerPoolFinalize
nvnSamplerPoolRegisterSampler
nvnSamplerPoolRegisterSamplerBuilder
nvnSamplerPoolGetMemoryPool
nvnSamplerPoolGetMemoryOffset
nvnSamplerPoolGetSize
nvnBufferBuilderSetDevice
nvnBufferBuilderSetDefaults
nvnBufferBuilderSetStorage
nvnBufferBuilderGetDevice
nvnBufferBuilderGetMemoryPool
nvnBufferBuilderGetMemoryOffset
nvnBufferBuilderGetSize
nvnBufferInitialize
nvnBufferSetDebugLabel
nvnBufferFinalize
nvnBufferMap
nvnBufferGetAddress
nvnBufferFlushMappedRange
nvnBufferInvalidateMappedRange
nvnBufferGetMemoryPool
nvnBufferGetMemoryOffset
nvnBufferGetSize
nvnBufferGetDebugID
nvnTextureBuilderSetDevice
nvnTextureBuilderSetDefaults
nvnTextureBuilderSetFlags
nvnTextureBuilderSetTarget
nvnTextureBuilderSetWidth
nvnTextureBuilderSetHeight
nvnTextureBuilderSetDepth
nvnTextureBuilderSetSize1D
nvnTextureBuilderSetSize2D
nvnTextureBuilderSetSize3D
nvnTextureBuilderSetLevels
nvnTextureBuilderSetFormat
nvnTextureBuilderSetSamples
nvnTextureBuilderSetSwizzle
nvnTextureBuilderSetDepthStencilMode
nvnTextureBuilderGetStorageSize
nvnTextureBuilderGetStorageAlignment
nvnTextureBuilderSetStorage
nvnTextureBuilderSetPackagedTextureData
nvnTextureBuilderSetPackagedTextureLayout
nvnTextureBuilderSetStride
nvnTextureBuilderSetGLTextureName
nvnTextureBuilderGetStorageClass
nvnTextureBuilderGetDevice
nvnTextureBuilderGetFlags
nvnTextureBuilderGetTarget
nvnTextureBuilderGetWidth
nvnTextureBuilderGetHeight
nvnTextureBuilderGetDepth
nvnTextureBuilderGetLevels
nvnTextureBuilderGetFormat
nvnTextureBuilderGetSamples
nvnTextureBuilderGetSwizzle
nvnTextureBuilderGetDepthStencilMode
nvnTextureBuilderGetPackagedTextureData
nvnTextureBuilderGetPackagedTextureLayout
nvnTextureBuilderGetStride
nvnTextureBuilderGetSparseTileLayout
nvnTextureBuilderGetGLTextureName
nvnTextureBuilderGetZCullStorageSize
nvnTextureBuilderGetMemoryPool
nvnTextureBuilderGetMemoryOffset
nvnTextureViewSetDefaults
nvnTextureViewSetLevels
nvnTextureViewSetLayers
nvnTextureViewSetFormat
nvnTextureViewSetSwizzle
nvnTextureViewSetDepthStencilMode
nvnTextureViewSetTarget
nvnTextureViewGetLevels
nvnTextureViewGetLayers
nvnTextureViewGetFormat
nvnTextureViewGetSwizzle
nvnTextureViewGetDepthStencilMode
nvnTextureViewGetTarget
nvnTextureViewCompare
nvnTextureInitialize
nvnTextureGetZCullStorageSize
nvnTextureFinalize
nvnTextureSetDebugLabel
nvnTextureGetStorageClass
nvnTextureGetViewOffset
nvnTextureGetFlags
nvnTextureGetTarget
nvnTextureGetWidth
nvnTextureGetHeight
nvnTextureGetDepth
nvnTextureGetLevels
nvnTextureGetFormat
nvnTextureGetSamples
nvnTextureGetSwizzle
nvnTextureGetDepthStencilMode
nvnTextureGetStride
nvnTextureGetTextureAddress
nvnTextureGetSparseTileLayout
nvnTextureWriteTexels
nvnTextureWriteTexelsStrided
nvnTextureReadTexels
nvnTextureReadTexelsStrided
nvnTextureFlushTexels
nvnTextureInvalidateTexels
nvnTextureGetMemoryPool
nvnTextureGetMemoryOffset
nvnTextureGetStorageSize
nvnTextureCompare
nvnTextureGetDebugID
nvnSamplerBuilderSetDevice
nvnSamplerBuilderSetDefaults
nvnSamplerBuilderSetMinMagFilter
nvnSamplerBuilderSetWrapMode
nvnSamplerBuilderSetLodClamp
nvnSamplerBuilderSetLodBias
nvnSamplerBuilderSetCompare
nvnSamplerBuilderSetBorderColor
nvnSamplerBuilderSetBorderColori
nvnSamplerBuilderSetBorderColorui
nvnSamplerBuilderSetMaxAnisotropy
nvnSamplerBuilderSetReductionFilter
nvnSamplerBuilderSetLodSnap
nvnSamplerBuilderGetDevice
nvnSamplerBuilderGetMinMagFilter
nvnSamplerBuilderGetWrapMode
nvnSamplerBuilderGetLodClamp
nvnSamplerBuilderGetLodBias
nvnSamplerBuilderGetCompare
nvnSamplerBuilderGetBorderColor
nvnSamplerBuilderGetBorderColori
nvnSamplerBuilderGetBorderColorui
nvnSamplerBuilderGetMaxAnisotropy
nvnSamplerBuilderGetReductionFilter
nvnSamplerBuilderGetLodSnap
nvnSamplerInitialize
nvnSamplerFinalize
nvnSamplerSetDebugLabel
nvnSamplerGetMinMagFilter
nvnSamplerGetWrapMode
nvnSamplerGetLodClamp
nvnSamplerGetLodBias
nvnSamplerGetCompare
nvnSamplerGetBorderColor
nvnSamplerGetBorderColori
nvnSamplerGetBorderColorui
nvnSamplerGetMaxAnisotropy
nvnSamplerGetReductionFilter
nvnSamplerCompare
nvnSamplerGetDebugID
nvnBlendStateSetDefaults
nvnBlendStateSetBlendTarget
nvnBlendStateSetBlendFunc
nvnBlendStateSetBlendEquation
nvnBlendStateSetAdvancedMode
nvnBlendStateSetAdvancedOverlap
nvnBlendStateSetAdvancedPremultipliedSrc
nvnBlendStateSetAdvancedNormalizedDst
nvnBlendStateGetBlendTarget
nvnBlendStateGetBlendFunc
nvnBlendStateGetBlendEquation
nvnBlendStateGetAdvancedMode
nvnBlendStateGetAdvancedOverlap
nvnBlendStateGetAdvancedPremultipliedSrc
nvnBlendStateGetAdvancedNormalizedDst
nvnColorStateSetDefaults
nvnColorStateSetBlendEnable
nvnColorStateSetLogicOp
nvnColorStateSetAlphaTest
nvnColorStateGetBlendEnable
nvnColorStateGetLogicOp
nvnColorStateGetAlphaTest
nvnChannelMaskStateSetDefaults
nvnChannelMaskStateSetChannelMask
nvnChannelMaskStateGetChannelMask
nvnMultisampleStateSetDefaults
nvnMultisampleStateSetMultisampleEnable
nvnMultisampleStateSetSamples
nvnMultisampleStateSetAlphaToCoverageEnable
nvnMultisampleStateSetAlphaToCoverageDither
nvnMultisampleStateGetMultisampleEnable
nvnMultisampleStateGetSamples
nvnMultisampleStateGetAlphaToCoverageEnable
nvnMultisampleStateGetAlphaToCoverageDither
nvnMultisampleStateSetRasterSamples
nvnMultisampleStateGetRasterSamples
nvnMultisampleStateSetCoverageModulationMode
nvnMultisampleStateGetCoverageModulationMode
nvnMultisampleStateSetCoverageToColorEnable
nvnMultisampleStateGetCoverageToColorEnable
nvnMultisampleStateSetCoverageToColorOutput
nvnMultisampleStateGetCoverageToColorOutput
nvnMultisampleStateSetSampleLocationsEnable
nvnMultisampleStateGetSampleLocationsEnable
nvnMultisampleStateGetSampleLocationsGrid
nvnMultisampleStateSetSampleLocationsGridEnable
nvnMultisampleStateGetSampleLocationsGridEnable
nvnMultisampleStateSetSampleLocations
nvnPolygonStateSetDefaults
nvnPolygonStateSetCullFace
nvnPolygonStateSetFrontFace
nvnPolygonStateSetPolygonMode
nvnPolygonStateSetPolygonOffsetEnables
nvnPolygonStateGetCullFace
nvnPolygonStateGetFrontFace
nvnPolygonStateGetPolygonMode
nvnPolygonStateGetPolygonOffsetEnables
nvnDepthStencilStateSetDefaults
nvnDepthStencilStateSetDepthTestEnable
nvnDepthStencilStateSetDepthWriteEnable
nvnDepthStencilStateSetDepthFunc
nvnDepthStencilStateSetStencilTestEnable
nvnDepthStencilStateSetStencilFunc
nvnDepthStencilStateSetStencilOp
nvnDepthStencilStateGetDepthTestEnable
nvnDepthStencilStateGetDepthWriteEnable
nvnDepthStencilStateGetDepthFunc
nvnDepthStencilStateGetStencilTestEnable
nvnDepthStencilStateGetStencilFunc
nvnDepthStencilStateGetStencilOp
nvnVertexAttribStateSetDefaults
nvnVertexAttribStateSetFormat
nvnVertexAttribStateSetStreamIndex
nvnVertexAttribStateGetFormat
nvnVertexAttribStateGetStreamIndex
nvnVertexStreamStateSetDefaults
nvnVertexStreamStateSetStride
nvnVertexStreamStateSetDivisor
nvnVertexStreamStateGetStride
nvnVertexStreamStateGetDivisor
nvnCommandBufferInitialize
nvnCommandBufferFinalize
nvnCommandBufferSetDebugLabel
nvnCommandBufferSetMemoryCallback
nvnCommandBufferSetMemoryCallbackData
nvnCommandBufferAddCommandMemory
nvnCommandBufferAddControlMemory
nvnCommandBufferGetCommandMemorySize
nvnCommandBufferGetCommandMemoryUsed
nvnCommandBufferGetCommandMemoryFree
nvnCommandBufferGetControlMemorySize
nvnCommandBufferGetControlMemoryUsed
nvnCommandBufferGetControlMemoryFree
nvnCommandBufferBeginRecording
nvnCommandBufferEndRecording
nvnCommandBufferCallCommands
nvnCommandBufferCopyCommands
nvnCommandBufferBindBlendState
nvnCommandBufferBindChannelMaskState
nvnCommandBufferBindColorState
nvnCommandBufferBindMultisampleState
nvnCommandBufferBindPolygonState
nvnCommandBufferBindDepthStencilState
nvnCommandBufferBindVertexAttribState
nvnCommandBufferBindVertexStreamState
nvnCommandBufferBindProgram
nvnCommandBufferBindVertexBuffer
nvnCommandBufferBindVertexBuffers
nvnCommandBufferBindUniformBuffer
nvnCommandBufferBindUniformBuffers
nvnCommandBufferBindTransformFeedbackBuffer
nvnCommandBufferBindTransformFeedbackBuffers
nvnCommandBufferBindStorageBuffer
nvnCommandBufferBindStorageBuffers
nvnCommandBufferBindTexture
nvnCommandBufferBindTextures
nvnCommandBufferBindImage
nvnCommandBufferBindImages
nvnCommandBufferSetPatchSize
nvnCommandBufferSetInnerTessellationLevels
nvnCommandBufferSetOuterTessellationLevels
nvnCommandBufferSetPrimitiveRestart
nvnCommandBufferBeginTransformFeedback
nvnCommandBufferEndTransformFeedback
nvnCommandBufferPauseTransformFeedback
nvnCommandBufferResumeTransformFeedback
nvnCommandBufferDrawTransformFeedback
nvnCommandBufferDrawArrays
nvnCommandBufferDrawElements
nvnCommandBufferDrawElementsBaseVertex
nvnCommandBufferDrawArraysInstanced
nvnCommandBufferDrawElementsInstanced
nvnCommandBufferDrawArraysIndirect
nvnCommandBufferDrawElementsIndirect
nvnCommandBufferMultiDrawArraysIndirectCount
nvnCommandBufferMultiDrawElementsIndirectCount
nvnCommandBufferClearColor
nvnCommandBufferClearColori
nvnCommandBufferClearColorui
nvnCommandBufferClearDepthStencil
nvnCommandBufferDispatchCompute
nvnCommandBufferDispatchComputeIndirect
nvnCommandBufferSetViewport
nvnCommandBufferSetViewports
nvnCommandBufferSetViewportSwizzles
nvnCommandBufferSetScissor
nvnCommandBufferSetScissors
nvnCommandBufferSetDepthRange
nvnCommandBufferSetDepthBounds
nvnCommandBufferSetDepthRanges
nvnCommandBufferSetTiledCacheAction
nvnCommandBufferSetTiledCacheTileSize
nvnCommandBufferBindSeparateTexture
nvnCommandBufferBindSeparateSampler
nvnCommandBufferBindSeparateTextures
nvnCommandBufferBindSeparateSamplers
nvnCommandBufferSetStencilValueMask
nvnCommandBufferSetStencilMask
nvnCommandBufferSetStencilRef
nvnCommandBufferSetBlendColor
nvnCommandBufferSetPointSize
nvnCommandBufferSetLineWidth
nvnCommandBufferSetPolygonOffsetClamp
nvnCommandBufferSetAlphaRef
nvnCommandBufferSetSampleMask
nvnCommandBufferSetRasterizerDiscard
nvnCommandBufferSetDepthClamp
nvnCommandBufferSetConservativeRasterEnable
nvnCommandBufferSetConservativeRasterDilate
nvnCommandBufferSetSubpixelPrecisionBias
nvnCommandBufferCopyBufferToTexture
nvnCommandBufferCopyTextureToBuffer
nvnCommandBufferCopyTextureToTexture
nvnCommandBufferCopyBufferToBuffer
nvnCommandBufferClearBuffer
nvnCommandBufferClearTexture
nvnCommandBufferClearTexturei
nvnCommandBufferClearTextureui
nvnCommandBufferUpdateUniformBuffer
nvnCommandBufferReportCounter
nvnCommandBufferResetCounter
nvnCommandBufferReportValue
nvnCommandBufferSetRenderEnable
nvnCommandBufferSetRenderEnableConditional
nvnCommandBufferSetRenderTargets
nvnCommandBufferDiscardColor
nvnCommandBufferDiscardDepthStencil
nvnCommandBufferDownsample
nvnCommandBufferTiledDownsample
nvnCommandBufferDownsampleTextureView
nvnCommandBufferTiledDownsampleTextureView
nvnCommandBufferBarrier
nvnCommandBufferWaitSync
nvnCommandBufferFenceSync
nvnCommandBufferSetTexturePool
nvnCommandBufferSetSamplerPool
nvnCommandBufferSetShaderScratchMemory
nvnCommandBufferSaveZCullData
nvnCommandBufferRestoreZCullData
nvnCommandBufferSetCopyRowStride
nvnCommandBufferSetCopyImageStride
nvnCommandBufferGetCopyRowStride
nvnCommandBufferGetCopyImageStride
nvnCommandBufferDrawTexture
nvnProgramSetSubroutineLinkage
nvnCommandBufferSetProgramSubroutines
nvnCommandBufferBindCoverageModulationTable
nvnCommandBufferResolveDepthBuffer
nvnCommandBufferSetColorReductionEnable
nvnCommandBufferSetColorReductionThresholds
nvnCommandBufferPushDebugGroupStatic
nvnCommandBufferPushDebugGroupDynamic
nvnCommandBufferPushDebugGroup
nvnCommandBufferPopDebugGroup
nvnCommandBufferPopDebugGroupId
nvnCommandBufferInsertDebugMarkerStatic
nvnCommandBufferInsertDebugMarkerDynamic
nvnCommandBufferInsertDebugMarker
nvnCommandBufferGetMemoryCallback
nvnCommandBufferGetMemoryCallbackData
nvnCommandBufferIsRecording
nvnSyncInitialize
nvnSyncFinalize
nvnSyncSetDebugLabel
nvnQueueFenceSync
nvnSyncWait
nvnQueueWaitSync
nvnEventBuilderSetDefaults
nvnEventBuilderSetStorage
nvnEventBuilderGetStorage
nvnEventInitialize
nvnEventFinalize
nvnEventGetValue
nvnEventSignal
nvnCommandBufferWaitEvent
nvnCommandBufferSignalEvent
nvnCommandBufferSetStencilCullCriteria
OnOff
Down
Disable
NormalButton
DecisionButton
SelectButton
CheckButton
TouchOffButton
TouchOffCheckButton
DragButton
TouchDragButton
Check
Release
Cancel
Touch
Signature check failed ('%c%c%c%c' must be '%c%c%c%c').
__Combined.bntx
%s_%d.%s
%s/%s
%s/%s/%s
__ArchiveShader.bnsh
__arcsh
__ArchiveShader.bushvt
__ArchiveShader
bushvt
ArchiveShader-%s.bnsh
%s/%s/
_ash110
_ash111
SARC
SFAT
SFNT
%08x
uConstantBufferForVertexShader
uConstantBufferForGeometryShader
uConstantBufferForPixelShader
uTexture0
uTexture1
uTexture2
aVertexIndex
aPosition
aTexCoord
%s_%s.bflan
%s.bflyt
__CUS_Vec2_0
__CUS_Vec2_1
__CUS_Vec2_2
__CUS_Vec2_3
__CUS_Vec3_0
__CUS_Vec3_1
__CUS_Vec3_2
__CUS_Vec3_3
__CUS_Rgba_0
__CUS_Rgba_1
__CUS_Rgba_2
__CUS_Rgba_3
__CUS_IVec2_0
__CUS_IVec2_1
__CUS_IVec2_2
__CUS_IVec2_3
__CUS_Int_0
__CUS_Int_1
__CUS_Int_2
__CUS_Int_3
__CUS_Float_0
__CUS_Float_1
__CUS_Float_2
__CUS_Float_3
_%X_%X_%X_%X
aVertex
ShaderParam
PerCharacterParamBlock
ShaderParamBlackWhiteInterpolation
uTextureSrc
g3d_vertex
g3d_index
pia common heap
IN_ANY_ADDR:%d
%04X:%04X:%04X:%04X:%04X:%04X:%04X:%04X:%d
%d.%d.%d.%d:%d
Pia BackgroundScheduler
pia nex heap
D:\\home\\ead-p2p\\Env\\Lib\\NintendoSDK\\NintendoSDK-NEX\\NintendoSDK-NEX-for_NX-4_6_0-S530-20180627-ja\\NintendoSDK-NEX\\Include\\OnlineCore/src/Core/InstanceTable.h
nncs1-%.n.n.srv.nintendo.net
nncs2-%.n.n.srv.nintendo.net
NatDetectionJob::StepPreTest
NatDetectionJob::StepComplete
NatDetectionJob::StepStart
NatDetectionJob::StepEnd
NatDetectionJob::StepSend
NatDetectionJob::StepWait
NatDetectionJob::StepRetry
NexNatServerAddressResolveJob::StepResolveNatServerAddress
NexNatServerAddressResolveJob::StepComplete
NexNatServerAddressResolveJob::StepRequestRelayServerSetting
NexNatServerAddressResolveJob::StepWaitRequestRelayServerSetting
NexNatServerAddressResolveJob::StepResolveRelayServerSetting
NexJoinMeshJob::SetupLocalPlayerInfo
NexJoinMeshJob::StartMonitoringServerAddressResolution
NexJoinMeshJob::SetupLocalStation
NexJoinMeshJob::StartBandwidthCheck
NexJoinMeshJob::CompleteProcess
NexJoinMeshJob::WaitBandwidthCheck
NexJoinMeshJob::LeaveMeshWithHostMigration
NexJoinMeshJob::LeaveMesh
NexJoinMeshJob::WaitCheckHostConnection
NexJoinMeshJob::WaitCheckKickoutJob
NexCreateMeshJob::SetupLocalPlayerInfo
NexCreateMeshJob::StartMonitoringServerAddressResolution
NexCreateMeshJob::SetupLocalStation
%016llx
MonitoringDataSendJob::StepSendReport
MonitoringServerAddressResolveJob::StepResolveMonitoringServerAddress
g%08x.%%.p.srv.nintendo.net
1.2.11.f-NINTENDO-SDK-v1
need dictionary
stream end
file error
stream error
data error
insufficient memory
buffer error
incompatible version
NexConnectStationJob::TestCurrentAddress
NexConnectStationJob::PrepareNatTraversal
NexConnectStationJob::ResolveCurrentAddress
ConnectStationJob::ConnectionFailed
NexConnectStationJob::WaitForNatTraversalCompleted
NexConnectStationJob::WaitForNatTraversalStarted
NexConnectStationJob::PrepareNatTraversalByRelay
NexConnectStationJob::WaitForNatTraversalStartedByRelay
NexConnectStationJob::WaitForNatTraversalCompletedByRelay
NexConnectStationJob::TryCurrentAddress
ConnectStationJob::SendConnectionRequest
NexMatchJoinSessionJob::LeaveJoinedMatchmakeSession
nex::NexMatchJoinSessionJob::CompleteFailure
NexMatchJoinSessionJob::JoinMatchmakeSession
NexMatchJoinSessionJob::WaitLeaveJoinedMatchmakeSession
NexMatchJoinSessionJob::MeshCleanup
NexMatchJoinSessionJob::LeaveMatchmakeSession
NexMatchJoinSessionJob::WaitJoinMatchmake
NexMatchJoinSessionJob::WaitNotification
NexMatchJoinSessionJob::GetStationLocation
NexMatchJoinSessionJob::WaitGetStationLocation
NexMatchJoinSessionJob::StartNatSession
NexMatchJoinSessionJob::WaitStartNatSession
JoinSessionJob::CompleteProcess
NexMatchJoinSessionJob::CleanupForRetryJoinMesh
JoinSessionJob::MeshStartup
NexMatchJoinSessionJob::CompleteFailure
NexMatchJoinSessionJob::WaitLeaveMatchmakeSessionCompanions
NexMatchJoinSessionJob::WaitLeaveBufferMatchmakeSession
NexMatchJoinSessionJob::WaitLeaveCurrentMatchmakeSession
NexMatchJoinSessionJob::WaitForRetryJoinMesh
NexMatchJointSessionJob::CallSessionEvent
NexMatchJointSessionJob::CallDestroySessionEvent
NexMatchJointSessionJob::ProcessFailure
NexMatchJointSessionJob::StartLeaveMesh
NexMatchJointSessionJob::CloseMatchmakeSession
NexMatchJointSessionJob::WaitCloseMatchmakeSession
NexMatchJointSessionJob::CloseJointSessionParticipation
NexMatchJointSessionJob::SendInvitationAsCompanion
NexMatchJointSessionJob::WaitCloseJointSessionParticipation
NexMatchJointSessionJob::SendDestroyInvitation
NexMatchJointSessionJob::GetMatchmakeSessionOwners
NexMatchJointSessionJob::WaitGetMatchmakeSessionOwners
NexMatchJointSessionJob::WaitForAnswerToDestroyInvitation
NexMatchJointSessionJob::ResendDestroyInvitation
NexMatchJointSessionJob::WaitForInvitationAsCompanion
NexMatchJointSessionJob::SendAnswerToInvitation
NexMatchJointSessionJob::SendAnswerToDestroyInvitation
NexMatchJointSessionJob::WaitForAnswerToInvitation
NexMatchJointSessionJob::ResendInvitationAsCompanion
NexMatchJointSessionJob::StartCreateMatchmakeSession
NexMatchJointSessionJob::StartJoinMatchmakeSession
NexMatchJointSessionJob::StartRandomMatchmake
NexMatchJointSessionJob::SendLeaveMeshCompanion
NexMatchJointSessionJob::WaitRandomMatchmake
NexMatchJointSessionJob::WaitNotification
NexMatchJointSessionJob::WaitCreateMatchmakeSession
NexMatchJointSessionJob::WaitJoinMatchmakeSession
NexMatchJointSessionJob::SendNextSessionId
NexMatchJointSessionJob::SendPreparedForMigrateSession
NexMatchJointSessionJob::WaitCompanionStationPrepared
NexMatchJointSessionJob::ResendNextSessionId
NexMatchJointSessionJob::WaitUntilCompanionLeavesMesh
NexMatchJointSessionJob::StartLeavePreviousMesh
NexMatchJointSessionJob::WaitNextSessionId
NexMatchJointSessionJob::WaitUntilLeaderLeavesMesh
NexMatchJointSessionJob::GetNextMatchmakeSessionInfo
NexMatchJointSessionJob::WaitGetNextMatchmakeSessionInfo
NexMatchJointSessionJob::StartLeavePreviousMatchmakeSession
NexMatchJointSessionJob::WaitMeshRestart
NexMatchJointSessionJob::WaitLeavePreviousMesh
NexMatchJointSessionJob::WaitLeavePreviousMatchmakeSession
NexMatchJointSessionJob::MeshRestart
NexMatchJointSessionJob::WaitStartRetryJoinMesh
NexMatchJointSessionJob::StartGetNextMeshHostStationLocation
NexMatchJointSessionJob::StartCreateNextMesh
NexMatchJointSessionJob::WaitCreateNextMesh
NexMatchJointSessionJob::WaitCompanionStation
NexMatchJointSessionJob::WaitGetNextMeshHostStationLocation
NexMatchJointSessionJob::StartJoinNextMesh
NexMatchJointSessionJob::WaitJoinNextMesh
NexMatchJointSessionJob::WaitHostStationId
NexMatchJointSessionJob::WaitUntilCompanionCompletion
NexMatchJointSessionJob::SendCompletionForMigrateSession
NexMatchJointSessionJob::SendCompletionInvitation
NexMatchJointSessionJob::WaitForAnswerToCompletionInvitation
NexMatchJointSessionJob::WaitCompletionInvitation
NexMatchJointSessionJob::UpdateJointSessionOpenStatus
NexMatchJointSessionJob::ProcessComplete
NexMatchJointSessionJob::WaitUpdateJointSessionOpenStatus
NexMatchJointSessionJob::StartLeaveCurrentMatchmakeSession
NexMatchJointSessionJob::WaitLeaveMesh
NexMatchJointSessionJob::WaitHostMigrated
NexMatchJointSessionJob::WaitLeaveBufferMatchmakeSession
NexMatchJointSessionJob::StartLeaveBufferMatchmakeSession
NexMatchJointSessionJob::WaitLeaveCurrentMatchmakeSession
NexMatchLeaveSessionJob::GetMatchmakeSessionOwners
nex::NexMatchLeaveSessionJob::SendMonitoringData
nex::NexMatchLeaveSessionJob::LeaveMesh
NexMatchLeaveSessionJob::WaitGetMatchmakeSessionOwners
LeaveSessionJob::LeaveMesh
NexMatchLeaveSessionJob::WaitMigrateMatchmakeSessionOwner
NexMatchLeaveSessionJob::WaitLeaveMatchmakeSessionCompanions
LeaveSessionJob::LeaveCurrentMatchmakeSession
NexMatchLeaveSessionJob::LeaveMatchmakeSessionCompanions
NexMatchLeaveSessionJob::MigrateMatchmakeSessionOwner
LeaveSessionJob::LeaveBufferMatchmakeSession
LeaveSessionJob::SendMonitoringData
NexMatchCreateSessionJob::LeaveJoinedMatchmakeSession
nex::NexMatchCreateSessionJob::CompleteFailure
NexMatchCreateSessionJob::CreateMatchmakeSession
NexMatchCreateSessionJob::WaitLeaveJoinedMatchmakeSession
NexMatchCreateSessionJob::CompleteFailure
NexMatchCreateSessionJob::WaitCreateMatchmake
NexMatchCreateSessionJob::UnregisterGathering
NexMatchCreateSessionJob::WaitNotification
NexMatchCreateSessionJob::StartNatSession
NexMatchCreateSessionJob::WaitStartNatSession
CreateSessionJob::MeshStartup
CreateSessionJob::CompleteProcess
NexMatchCreateSessionJob::WaitUnregisterGathering
NexMatchDestroySessionJob::MeshCleanup
NexMatchDestroySessionJob::UnregisterBufferMatchmakeSession
nex::NexMatchDestroySessionJob::SendMonitoringData
NexMatchDestroySessionJob::UnregisterCurrentMatchmakeSession
NexMatchDestroySessionJob::WaitUnregisterBufferMatchmakeSession
DestroySessionJob::SendMonitoringData
NexMatchDestroySessionJob::WaitUnregisterCurrentMatchmakeSession
NexMatchBrowseMatchmakeJob::WaitFindSessionByOwner
NexMatchBrowseMatchmakeJob::WaitFindSessionByParticipant
NexMatchBrowseMatchmakeJob::WaitFindSessionBySessionId
NexMatchBrowseMatchmakeJob::BrowseMatchmake
NexMatchBrowseMatchmakeJob::WaitBrowseMatchmake
session::BrowseMatchmakeJob::CompleteProcess
NexMatchBrowseMatchmakeJob::WaitRequestSessionInfo
NexMatchRandomMatchmakeJob::LeaveJoinedMatchmakeSession
nex::NexMatchRandomMatchmakeJob::CompleteFailure
NexMatchRandomMatchmakeJob::RandomMatchmake
NexMatchRandomMatchmakeJob::WaitLeaveJoinedMatchmakeSession
NexMatchRandomMatchmakeJob::CompleteFailure
NexMatchRandomMatchmakeJob::WaitRandomMatchmake
NexMatchRandomMatchmakeJob::LeaveMatchmakeSession
NexMatchRandomMatchmakeJob::WaitNotification
NexMatchRandomMatchmakeJob::StartNatSession
NexMatchRandomMatchmakeJob::WaitStartNatSession
RandomMatchmakeJob::MeshStartup
RandomMatchmakeJob::CompleteProcess
NexMatchRandomMatchmakeJob::CleanupForRetryJoinMesh
NexMatchRandomMatchmakeJob::WaitLeaveMatchmakeSessionCompanions
NexMatchRandomMatchmakeJob::WaitLeaveBufferMatchmakeSession
NexMatchRandomMatchmakeJob::WaitLeaveCurrentMatchmakeSession
NexMatchRandomMatchmakeJob::WaitForRetryJoinMesh
NexMatchRandomMatchmakeJob::ChangeParticipation
NexMatchRandomMatchmakeJob::WaitChangeParticipation
NexMatchClearSystemPasswordJob::ClearMatchmakeSystemPassword
NexMatchClearSystemPasswordJob::WaitClearMatchmakeSystemPassword
ClearMatchmakeSystemPasswordJob::FailureProcess
ClearMatchmakeSystemPasswordJob::CompleteProcess
NexMatchCommunityManagementJob::FindCommunityByCommunityId
NexMatchCommunityManagementJob::FindCommunityByOwner
NexMatchCommunityManagementJob::FindCommunityByParticipant
NexMatchCommunityManagementJob::FindOfficialCommunity
NexMatchCommunityManagementJob::WaitFindCommunityByCommunityId
NexMatchCommunityManagementJob::WaitFindCommunityByParticipant
NexMatchCommunityManagementJob::WaitFindOfficialCommunity
NexMatchCommunityManagementJob::WaitFindCommunityByOwner
NexMatchCommunityManagementJob::CreateCommunity
NexMatchCommunityManagementJob::WaitCreateCommunity
NexMatchCommunityManagementJob::JoinCommunity
NexMatchCommunityManagementJob::WaitJoinCommunity
NexMatchCommunityManagementJob::UpdateCommunity
NexMatchCommunityManagementJob::WaitUpdateCommunity
NexMatchCommunityManagementJob::DestroyCommunity
NexMatchCommunityManagementJob::WaitDestroyCommunity
NexMatchCommunityManagementJob::LeaveCommunity
NexMatchCommunityManagementJob::WaitLeaveCommunity
NexMatchUpdateSessionSettingJob::UpdateApplicationData
NexMatchUpdateSessionSettingJob::UpdateAttributes
NexMatchUpdateSessionSettingJob::ModifyAttribute
NexMatchUpdateSessionSettingJob::UpdateSessionSetting
NexMatchUpdateSessionSettingJob::WaitUpdateSessionSetting
UpdateSessionSettingJob::CompleteProcess
NexMatchUpdateSessionSettingJob::WaitModifyAttribute
NexMatchUpdateSessionSettingJob::WaitUpdateAttributes
NexMatchUpdateSessionSettingJob::WaitUpdateApplicationData
NexMatchGenerateSystemPasswordJob::GenerateMatchmakeSystemPassword
NexMatchGenerateSystemPasswordJob::WaitGenerateMatchmakeSystemPassword
GenerateMatchmakeSystemPasswordJob::FailureProcess
GenerateMatchmakeSystemPasswordJob::CompleteProcess
NexProcessHostMigrationJob::ManualHostMigration
NexProcessHostMigrationJob::AutomaticHostMigration
NexProcessHostMigrationJob::NexPrepareForBecomingHost
NexProcessHostMigrationJob::WaitNewHostGreeting
NexProcessHostMigrationJob::HostMigrationFailure
NexProcessHostMigrationJob::NexGetMatchMakingClientHost
NexProcessHostMigrationJob::WaitAfterPrepareForBecomingHost
NexProcessHostMigrationJob::SendGreetingMessage
NexProcessHostMigrationJob::NexSendRankDecision
ProcessHostMigrationJob::HostMigrationFailure
NexProcessHostMigrationJob::NexWaitRankDecision
NexProcessHostMigrationJob::NexWaitMatchMakingClientHost
NexProcessHostMigrationJob::NexCheckMatchMakingClientHost
NexProcessHostMigrationJob::NexCheckOldHostDisconnection
NexProcessHostMigrationJob::NexPrepareForBecomingHostMulti
NexProcessHostMigrationJob::UpdateSessionOpenStatus
NexProcessHostMigrationJob::HostMigrationSuccess
NexProcessHostMigrationJob::WaitUpdateSessionOpenStatus
NexProcessHostMigrationJob::SendMigrationFinish
NexProcessHostMigrationJob::NexWaitCheckOldHostDisconnection
NexProcessHostMigrationJob::NexCheckMatchMakingClientHostIsUpdated
NexProcessHostMigrationJob::NexWaitMatchMakingClientHostIsUpdated
pia lan heap
LanConnectStationJob::TryCurrentAddress
LanMatchJoinSessionJob::JoinMatchmakeSession
nn::pia::lan::LanMatchJoinSessionJob::CompleteFailure
LanMatchJoinSessionJob::WaitJoinMatchmake
LanMatchJoinSessionJob::GetStationLocation
LanMatchJoinSessionJob::LeaveMatchmakeSession
LanMatchJoinSessionJob::WaitGetStationLocation
LanMatchJoinSessionJob::LeaveMesh
lan::LanMatchJoinSessionJob::CompleteFailure
LanMatchJoinSessionJob::WaitRequestSessionInfo
LanMatchJoinSessionJob::CompleteProcess
LanMatchJoinSessionJob::MeshCleanup
LanMatchJoinSessionJob::WaitForRetryJoinMatchmakeSession
LanMatchJoinSessionJob::CompleteFailure
LanMatchJoinSessionJob::WaitLeaveMatchmakeSession
LanMatchJointSessionJob::CallSessionEvent
LanMatchJointSessionJob::WaitNextSessionId
LanMatchJointSessionJob::StartJoinMatchmakeSession
LanMatchJointSessionJob::StartRandomMatchmake
LanMatchJointSessionJob::SendInvitationAsCompanion
LanMatchJointSessionJob::SendAnswerToInvitation
LanMatchJointSessionJob::WaitForAnswerToInvitation
LanMatchJointSessionJob::WaitRandomMatchmake
LanMatchJointSessionJob::SendNextSessionId
LanMatchJointSessionJob::WaitJoinMatchmakeSession
LanMatchJointSessionJob::WaitCompanionStationPrepared
LanMatchJointSessionJob::StartLeavePreviousMesh
LanMatchJointSessionJob::StartUpdateSessionKey
LanMatchJointSessionJob::WaitUpdateSessionKey
LanMatchJointSessionJob::SendPreparedForMigrateSession
LanMatchJointSessionJob::WaitUntilLeaderLeavesMesh
LanMatchJointSessionJob::WaitLeavePreviousMesh
LanMatchJointSessionJob::StartLeavePreviousMatchmakeSession
LanMatchJointSessionJob::WaitLeavePreviousMatchmakeSession
LanMatchJointSessionJob::MeshRestart
LanMatchJointSessionJob::StartCreateNextMesh
LanMatchJointSessionJob::StartGetNextMeshHostStationLocation
LanMatchJointSessionJob::WaitCreateNextMesh
LanMatchJointSessionJob::WaitCompanionStation
LanMatchJointSessionJob::WaitGetNextMeshHostStationLocation
LanMatchJointSessionJob::StartJoinNextMesh
LanMatchJointSessionJob::WaitJoinNextMesh
LanMatchJointSessionJob::WaitHostStationId
LanMatchJointSessionJob::ProcessComplete
LanMatchCreateSessionJob::CreateMatchmakeSession
nn::pia::lan::LanMatchCreateSessionJob::CompleteFailure
LanMatchCreateSessionJob::WaitCreateMatchmake
LanMatchCreateSessionJob::CompleteFailure
LanMatchCreateSessionJob::UnregisterGathering
LanMatchCreateSessionJob::WaitUnregisterGathering
LanMatchDestroySessionJob::MeshCleanup
LanMatchDestroySessionJob::UnregisterCurrentMatchmakeSession
LanMatchDestroySessionJob::WaitUnregisterCurrentMatchmakeSession
LanMatchBrowseMatchmakeJob::BrowseMatchmake
LanMatchBrowseMatchmakeJob::WaitBrowseMatchmake
LanMatchBrowseMatchmakeJob::WaitRequestSessionInfo
LanMatchRandomMatchmakeJob::RandomMatchmake
nn::pia::lan::LanMatchRandomMatchmakeJob::CompleteFailure
LanMatchRandomMatchmakeJob::WaitRandomMatchmake
LanMatchRandomMatchmakeJob::CompleteFailure
LanMatchRandomMatchmakeJob::UnregisterGathering
LanMatchRandomMatchmakeJob::LeaveMesh
LanMatchRandomMatchmakeJob::WaitRequestSessionInfo
LanMatchRandomMatchmakeJob::CompleteProcess
LanMatchRandomMatchmakeJob::WaitForRetryRandomMatchmake
LanMatchRandomMatchmakeJob::LeaveMatchmakeSession
LanMatchRandomMatchmakeJob::WaitUnregisterGathering
LanMatchRandomMatchmakeJob::WaitLeaveMatchmakeSession
LanMatchUpdateSessionSettingJob::UpdateSessionSetting
LanMatchUpdateSessionSettingJob::WaitUpdateSessionSetting
LanProcessHostMigrationJob::LanCleanupOldHostInfo
LanProcessHostMigrationJob::LanDecideNextHost
LanProcessHostMigrationJob::HostMigrationFailure
LanProcessHostMigrationJob::LanPrepareForBecomingHost
LanProcessHostMigrationJob::WaitNewHostGreeting
LanProcessHostMigrationJob::LanGetMatchMakingClientHost
LanProcessHostMigrationJob::SendGreetingMessage
LanProcessHostMigrationJob::LanCleanupOldHostInfoOnMultiCandidate
LanProcessHostMigrationJob::LanMakeHostCandidateRanking
LanProcessHostMigrationJob::LanSendRankDecision
LanProcessHostMigrationJob::LanWaitRankDecision
LanProcessHostMigrationJob::LanWaitMatchMakingClientHost
LanProcessHostMigrationJob::LanCheckMatchMakingClientHost
LanProcessHostMigrationJob::LanCheckOldHostDisconnection
LanProcessHostMigrationJob::LanPrepareForBecomingHostMulti
LanProcessHostMigrationJob::LanGetMatchMakingClientHostLastConfirmation
LanProcessHostMigrationJob::LanWaitMatchMakingClientHostLastConfirmation
LanProcessHostMigrationJob::LanWaitSendUpdateSessionMessage
ProcessHostMigrationJob::SendMigrationFinish
LanProcessHostMigrationJob::LanWaitCheckOldHostDisconnection
LanMatchmakeUpdateJob::Update
  heap_type: ExpHeap\n
  alloc_mode: %s\n
First Fit
Best Fit
  use_list_size: %d\n
  free_list_size: %d\n
- name: \"%s\"\n
  start_address: 0x%016llX\n
  end_address: 0x%016llX\n
  parent: %s\n
  direction: %s\n
Forward
Reverse
  size: %llu\n
  free_size: %llu\n
  max_allocatable_size: %llu\n
RootHeap
 \t\r\n
%llu
%lld
%.8f
ABCDEFGHIJKLMNOPQRSTUVWXYZabcdefghijklmnopqrstuvwxyz0123456789-_
ABCDEFGHIJKLMNOPQRSTUVWXYZabcdefghijklmnopqrstuvwxyz0123456789+/
pead::MainThread
pia session heap
CreateMeshJob::SetupLocalPlayerInfo
CreateMeshJob::CompleteFailure
CreateMeshJob::SetupLocalStation
nn::pia::session::CreateSessionJob::CompleteFailure
CreateSessionJob::CreateMesh
CreateSessionJob::WaitCreateMesh
DestroySessionJob::WaitForcedTerminatingOfJointSessionJob
nn::pia::session::DestroySessionJob::SendMonitoringData
DestroySessionJob::DestroyMesh
DestroySessionJob::WaitDestroyMesh
DestroySessionJob::CompleteProcess
JoinMeshJob::SetupLocalPlayerInfo
JoinMeshJob::SetupLocalPlayerInfoFailure
JoinMeshJob::SetupLocalStation
JoinMeshJob::StartConnectingToHost
JoinMeshJob::WaitUntilConnectToHost
JoinMeshJob::SendJoinRequest
JoinMeshJob::WaitRequestAck
JoinMeshJob::AnalyzeJoinResponse
JoinMeshJob::WaitJoinResponse
JoinMeshJob::WaitAllConnection
JoinMeshJob::StartDisconnectStations
JoinMeshJob::WaitLeaveMesh
JoinMeshJob::CompleteCancelWithLeaveMesh
JoinMeshJob::WaitDisconnectStations
JoinMeshJob::CompleteProcess
nn::pia::session::JoinSessionJob::CompleteFailure
JoinSessionJob::JoinMesh
JoinSessionJob::WaitJoinMesh
JoinSessionJob::WaitDestroyMesh
JoinSessionJob::WaitLeaveMeshWithHostMigration
JoinSessionJob::WaitLeaveMesh
JoinSessionJob::LeaveMesh
KickoutManageJob::ClientFinalize
KickoutManageJob::ClientStartLeaveMesh
KickoutManageJob::ClientWaitLeaveMesh
LeaveMeshJob::SendLeaveRequest
LeaveMeshJob::WaitLeaveResponse
LeaveMeshJob::StartDisconnectStations
LeaveMeshJob::LeaveSuccess
LeaveMeshJob::WaitLeavingProcess
LeaveSessionJob::WaitForcedTerminatingOfJointSessionJob
nn::pia::session::LeaveSessionJob::SendMonitoringData
LeaveSessionJob::WaitLeaveMeshWithHostMigration
LeaveSessionJob::WaitLeaveMesh
LeaveSessionJob::WaitHostMigrated
LeaveSessionJob::MeshCleanup
LeaveSessionJob::WaitLeaveCurrentMatchmakeSession
LeaveSessionJob::CompleteProcess
LeaveSessionJob::WaitLeaveBufferMatchmakeSession
LeaveWithHostMigrationJob::CheckHostMigrationProcess
LeaveWithHostMigrationJob::StartDisconnectStations
LeaveWithHostMigrationJob::WaitHostMigrationProcess
LeaveWithHostMigrationJob::SendStartMultiMigrationMessage
LeaveWithHostMigrationJob::SendStartMigrationMessage
LeaveWithHostMigrationJob::CleanupMesh
LeaveWithHostMigrationJob::WaitMigrationResponse
LeaveWithHostMigrationJob::WaitDisconnectStations
g2122d301
DestroyMeshJob::SendDestroyMesh
DestroyMeshJob::CleanupMesh
DestroyMeshJob::WaitDestroyResponse
MeshProtocolReliable send buffer num
MeshProtocolReliable receive buffer num
ProcessDestroyMeshJob::SendDestroyResponse
ProcessDestroyMeshJob::CleanupMesh
ProcessHostMigrationJob::WaitGreetingResponse
ProcessHostMigrationJob::HostMigrationSuccess
ProcessHostMigrationJob::WaitNewHostFinished
ProcessJoinRequestJob::InitialStep
ProcessJoinRequestJob::CheckApprovalJoin
ProcessJoinRequestJob::SendJoinRefused
ProcessJoinRequestJob::SendJoinResponse
ProcessJoinRequestJob::WaitResponseAck
ProcessJoinRequestJob::JoinSucceeded
ProcessUpdateMeshJob::WaitDirectConnection
ProcessUpdateMeshJob::CheckConnectionAll
ProcessUpdateMeshJob::UpdateFailed
ProcessUpdateMeshJob::SendConnectionReport
ProcessUpdateMeshJob::StartRelayConnection
ProcessUpdateMeshJob::CleanupByProcessFailure
ProcessUpdateMeshJob::WaitLeaveMesh
nn::pia::session::RandomMatchmakeJob::CompleteFailure
RandomMatchmakeJob::WaitCreateMesh
RandomMatchmakeJob::WaitGetStationConnection
RandomMatchmakeJob::JoinMesh
RandomMatchmakeJob::WaitJoinMesh
RandomMatchmakeJob::WaitLeaveMesh
RandomMatchmakeJob::LeaveMesh
RandomMatchmakeJob::CreateMesh
RandomMatchmakeJob::GetStationConnection
RelayRouteManageJob::WaitAllDirectConnectionReport
RelayRouteManageJob::SendRelayRouteDirections
AddPlayHistoryJob::CheckPlayerHistoryList
AddPlayHistoryJob::AddPlayHistory
AddPlayHistoryJob::PrintProcessTime
OpenParticipationJob::OpenParticipation
OpenParticipationJob::WaitOpenParticipation
CloseParticipationJob::CloseParticipation
CloseParticipationJob::WaitCloseParticipation
CloseParticipationJob::WaitP2pStable
SessionStatusCheckJob::CheckSessionStatus4JointSession
SessionStatusCheckJob::CheckSessionStatus
pia transport heap
ConnectStationJob::WaitRequestAck
ConnectStationJob::ConnectionSucceeded
ConnectStationJob::WaitForConnection
ConnectStationJob::SendRelayConnectionRequest
DisconnectStationJob::SendDisconnectionRequest
DisconnectStationJob::CutRouteOfRelayConnection
DisconnectStationJob::DisconnectionSucceeded
DisconnectStationJob::WaitForDisconnection
Pia Receive
[Analysis] ------ BEGIN(%s, %d.%03d sec. passed) ------
[Analysis] ProtocolId, TotalNum, TotalSize, AverageSize, Protocol(port)
[Analysis]     0xffff, %8d,  %8d,    %8d, Packet
[Analysis]     0x%04x, %8d,  %8d,    %8d, %s(%d)
[Analysis] ---------------------------- END ----------------------------
KeepAlive
Station
Mesh
SyncClock
Local
Direct
BandwidthCheck
Sync
Unreliable
RoundrobinUnreliable
Clone
Atomic
Event
Clock
Voice
Reliable
ReliableBroadcast
Session
Lobby
Feedback
RelayService
WanNat
(KickoutReason_Unknown PROTOCOL NAME)
Pia Send
Pia Send Unicast
Pia Send Broadcast
ProcessConnectionRequestJob::ConnectToRequesterStation
ProcessConnectionRequestJob::WaitInverseConnection
ProcessConnectionRequestJob::SendConnectionResponse
ProcessConnectionRequestJob::WaitResponseAck
ReliableProtocol send buffer num
ReliableProtocol receive buffer num
SendThreadStream buffer num
Pia SendThreadStream
ReceiveThreadStream buffer num
Pia ReceiveThreadStream
[Analysis] ------ DispatchCount:%d ------
[Analysis] ------ BEGIN(Pia Connection info, %d.%03d sec. passed) ------
[Analysis] StationIndex,  RTT,  RttMin,  RttMax,  PacketLoss
[Analysis]         0x%02x, %4d,    %4d,    %4d,      %6.2f
UnreliableProtocol receive buffer num
pia local heap
LocalCreateNetworkJob::WaitCreateNetwork
LdnBackgroundProcessJob::WaitCreateNetworkEvent
LdnBackgroundProcessJob::WaitDisconnected
LdnBackgroundProcessJob::ScanNetwork
LdnBackgroundProcessJob::WaitConnectNetworkEvent
LdnBackgroundProcessJob::UpdateCreateNetworkSettingForFixedChannel
LdnBackgroundProcessJob::CreateNetworkPrivate
LdnBackgroundProcessJob::ScanNetworkPrivate
LdnBackgroundProcessJob::ConnectNetworkPrivate
LdnHostMigrationJob::WaitForCancel
LdnHostMigrationJob::WaitCreateNetwork
LocalHostMigrationJob::WaitUntilAllClientsConnection
LdnHostMigrationJob::WaitBeforeFirstCall
LdnHostMigrationJob::ConnectNetwork
LdnHostMigrationJob::WaitConnectNetwork
LdnHostMigrationJob::WaitRetry
LdnScanNetworkJob::WaitScanNetwork
LocalBackgroundProcessJob::DestroyNetwork
LocalBackgroundProcessJob::DisconnectNetwork
LocalBackgroundProcessJob::CreateNetwork
LocalBackgroundProcessJob::ConnectNetwork
LocalCreateNetworkJob::WaitForCancel
LocalEventCheckBackgroundJob::UpdateConnectionStatus
LocalForceDisconnectNetworkJob::WaitHostMigrationEnd
LocalForceDisconnectNetworkJob::WaitDisconnected
LocalHostMigrationJob::DisconnectNetwork
LocalHostMigrationJob::WaitForCancel
LocalHostMigrationJob::WaitDisconnectNetwork
LocalHostMigrationJob::CreateNetwork
LocalHostMigrationJob::WaitCreateNetwork
LocalHostMigrationJob::ChangeAllowParticipatingState
LocalHostMigrationJob::WaitChangeAllowParticipatingState
LocalHostMigrationJob::WaitAllClientsAck
LocalHostMigrationJob::ScanNetwork
LocalHostMigrationJob::WaitScanNetwork
LocalHostMigrationJob::SearchNewHostNetwork
LocalHostMigrationJob::ConnectNetwork
LocalHostMigrationJob::WaitConnectNetwork
LocalMatchJoinSessionJob::JoinMatchmakeSession
LocalMatchJoinSessionJob::WaitJoinMatchmake
LocalMatchJoinSessionJob::WaitForCancel
LocalMatchJoinSessionJob::CompleteFailure
LocalMatchJoinSessionJob::WaitLeaveMatchmake
LocalMatchJoinSessionJob::MeshCleanup
LocalMatchJoinSessionJob::LeaveMatchmakeSession
LocalMatchCreateSessionJob::CreateLocalNetwork
LocalMatchCreateSessionJob::WaitCreateLocalNetwork
LocalMatchCreateSessionJob::StartLocalSession
LocalMatchCreateSessionJob::DestroyLocalNetwork
LocalMatchCreateSessionJob::CompleteFailure
LocalMatchCreateSessionJob::WaitDestroyLocalNetwork
LocalMatchCreateSessionJob::StopLocalSession
LocalMatchDestroySessionJob::SendMonitoringData
LocalMatchDestroySessionJob::WaitDestroyLocalNetwork
DestroySessionJob::MeshCleanup
LocalMatchDestroySessionJob::DestroyLocalNetwork
LocalMatchBrowseMatchmakeJob::BrowseMatchmake
LocalMatchBrowseMatchmakeJob::WaitBrowseMatchmake
LocalMatchBrowseMatchmakeJob::WaitHostMigration
LocalMatchBrowseMatchmakeJob::UpdateCurrentConnectionStatus
LocalMatchBrowseMatchmakeJob::WaitUpdateCurrentConnectionStatus
LocalMatchBrowseMatchmakeJob::UpdateSessionInfo
LocalMatchBrowseMatchmakeJob::CompleteProcess
LocalMatchUpdateSessionSettingJob::CompleteFailure
LocalMatchUpdateSessionSettingJob::SignalProcess
LocalProcessHostMigrationJobNew::LocalCleanupOldHostInfo
LocalProcessHostMigrationJobNew::LocalDecideNextHost
LocalProcessHostMigrationJobNew::HostMigrationFailure
LocalProcessHostMigrationJobNew::LocalPrepareForBecomingHost
LocalProcessHostMigrationJobNew::WaitLocalHostMigrationClient
LocalProcessHostMigrationJobNew::WaitLocalHostMigrationNewHost
LocalProcessHostMigrationJobNew::SendGreetingMessage
LocalProcessHostMigrationJobNew::WaitNewHostGreeting
LocalEventJob::WatchUpdateEvent
LocalEventJob::WaitConnectionStatusUpdated
LocalEventJob::ProcessUpdateEvent
LocalEventJob::WaitBackgroundJobEnd
LocalConnectNetworkJob::WaitConnectNetwork
LocalConnectNetworkJob::WaitForCancel
LocalConnectNetworkJob::ProcessSucceeded
LocalDestroyNetworkJob::TryPrepareDestroyNetwork
LocalDestroyNetworkJob::WaitForCancel
LocalDestroyNetworkJob::WaitUntilAllClientsReceiveUpdateSessionMessage
LocalDestroyNetworkJob::SendDestroyNetworkMessage
LocalDestroyNetworkJob::StartDestroyNetwork
LocalDestroyNetworkJob::WaitUntilAllClientsDisconnection
LocalDestroyNetworkJob::WaitDestroyNetwork
LocalDisconnectNetworkJob::TryPrepareDisconnectNetwork
LocalDisconnectNetworkJob::WaitForCancel
LocalDisconnectNetworkJob::WaitDisconnectNetwork
LocalAllowParticipatingJob::WaitAllowParticipating
LocalAllowParticipatingJob::WaitBackgroundJobEnd
LocalAllowParticipatingJob::CompleteProcess
LocalAllowParticipatingBackgroundJob::AllowParticipating
LocalEjectClientListCheckJob::CheckTargetList
LocalEjectClientListCheckJob::EjectTargetClient
LocalEjectClientListCheckJob::WaitEjectTargetClient
LocalEjectClientListCheckJob::WaitBackgroundJobEnd
LocalEjectClientBackgroundJob::EjectClient
LocalResendMessageJob::ResendMessage
LocalScanNetworkJob::WaitScanNetwork
LocalScanNetworkJob::WaitForCancel
%s %d
/Incoming
/Outgoing
C:/home/ws/hac-appc2/Pack/7923402a/OnlineCore/src/Platform/Core/LogDeviceConsole.cpp
Output
NEX 
Insufficient Memory
Illegal Memory Access
Win32 function returned an error
Index out of bound
Duplicated key within the collection
The item was in use, and could not be deleted
The item was not found
An access beyond the end of the collection has occured
Object not initialized
Feature not implemented
IDGenerator is out of ID
Internal Exception
Timeout occured
Child process could not be launched
Invalid operation
Multiple instances not allowed
Multiple exception handlers not allowed
This product has expired
Parameter out of range
Assertion Failed
Deadlock detected
NetZ has not been initialized
Invalid parameter
IO error
Product key does not exist or is invalid
Buffer extraction overflow
Invalid wait
Access denied
Operation denied
Gen invalid operation warning
Gen CTR error
\tTotal Time : %10d usec (%3.2f percent)
\tOccurence  : %10d      (%5.1f/sec)
\tMin Time   : %10d usec
\tMax Time   : %10d usec
\tAvg Time   : %10d usec
\tLast Time  : %10d usec
C:/home/ws/hac-appc2/Pack/7923402a/OnlineCore/src/Platform/Core/Result.cpp
%02X
(null)
%016zx
%llx
255.255.255.255
BerkeleySocketDriver Connect Thread
127.0.0.1
localhost
WebSocket
SocketDriver::Socket
BerkeleySocketDriver::BerkeleySocket
ClientWebSocketDriver::ClientWebSocket
Encryption Error
C:/home/ws/hac-appc2/Pack/7923402a/OnlineCore/src/Core/Buffer.cpp
C:/home/ws/hac-appc2/Pack/7923402a/OnlineCore/src/Core/CallContext.cpp
GetState() == CallContext::CallInProgress
CallContextRegisterCheckExpiredCalls
CallContextRegister
CallContextRegister::CheckExpiredCalls
C:/home/ws/hac-appc2/Pack/7923402a/OnlineCore/src/Core/Chrono.cpp
ConnectionEncoding
C:/home/ws/hac-appc2/Pack/7923402a/OnlineCore/src/Core/InstanceTable.cpp
C:/home/ws/hac-appc2/Pack/7923402a/OnlineCore/src/Core/InstantiationContext.cpp
C:/home/ws/hac-appc2/Pack/7923402a/OnlineCore/src/Core/Job.cpp
GetState()!=Complete
C:/home/ws/hac-appc2/Pack/7923402a/OnlineCore/src/Core/Scheduler.cpp
(vResult = cbCallback(object, 0)) == bErrorValue
PreventRegularBlockCall
GetTotalNumberOfJobs() != 0
Could not complete %u jobs on finalizing scheduler. Timeout is %u msec.
C:/home/ws/hac-appc2/Pack/7923402a/OnlineCore/src/Core/SystemComponent.cpp
TestState()!=Terminated
System Components
Core
Internal (Worker) Thread (ID %d)
..\\..\\..\\..\\.\\OnlineCore/src/Core/InstanceTable.h
SystemComponent
SystemComponentGroup
\tArgument: 
https
ConnectionManager
JobConnectEndPoint
DNS Check Thread
Dummy
prudp:/
prudps:/
udp:/
%s%s%u
%s%s%lu
prudp
prudps
0.0.0.1
TransportBufferThread(send)
TransportBufferThread(recv 
Transport Job
SocketTransport::TransportJob
Send
C:/home/ws/hac-appc2/Pack/7923402a/OnlineCore/src/Transport/PRUDP/PRUDPEndPoint.cpp
IsConnecting()
(IsConnecting() && !Core::GetInstance()->GetTerminateImmediately())
IsDisconnecting()
(IsDisconnecting() && !Core::GetInstance()->GetTerminateImmediately())
255.0.0.0
ComponentState
..\\..\\..\\..\\.\\OnlineCore/src/Core/LiteBuffer.h
expect
expect:
Content-Length: %u
Content-Type: multipart/form-data; boundary=%s
CurlHttpConnection Thread
--------BOUNDARY--------%s
ws://
wss://
WebSocketClient Connect Thread
Client failed to receive.
Client received closing frame from server.
Client call close
GET %s HTTP/1.1\r\nHost: %s\r\nUpgrade: websocket\r\nConnection: upgrade\r\nSec-WebSocket-Key: %s\r\nSec-WebSocket-Version: 13\r\nSec-WebSocket-Protocol: %s\r\n\r\n
Upgrade: websocket
Connection: Upgrade
Sec-Websocket-Accept:
258EAFA5-E914-47DA-95CA-C5AB0DC85B11
DynamicData
NintendoNotificationEventManager
NotificationEventManager
NullData
<unknown>
Protocol
%s%d
CallProtocolMethod
ClientProtocol
ServerProtocol
ClientProtocolRequestBroker: Error processing message. pBuffer=
 Protocol ID=
 CntSize=
 Size=
  EndPoint: CID=
 PID=
 URL=
  <EndPoint is NULL>
prudp:/address=
;port=
;stream=
;sid=
;Uri=
Location
HTTP Connection failure 0x%x
RendezVousLogin
RendezVousLogout
0x%08x is the game server ID for NEX sample demo server. 
2%03d%04d
dummy
It took %u msec for RendezVous::Login()
g%08x-%%.s.n.srv.nintendo.net
https://%s/
nn::account::AsyncContext::HasDone returned false. Call nn::account::Cancel() and nn::os::SystemEvent::Wait()
nn::account::EnsureNetworkServiceAccountIdTokenCacheAsync failed. nn::result: %08x
nn::account::AsyncContext.GetResult() failed. nn::result: %08x
It took %u msec for nn::account::EnsureNetworkServiceAccountIdTokenCacheAsync()
nn::account::GetNetworkServiceAccountId failed. nn::result: %08x
nn::account::LoadNetworkServiceAccountIdTokenCache failed. nn::result: %08x
Retry to get game authentication: %u
AuthenticationInfo
eyJhbGciOiJSUzI1NiIsImprdSI6Imh0dHBzOi8vZTAzYTk3ODE5Yzk3MTFlNTk1MTBkODIwYTUyZjI5OGEtc2IuYmFhcy5uaW50ZW5kby5jb20vMS4wLjAvY2VydGlmaWNhdGVzIiwidHlwIjoiSldUIiwia2lkIjoiZHVtbXlUb2tlbi0xMjM0NTY3OC1hYmNkLTAwMDAtMDAwMC1mZmZmZmZmZmZmZmYifQ.eyJqdGkiOiIwZDgwNzAxMS0xMmRhLTRjYjctOTIwMC04ZTAxZWJkZGUxYTEiLCJzdWIiOiIyNTQwYmU0MDAiLCJleHAiOjE1MTcwMzUwOTYsIm5pbnRlbmRvIjp7InBjIjoiSEFDLVMtWlpaWlYoVVNaKSIsImhtIjp0cnVlLCJvcHAiOiJNRU1CRVJTSElQX1JFUVVJUkVEIiwic24iOiJYQVYwOTk5OTk5OTk5OSIsImRpIjoiNjEwMDAwMDAzYjlhYzlmZiIsImFpIjoiMDEyMzQ1Njc4OTAxMjM0NSIsImR0IjoiTlggVkRldiAxIiwiYXYiOiIwMDAwIiwicGgiOiJHQU1FX1NFUlZFUiIsImdpIjoiY2EwYjRhNjE5ZmY4OTNkMWZjNmVjZDc5ODg2OGRmYmEifSwiaXNzIjoiaHR0cHM6Ly9lMDNhOTc4MTljOTcxMWU1OTUxMGQ4MjBhNTJmMjk4YS1zYi5iYWFzLm5pbnRlbmRvLmNvbSIsImlhdCI6MTUxNjk0ODY5NiwiYnM6ZGlkIjoiNzNlOTM5OTQ2OTg2MTM3ZCIsInR5cCI6ImlkX3Rva2VuIiwiYXVkIjoiYjQzMjcxZTQyYWYzMWUzZiJ9.IHS_bl_K4ZZi7CREOTIz19_3pg7F7Yr0Yyf6btI4oGwe75AU4r3oz2aWH4afCJrQ0ryUiIGjaUgqYc1ZIQzAOGkPuF7zf0kPYvFv3iny7rm5CpLuB70mgf8QM6AczDRQZv2-JwXjIOEeJoiDWQuYF6c1DJbXdD34CBg
DynamicGathering
PersistentGathering
Community
GameSession
Gathering
@OIA
@UsGI
@UpGI
MatchmakeSession
%u,%u
Unknown
http://
https://
Failed:PrepareGetObject 0x%x
JobDataStoreGetObject::ProcessResponseHeader: Invalid data size. contentLength: %u, expectedSize: %u, String: %s
Failed:PreparePostObject 0x%x
Failed: CheckNotification 0x%x, errorCount: %u
Failed:PrepareUpdateObject 0x%x
Content-Disposition: form-data; name=\"file\"
Authorization
Bearer 
User-Agent
Content-Type
application/json
getToken
joinRoom
leaveRoom
ping
setVoiceChatChannel
SmartDeviceVoiceChatGetAvailabilityCompleteCallback
SmartDeviceVoiceChatJoinRoomCompleteCallback
requestId
parameter
roomId
channelId
sessionId
gameModeId
channel
createIfNotExist
result
interval
errorMessage
status
nsaIdToken
HAC-NEX/
SDK 
Add-on 
token
playing_inactivity
playing_frequent_disconnection
playing_unsportsmanlike_conduct
playing_network_manipulation
cheating
inappropriate_nickname
u_Matrix
u_Modulate
s_Tex
percpu_arena:percpu,dirty_decay_ms:1
C2ResourceServiceNX
ffihffffii
%s:/%s
nfp_raise_history
_WIIFIT_LW_GIRL
_WIIFIT_HI_GIRL
SETUP
ENTRY
motion/camera/enemy/crazyhand
motion/camera/enemy/masterhand
gya_camera
gya_cameraShape
Ver. %d.%d.%d
3D_0_BG_F_VFX
3D_0_BG_M_VFX
UI_FG_EFFECT_BB
BLEND_UI_EFFECT
DEPTH_MAIN
DB_BLEND_4
FB_UI_REFRACT_COLOR
enemy/%s/param/param.prc
VC_%s_KNOCKOUT
scharge.prc
MARIO
DONKEY
LINK
SAMUS
SAMUSD
YOSHI
KIRBY
PIKACHU
LUIGI
NESS
CAPTAIN
PURIN
PEACH
DAISY
KOOPA
SHEIK
ZELDA
MARIOD
PICHU
FALCO
MARTH
LUCINA
YOUNGLINK
GANON
MEWTWO
CHROM
GAMEWATCH
METAKNIGHT
PITB
SZEROSUIT
WARIO
SNAKE
PZENIGAME
PFUSHIGISOU
PLIZARDON
DIDDY
LUCAS
SONIC
DEDEDE
PIKMIN
LUCARIO
ROBOT
TOONLINK
WOLF
MURABITO
ROCKMAN
WIIFIT
ROSETTA
LITTLEMAC
GEKKOUGA
PALUTENA
PACMAN
REFLET
SHULK
KOOPAJR
DUCKHUNT
CLOUD
KAMUI
BAYONETTA
INKLING
RIDLEY
SIMON
RICHTER
KROOL
SHIZUE
GAOGAEN
MIIFIGHTER
MIISWORDSMAN
MIIGUNNER
POPO
NANA
KOOPAG
MIIENEMYF
MIIENEMYS
MIIENEMYG
ICE_CLIMBER
ZENIGAME
FUSHIGISOU
LIZARDON
PTRAINER
nana
miienemyf
miienemys
iceclimber
zenigame
fushigisou
lizardon
Mario
Donkey
Link
Samus
SamusD
Yoshi
Kirby
Pikachu
Luigi
Ness
Captain
Purin
Peach
Daisy
Koopa
Sheik
Zelda
MarioD
Pichu
Falco
Marth
Lucina
Younglink
Ganon
Mewtwo
Chrom
GameWatch
Metaknight
PitB
SZerosuit
Wario
Snake
PZenigame
PFushigisou
PLizardon
Diddy
Lucas
Sonic
Dedede
Lucario
Robot
Toonlink
Wolf
Murabito
Rockman
Wiifit
Rosetta
Littlemac
Gekkouga
Palutena
Pacman
Reflet
Shulk
KoopaJr
Duckhunt
Cloud
Kamui
Bayonetta
Inkling
Ridley
Simon
Richter
Krool
Shizue
Gaogaen
MiiFighter
MiiSwordsman
MiiGunner
Popo
Nana
KoopaG
MiiEnemyF
MiiEnemyS
MiiEnemyG
IceClimber
Zenigame
Fushigisou
Lizardon
PTrainer
VirtualHit%d
fpfffiiiiiiiiiiiibbbbb
phfbbiib
ShootingArmL_AtkOn
ShootingArmL_AtkOff
game_SpecialLwAttack
sceneAttributesForShaderFX
SUNSHAFT_POINT
LightChr
LightStg0
LightStg1
LightStg2
LightStg3
LightStg4
LightStg5
LightStg6
LightStg7
LightStg8
LightStg9
LightStg10
LightStg11
LightStg12
LightStg13
LightStg14
LightStg15
StateSetupMiiFighter
StateWaitForMelee
StateSetupCamera
StateMelee
StateWaitForRuleToFinish
StateSampleAsync
StateInitializeAsync
StateLoadAsync
StateSetupAsync
StateFadeOutWhenEnding
StateReset
StateExit
ExecutableObjectManager::update_pause_by_category
MeleeManager::process
FighterManager::process_begin
CollisionLogManager::process_begin
CameraManager::update_frame
StageManager::pre_process
StageSwapManager::update
ItemManager::process_begin
EnemyManager::process
BossManager::process
GroundCollision::pre_process
FighterAIManager::process_begin
BattleObjectManager::process_begin
BattleObjectManager::process_ground
JostleManager::process_begin
CatchManager::process_begin
FighterCutInManager::process_begin
GroundCollision::process
FighterManager::process_begin_post
OperatorObjectManager::apply_visitor
ShamBattleManager::process
SpiritsBattleManager::process_melee
BattleObjectManager::process_map_collection
StageManager::process_fix_position
AreaManager::process_fix_position
BattleObjectManager::process_fix_position
ItemManager::process_fix_position_after
FighterManager::process_pre_collision
BattleObjectManager::process_pre_collision
CollisionLogManager::collide
BattleObjectManager::process_collision
CatchManager::process_catch
FighterManager::process_hit
BattleObjectManager::process_hit
FighterCutInManager::process_pre_update
SuddenDeathProductionManager::process
CameraManager::update
BattleObjectManager::process_fix_camera
EffectScreenManager::update
FighterCutInManager::process_update
BattleObjectManager::process_end
FighterManager::process_end
StageManager::post_process
FighterCutInManager::process_end
JostleManager::process_effect
FighterAudienceManager::process_fix_camera
ItemManager::process_end
HudManager::update
EffectManager::process
BattleRecordManager::update
ClearGetterCheckManager::update
InGameCommonParameterManager::update
GameWatchModeEvaluatorManager::process
GameRatingEvaluatorManager::process
GamePenaltyEvaluatorManager::process
MovieRecordManager::update
mel_info_final_arts_fox_01
mel_info_final_arts_fox_00
mel_info_final_arts_falco_00
mel_info_final_arts_falco_01
mel_info_final_arts_wolf_01
mel_info_final_arts_wolf_00
mel_info_fighter_ptrainer_final_00
mel_info_fighter_ptrainer_final_00_f
mel_info_fighter_ptrainer_final_01
mel_mockbattle_cp_lv_n
ACTOR_%s_%02d
.bin
RBKIND_RESULT_CUTIN_%02d
camera/fighter/nocontest/%d/FitNocontestCamera%d.nuanmb
camera/fighter/%s/c%02d/J02Win%d.nuanmb
camera/fighter/team/c00/J02Win%d.nuanmb
slow_unlimit_factor%d
StateHowToPlayDescription
StateSuddenDeathPreparations
StateSuddenDeathStartingProduction
StateSuddenDeath
StateResetTraining
StateRetryPreparations
StateContinuePreparations
StateSkipMelee
InGameSuddenDeathFiberedProcess
InGameRetryFiberedProcess
InGameContinueFiberedProcess
StatePractice
string_line_small
string_line_mid
string_length_one_line_long
string_line_one_line_long
string_length_long
string_line_long
grp_one_line_long
grp_long
StateLoadAsyncForStaffRoll
StateWaitForSyncWhenBeginning
StateAppearanceProduction
StateMeleeForStaffRoll
StateEndProduction
StatePause
StateOperatorHUDDone
StateDisconnectSyncCommunication
StateResult
StateApplyParameters
StateFadeOutWhenEndingForStaffRoll
StateWaitForSyncWhenEnding
StaffRollManager::process
LastPicture
boost::optional::reference_type_of_temporary_wrapper boost::optional<int>::value() && [T = int]
Attempted to access the value of an uninitialized optional object.
standard/staffroll/texture/standard_staffroll_%s.nutexb
mel_mockbattle_name_unknown
boss
assist
barrel
capsule
carrierbox
kusudama
pokeball
masterball
maximtomato
heart
tabemono
fairybottle
finalpeach
finaldaisy
curry
metalblock
mushd
mushroom
superstar
fireflower
fireflowershot
raygun
raygunshot
superscope
superscopeshot
drill
drillshot
steeldiver
steeldivershot
magicpot
magicpotwind
revengeshooter
revengeshootershot
bananagun
bananagunshot
staffshot
staffroulette
staffrouletteshot
walkmush
walkmushflower
walkmushshot
beamsword
goldenhammer
hammerhead
homerunbat
ripstick
ripstickflower
ripstickshot
starrod
starrodshot
club
firebar
killsword
deathscythe
banana
bombhei
bumper
chewing
deku
doseisan
freezer
greenshell
pasaran
pitfall
smokescreen
crossbomb
dolphinbomb
honeycomb
honeycombbee
killereye
killereyeshot
bombchu
togezoshell
soccerball
unira
badge
screw
usagihat
superleaftail
machstamp
powderbox
dragoon
killer
killertransform
genesis
genesisset
chickenparty
specialflag
smashbomb
bomber
smashbombheavy
toonlinkbomb
wariobikea
wariobikeb
wariobikec
wariobiked
wariobikee
thundersword
murabitofruit
younglinkbomb
simonholywater
richterholywater
st_fruit
st_fruitbomb
pellet
st_crab
st_ice_yasai
st_apple
st_usa_egg
st_yamabuki_egg
goroh
waluigi
stafy
hammerbros
hammerbroshammer
joeshot
jeff
jeffpencilbullet
wrightbuil
nintendogs
motherbrainshot
eleka
elekashot
elekashot2
elekashot3
ghirahimknife
ghirahimknife2
starman
starmanomegabeam
starmangammabeam
sheriff
sheriffshot
ashley
wanwanpile
monsterschild
kawashima
kawashimashot
sable
takamaru
takamarushot
jiro
robin
robinshot
robinpress
guileshot
krystal
krystalshot
zeroshot
alucard
bombermanbombmanager
bombermanbomb2
darkknight
hebigarasu
kawasakipot
kawasakishot
lioleusshot
shovelknightshot
shovelknightpitfall
rodinarmr
rodinarml
rodinarmstraight
rodinarmupper
kozukata
kozukataghost
sukaponshot
baito
claptrap
dossun
springmanshot
wilycapsuleshot
wilycapsuleshot2
wilycapsulewily
flyandhandfly
tiki
tikishot
nikki
nikkiillust1
nikkiillust2
nikkiillust3
nikkiillust4
nikkiillust5
nikkiillust6
nyarth
nyarthshot
marumine
tosakinto
hitodeman
hitodemanshot
kabigon
kireihana
metagross
fire
entei
suicune
lugia
lugiashot
latiaslatios
kyogre
kyogreshot
deoxys
eievui
yukinooh
yayakoma
kofuurai
maaiika
giratina
giratinashot
darkrai
darkraishot
meloetta
genesect
genesectrapidshot
tsutarja
tsutarjashot
mijumaru
harimaron
fokko
fokkoshot
gogoat
peroppafu
dedenne
dedenneshot
arceus
victini
kyurem
keldeo
rokona
rokonashot
kiteruguma
lunalashot
rokon
rokonshot
raichua
namakobushi
togedemaru
togedemarushot
kapukokeko
kapukokekoshot
masterhandbullet
masterhandironball
masterhandchakram
masterhandkenzan
masterhandenergyshot
masterhandsatellite
masterhandsatelliteshot
crazyhandfire
crazyhandshockwave
galleommissile
galleomshockwave
ganonboss
ganonbossshot
ganonbossshot2
dracula
dracula3way
draculastraight
draculapillar
draculafill
draculabat
dracula2fireshot
dracula2homingshot
dracula2shockwave
dracula2squashshockwave
marxcutter
marxplantseed
marxplantbody
marxicebomb1
marxicebomb2
marxeyelaser
lioleusboss
lioleusbossshot
lioleusbossshot2
lioleusbossbarrel
lioleusbossbombhei
lioleusbosssmartbomb
kiilacrossbomb
kiilacrushwing
kiilasmartbomb
kiilaexplodeshot1
kiilaexplodeshot2
kiilastraightshot
kiilacore
darzcrossbomb
darzgatlingshot
darztentacleshot
darzspacerush
darzspacerushstencil
darzcentipede
darzpillar
darzpierce
darztorrent
playable_masterhand
playable_masterhandbullet
playable_masterhandironball
playable_masterhandchakram
%s/%s/param/param.prc
%s/%s/param/duet_param.prc
c%02d
game_
effect_
sound_
__item_entry
ifiiffffffffffihfiiiibbb
ffffhfbfffffiiifffff
iiifffi
iiifff
iifff
iiiifff
iiiffff
ifffffi
iiiiffffbbbbi
iiiiffffbbbb
bbhb
fhhfbbifffffi
iihf
fffffffffiiff
bbbfh
iihff
ffff
iihifff
iihiffff
iihi
ffffi
ifiiffffffffffihfiiiibbbi
USER
user_name
TaskMatchmake
TaskRating
TaskScreening
TaskSmashPower
highscore_update
fighter_%d
fighter_color_%d
score
cleared
param
ev_match_data
match_id_lo
match_id_hi
rom_version
match_mode
match_submode
has_battle_log
is_battle_team
is_suddendeath
player_num
battle_game_time
battle_rule
battle_hp
battle_stock
battle_time_limit
rule_spirits
rule_handi_damage
rule_select_stage
rule_charge_final
rule_item_appear
rule_item_switch
rule_stage_switch
rule_victory
rule_team_attach
rule_defence_reaction_rate
rule_handi_boost
rule_stage_gimmick
rule_stage_change
rule_can_pause
rule_visible_score
rule_visible_damage
stage_1_type
stage_1_form
stage_2_type
stage_2_form
node_num
player_%d_
supporter1
supporter2
supporter3
device
battle_ave_cp_level
ev_match_player
rating
fighter_id
fighter_random
fighter_team
beated_%02d_
my_fighter
opponent_player
opponent_fighter
attack_type
self_damage
opposing_damage
ev_match_detail
playing_time
kill_num
beated_num
suicide_num
put_damage_total
get_damage_total
max_put_damage
max_damage
sheild_break_num
cliff_hang_num
cliff_climb_num
cliff_attack_num
cliff_escape_num
cliff_jump_num
cliff_leave_num
attack_%02d_
attack_num
total_damage
sum_misc
dash_fighter
invisible
fighter_handicap
count_oname
optout_news
count_inherit
count_lang_change
count_unlocked_fighter
sum_playcount
mode_%02d
sum_playtime
sum_record_count
common_boot_count
common_working_time
common_play_time
common_melee_total_count
common_melee_offline_count
common_melee_adhoc_count
common_vs_time_melee_count
common_vs_stock_melee_count
common_vs_life_melee_count
common_vs_melee_5_8_count
common_vs_melee_8_count
common_vs_melee_player_count
common_vs_melee_reset_count
common_damage_total_count
common_kill_total_count
common_suicide_total_count
common_gold_get_count
common_gold_used_count
common_sp_get_count
melee_time
melee_time_total
melee_normal_count
melee_team_compe_count
melee_sp_various_count
melee_sp_suddendeath_count
melee_sp_all_battle_count
melee_tournament_count
spirits_have_count
spirits_get_count
spirits_summon_count
spirits_return_count
spirits_evolve_count
spirits_evolve_kind_count
spirits_lv99_count
spirits_adventure_battle_win_count
spirits_adventure_trip_count
spirits_school_mastery_count
spirits_gym_time
spirits_search_time
spirits_board_win_count
play_standard_clear_count
play_standard_clear_honki
play_bonus_game_high_score
play_credit_high_score
play_kumite_100_high_score
play_kumite_allstar_high_score
play_kumite_nasake_muyou_high_score
play_make_chara_mii_fighter_creation_count
collection_take_picture_count
collection_make_replay_count
collection_make_video_count
collection_get_tag_count
online_vs_total_time
online_vs_single_count
online_vs_single_win_count
online_vs_single_smash_power_no1
online_vs_single_smash_power_all
online_vs_double_count
online_vs_double_win_count
online_vs_vip_count
online_vs_vip_win_count
online_vs_room_count
fighter_1st_use
fighter_2st_use
fighter_1st_not_use
fighter_1st_win
fighter_1st_give_damage
fighter_1st_get_damage
fighter_1st_beat_count
fighter_1st_fall_count
fighter_1st_suicide_count
other_most_play_stage
other_sprits_attacker_1st_use
other_sprits_supporter_1st_use
other_bgm_count
other_mii_parts_head_count
other_mii_parts_body_count
anniversary
spirits_count
spirits_id_%02d
spirits_count_%02d
adventure
adv_slot
adv_loop_count
adv_difficulty
adv_skill_count
spots_count_cleared_light
spots_count_cleared_dark
spots_count_cleared_final
first_branch
spots_count_fighter
boss_defeat_masterhand
boss_defeat_crazyhand
boss_defeat_galleom
boss_defeat_koopag
boss_defeat_lioleus
boss_defeat_ganon
boss_defeat_marx
boss_defeat_dracula
boss_defeat_kiila
boss_defeat_darz
boss_defeat_kiila_darz
fighter_challenge
reason
fighter_unlock
challenge_count
https://www-aaaba-%-hac.cdn.nintendo.net/{$lang}/index.html
from_game=1&na_lang=%s&na_country=%s
from_game=1&na_lang=%s
https://www.smashbros.com/index.html
mnu_record_memorial_txt_%04d
mnu_insert_popup_help_%s
save:/save_data
save:/save_data/mii
save:/save_data/replay
save:/save_data/spirits
save:/save_data/system_data.bin
%s_%d.bin
%s/%s.bin
metamon_model.numatb
light_model.numatb
dark_model.numatb
fighter/%s/c%02d
fighter/%s/finalsmash/shared
fighter/%s/kirbycopy/c%02d
fighter/%s/kirbycopy/bodymotion
fighter/%s/kirbycopy/sound
fighter/%s/cmn/effect
fighter/%s/result/c%02d
fighter/%s/c%02d/camera
fighter/%s/cmn/ai
fighter/%s/model/body/c%02d/model.numdlb
fighter/%s/motion/%s/c%02d
fighter/%s/param/vl.prc
fighter/%s/param/expression_vl.prc
effect/fighter/%s
fighter/%s/ai/param
sound/bank/fighter/se_%s_c%02d.nus3bank
sound/bank/fighter/se_%s_c%02d.tonelabel
sound/bank/fighter/se_%s_c%02d.nus3audio
sound/bank/fighter_voice/vc_%s_c%02d.nus3bank
sound/bank/fighter_voice/vc_%s_c%02d.tonelabel
sound/bank/fighter_voice/vc_%s_c%02d.nus3audio
sound/bank/fighter_voice/vc_%s_cheer_c%02d.nus3bank
sound/bank/fighter_voice/vc_%s_cheer_c%02d.tonelabel
sound/bank/fighter_voice/vc_%s_cheer_c%02d.nus3audio
sound/sequence/fighter/%s.sqb
sound/bank/fighter_voice/vc_Kirby_copy_%s.nus3bank
sound/bank/fighter_voice/vc_Kirby_copy_%s.tonelabel
sound/bank/fighter_voice/vc_Kirby_copy_%s.nus3audio
camera/fighter/%s/c%02d
b_normalfighter_m/c00
b_normalswordman_m/c00
b_normalgunner_m/c00
%s/c%02d
miibody/%s/%s
miihat/%s
m01_boy
m02_young
m03_passionate
m04_rough
m05_cool
m06_warrior
f01_girl
f02_young
f03_active
f04_beauty
f05_gloomy
f06_warrior
miivoice/%s
fighter/%s/model/%s/model.numdlb
miihat/%s/model/body/c%02d/model.numdlb
b_normalfighter_m
b_normalswordman_m
b_normalgunner_m
fighter/%s/motion/%s/c00/motion_list.bin
miihat/%s/motion/body/c00/motion_list.bin
vc_mii_m01_boy_low
vc_mii_m01_boy_mid
vc_mii_m01_boy_high
vc_mii_m02_young_low
vc_mii_m02_young_mid
vc_mii_m02_young_high
vc_mii_m03_passionate_low
vc_mii_m03_passionate_mid
vc_mii_m03_passionate_high
vc_mii_m04_rough_low
vc_mii_m04_rough_mid
vc_mii_m04_rough_high
vc_mii_m05_cool_low
vc_mii_m05_cool_mid
vc_mii_m05_cool_high
vc_mii_m06_warrior_low
vc_mii_m06_warrior_mid
vc_mii_m06_warrior_high
vc_mii_f01_girl_low
vc_mii_f01_girl_mid
vc_mii_f01_girl_high
vc_mii_f02_young_low
vc_mii_f02_young_mid
vc_mii_f02_young_high
vc_mii_f03_active_low
vc_mii_f03_active_mid
vc_mii_f03_active_high
vc_mii_f04_beauty_low
vc_mii_f04_beauty_mid
vc_mii_f04_beauty_high
vc_mii_f05_gloomy_low
vc_mii_f05_gloomy_mid
vc_mii_f05_gloomy_high
vc_mii_f06_warrior_low
vc_mii_f06_warrior_mid
vc_mii_f06_warrior_high
nus3bank
tonelabel
nus3audio
sound/bank/fighter_voice/%s.%s
fighter/koopag/model/body/c00/model.numdlb
fighter/pzenigame/model/body/c%02d/model.numdlb
fighter/pfushigisou/model/body/c%02d/model.numdlb
fighter/plizardon/model/body/c%02d/model.numdlb
boss/ganonboss/model/body/c00/model.numdlb
fighter/metaknight/model/body/c%02d/model.numdlb
fighter/littlemac/model/body/c%02d/model.numdlb
fighter/samus/model/body/c00/model.numdlb
fighter/mewtwo/model/body/c%02d/model.numdlb
fighter/pikachu/model/body/c%02d/model.numdlb
fighter/pichu/model/body/c%02d/model.numdlb
fighter/kirby/model/body/c%02d/model.numdlb
fighter/rosetta/model/tico/c00/model.numdlb
fighter/samusd/model/body/c%02d/model.numdlb
fighter/simon/model/whip/c%02d/model.numdlb
fighter/richter/model/whip/c%02d/model.numdlb
%s/%s/model/%s/c%02d/model.numdlb
fighter/littlemac/motion/body/c%02d
fighter/kirby/motion/windummy/c%02d
fighter/samusd/motion/bunshin/c00
fighter/kirby/motion/rosettaticomissile/c00
fighter/simon/motion/whip/c%02d
fighter/richter/motion/whip/c%02d
%s/%s/motion/%s/c%02d
yoshibg02
yoshibg03
yoshibg04
yoshibg05
yoshibg06
yoshibg07
yoshibg08
yoshimob00
yoshimob01
yoshimob02
yoshimob03
yoshimob04
yoshimob05
yoshimob06
sausage
steak
friedprawns
fish
%s/%s/model/body
%s/%s/motion/body
effect/%s/%s
sound/bank/%s/se_%s_%s.nus3bank
sound/bank/%s/se_%s_%s.tonelabel
sound/bank/%s/se_%s_%s.nus3audio
sound/sequence/%s/%s.sqb
%s/%s/script/animcmd/body
%s/%s/camera/c00
subetenoyaminoou
flyingman
metalface
nabbit
enemy/%s/model/body/c00
enemy/%s/motion/body/c00
enemy/%s/motion/body/c00/motion_list.bin
effect/enemy/%s
sound/bank/enemy/se_enemy_%s.nus3bank
sound/bank/enemy/se_enemy_%s.tonelabel
sound/bank/enemy/se_enemy_%s.nus3audio
enemy/%s/script/animcmd/body
fighter/kirby/model/%s/c%02d/model.numdlb
fighter/kirby/motion/%s/c00/motion_list.bin
copy_popo_cap
copy_popo_hammer
copy_mii_parts
copy_miiswordsman_sword
copy_gaogaen_cap
copy_shizue_cap
copy_krool_cap
copy_richter_cap
copy_simon_cap
copy_ridley_cap
copy_inkling_cap
copy_bayonetta_cap
copy_bayonetta_gunr
copy_bayonetta_gunl
copy_kamui_cap
copy_cloud_cap
copy_cloud_sword
copy_ken_cap
copy_ryu_cap
copy_duckhunt_parts
copy_koopajr_cap
copy_koopajr_cannon
copy_shulk_parts
copy_shulk_sword
copy_reflet_cap
copy_pacman_fitkirby
copy_palutena_cap
copy_palutena_wand
copy_gekkouga_cap
copy_littlemac_cap
copy_rosetta_cap
copy_rosetta_ticowand
copy_wiifit_fitkirby
copy_rockman_fitkirby
copy_murabito_cap
copy_wolf_cap
copy_toonlink_cap
copy_robot_goggle
copy_lucario_cap
copy_pikmin_fitkirby
copy_dedede_crown
copy_sonic_cap
copy_sonic_sphere
copy_lucas_cap
copy_diddy_cap
copy_plizardon_cap
copy_pfushigisou_cap
copy_pzenigame_cap
copy_ike_cap
copy_ike_sword
copy_snake_cap
copy_wario_helmet
copy_szerosuit_hair
copy_pitb_parts
copy_pit_parts
copy_metaknight_mask
copy_metaknight_sword
copy_gamewatch_fitkirby
copy_gamewatch_pan
copy_chrom_cap
copy_chrom_sword
copy_roy_cap
copy_roy_sword
copy_mewtwo_cap
copy_ganon_cap
copy_younglink_cap
copy_lucina_mask
copy_lucina_sword
copy_marth_cap
copy_marth_sword
marth
copy_falco_fitkirby
copy_pichu_cap
copy_mariod_parts
copy_zelda_cap
copy_sheik_cap
copy_koopa_cap
copy_daisy_cap
copy_peach_cap
copy_purin_parts
copy_captain_helmet
copy_ness_cap
copy_luigi_cap
copy_pikachu_cap
copy_fox_ear
copy_yoshi_cap
copy_samusd_helmet
copy_samus_helmet
copy_link_cap
copy_donkey_cap
copy_mario_cap
fighter/kirby/model/%s/c%02d
fighter/kirby/model/copy_%s_fitkirby/c%02d
fighter/kirby/motion/%sbody/c00
lib::SceneMessage
SceneChangeMessage
SequenceNameAcquireMessage
PalletCommandMessage
SceneInitCodeParameter
CharaMakeEditMenuSceneParameter
CharaSelectSceneParameter
PrizeListSceneParameter
StageSelectSceneParameter
MeleeRuleSceneParameter
pop_local_mel_rule_stg_select
pop_local_mel_rule_stg_punctuation
pop_local_mel_rule_stg_change
SpecialVariousSceneParameter
pop_tournament_competition_no_exp_fp
mel_tournament_member_title
mel_tournament_type_title
OnlineMeleeParallelSceneParameter
mnu_opt_btn_noname
OptionMeleeSceneParameter
OptionOnlineSceneParameter
OptionSoundSceneParameter
SoundTestSceneParameter
is_possible_super
view_default
view_unable_summon
view_able_summon
effect_summon_light
effect_summon_light_burst
view_complete_list
SpiritsCampaignGymSceneParameter
SpiritsCampaignSchoolSceneParameter
SpiritsCampaignSearchSceneParameter
SpiritsCampaignShopSceneParameter
SpiritsFacilityListSceneParameter
SpiritsOrganizationMainSceneParameter
SpiritsShopListSceneParameter
save
cache
set_parts_btn0_00
set_parts_btn0_01
set_parts_btn0_03
set_parts_btn1_00
set_parts_btn1_01
set_parts_btn1_02
set_parts_btn1_03
set_parts_btn2_04
btn_other_random
selector_5
set_txt_header_name
set_txt_mii_name
set_rep_mii_icon
menu_all_show
set_txt_num_%02d
menu_all_hide
menu_miiedit_close
menu_miiedit_open
menu_custom_close
learn_visivle_on
learn_visivle_off
menu_custom_open
custom_mii
custom_fighter
mnu_amiibo_attack_n
mnu_amiibo_defense_n
set_pic_atk_bar
set_pic_def_bar
set_text_level_num
character_vanish
mnu_amiibo_init_setting_btn_change
mnu_amiibo_init_setting_btn_ok
mnu_amiibo_init_setting_pop
selector_4
spirits_tab_l_btn
spirits_tab_r_btn
style_0
style_1
status_grp
set_parts_btn_open
set_parts_btn_close
set_parts_skill_alert
set_fxui_raise
set_rep_amiibo
status_open
status_close
set_fxui_level
set_fxui_atk
set_fxui_def
anim_amiibo_raise
spirits_param
power_set
anim_cancel
skillset_alert_off
limit_fp_mark_show
limit_fp_mark_hide
attribute_glow_show
attribute_glow_hide
amiibo_non
amiibo_offense
amiibo_defense
amiibo_throw
pos_to_top
skillset_alert_cost%d
set_txt_personality
set_txt_atk_num
mnu_amiibo_growth_attack_n
set_txt_def_num
mnu_amiibo_growth_defense_n
status_atk_up
set_txt_atk_variable
mnu_amiibo_growth_rising_attack_n
status_atk_down
status_atk_none
status_def_up
set_txt_def_variable
mnu_amiibo_growth_rising_defense_n
status_def_down
status_def_none
effect_atk_show
effect_atk_hide
effect_def_show
effect_def_hide
set_pic_atk_bar_00
set_pic_atk_bar_01
set_pic_atk_bar_shadow
set_pic_atk_frame_00
set_pic_atk_frame_01
set_pic_def_bar_00
set_pic_def_bar_01
set_pic_def_bar_shadow
set_pic_def_frame_00
set_pic_def_frame_01
exp_up
exp_non
set_txt_level_num_00
mnu_amiibo_level_n
set_txt_level_num_01
effect_level_show
effect_level_hide
set_pic_exp_bar_01
exp_bar_base
set_pic_exp_bar_00
set_pic_atk_bar_
set_pic_def_bar_
pos_to_select
effect_anm
pop_amiibo_growth_inherit_high_lv
pop_amiibo_growth_inherit_evolved
pop_amiibo_growth_inherit_legend
pop_amiibo_growth_inherit_included_set
pop_amiibo_growth_inherit_m_punctuation
set_parts_pick_btn_00
set_parts_pick_btn_01
set_parts_pick_btn_02
set_parts_pick_btn_03
set_parts_learn_btn_00
set_parts_learn_btn_01
set_parts_learn_btn_02
set_parts_float_btn
set_parts_decide_btn
set_parts_pick_btn_%02d
set_parts_learn_btn_%02d
float_pos1
float_pos%d
float_off
float_on
detail_hide
detail_show
set_txt_detail_caption
set_txt_detail_skill
set_rep_detail_skill
skillset_count%d
set_parts_keyhelp
mnu_amiibo_reading_helpguide_guide
art_mii
type_04
art_character
type_05
art_logo
mnu_amiibo_reading_succession
mnu_amiibo_reading_succession_plizardon
set_txt_fplevel_00
mnu_amiibo_reading_succession_level_before
set_txt_fplevel_01
mnu_amiibo_reading_succession_level_after
set_txt_fplevel_02
mnu_amiibo_reset_level_before
set_txt_owner
set_txt_nickname
mnu_amiibo_reading_select_restart
mnu_amiibo_reading_select_succession
mnu_amiibo_reading_select
mnu_amiibo_reading_succession_status
mnu_amiibo_reading_succession_touch
mnu_amiibo_reading_succession_plizardon_level
mnu_amiibo_reading_succession_level
mnu_amiibo_reset_fp_level_confirm
mnu_amiibo_reading_help_00
mnu_amiibo_reading_status
mnu_amiibo_reading_help_03
anim_BG_00
controller_amiibo
type_06
mnu_amiibo_reset_fp_status
mnu_amiibo_reset_fp_level
set_rep_color
set_rep_color_shadow
set_rep_database
set_parts_txt_skill
skillset_on
skillset_off
color_new
color_set
size_cost%d
mnu_amiibo_personal_%02d
set_parts_amiibo_chip_05
chip_pos
set_parts_amiibo_chip_%02d
over_write_end
move_%dto%d
write_move
chip_off
chip_on
set_rep_chara_shadow
set_txt_amiiboname
set_txt_level_num
mnu_amiibo_writing_lv_n
amiibo_write
 %02X
numbering_id
spirits_ability0
spirits_ability1
spirits_ability2
lv_exp
cp_exp
param_atk
param_def
prize_point
attribute_attack
attribute_defense
attribute_throw
attribute_none
over_write_start
near
offensive
grounded
attack_out_cliff
dash
return_to_cliff
air_offensive
cliffer
feint_master
feint_counter
feint_shooter
catcher
_100_attacker
_100_keeper
attack_cancel
smash_holder
dash_attacker
critical_hitter
meteor_master
shield_master
just_shield_master
shield_catch_master
item_collector
item_throw_to_target
dragoon_collector
smashball_collector
hammer_collector
special_flagger
item_swinger
homerun_batter
club_swinger
death_swinger
item_shooter
carrier_breaker
charger
appeal
set_parts_controller_00
pop_amiibo_create_writing
pop_amiibo_read_nfc_invalid
mnu_amiibo_writing_controller_connect
mnu_amiibo_writing_howto
set_parts_controller_01
controller_double
indicator_off
controller_single
chip_count%d
spark_out
set_txt_appear_00
set_txt_appear_01
set_rep_miifighter
set_rep_miiswordsman
set_rep_miigunner
mnu_mmiif_sel_mii_nam
mnu_mmiif_sel_mii_samplenam_%c
set_pic_mii
set_parts_scr_item_%02d
set_color_item_%02d
selectedon
selectedoff
set_btn_keyhelp_00
set_random
switch_favorite
is_empty_name
EXIT_VALUE_CANCEL
EXIT_VALUE_DECIDE
INPUT_COMMON_BUTTON
IS_NEED_SAVE
IS_NEW_CREATE_AMIIBO
AMIIBO_CONFIRM_RESULT_DECIDE
AMIIBO_CONFIRM_RESULT_CANCEL
set_item_00
set_item_01
set_item_02
set_item_03
set_item_04
set_txt_num_0%d
set_txt_name_0%d
set_item_05
set_txt_val2
maker_on
set_txt_makername
ToDo Maker Name
maker_off
set_flag_changed
get_decided_id
selecteditem
notselecteditem
set_txt_val_disable
sub_list_window
sub_list_window_facade
get_top_index
sort_id_list
SCROLLER_ITEM_NUM
set_select_id
get_exit_value
panel_create
txt_00
mnu_mmiif_btn_create
panel_exist
set_rep_mfshot
color_%02d
attacktype_02
attacktype_01
attacktype_00
infotype_01
infotype_00
is_max_num
is_full
is_favorite_fighter
switch_favorite_fighter
contribute_fighter
delete_fighter
get_no_delete_popup_id
sort_data_id_list
backup_list_selected_id
select_list_from_backup_id
is_selectable_item
open_differ_fighter_select_popup
open_amiibo_confirm_popup
get_amiibo_confirm_popup_result
open_amiibo_register_applet
is_amiibo_register_applet_finished
get_amiibo_register_applet_result
open_amiibo_register_error_popup
INPUT_OPEN_SORT_WINDOW
INPUT_OPEN_SUBMENU
INPUT_FAVORITE
LIST_ITEM_ID_NEW
LIST_ITEM_NUM
FROM_AMIIBO
AMIIBO_REGISTER_SUCCESS
AMIIBO_REGISTER_NOT_UPDATED
AMIIBO_JUST_REGISTERED
set_det_column_0%d
category_0%d
value_txt
value_color
btn_keyhelp_00
mii_select_scroller
sub_menu
sort_window_facade
set_detail
set_txt_special_num_0%d
set_txt_special_name_0%d
set_txt_det_val_01
mnu_mmiif_setup_voice_type_none
mnu_mmiif_setup_voice_type_n
mnu_mmiif_setup_voice_02
pop_amiibo_init_setting_mii_differ_fight
pop_amiibo_init_setting_mii_differ_sword
pop_amiibo_init_setting_mii_differ_gun
IS_RETURN
is_finished_in
set_sort_id
set_btn_ok
set_skill_id
get_skill_id
get_skill_name_label
get_skill_help_label
replace_skill
replace_skill_subwindow
SPECIAL_SKILL_NUM
SKILL_COMMAND_NORMAL
SKILL_COMMAND_SIDE
SKILL_COMMAND_UPPER
SKILL_COMMAND_LOWER
SKILL_COMMAND_NUM
INPUT_OK
set_item_%02d
set_rep_special
type_0%d
btn_type_0%d
INPUT_BUTTON_UP
INPUT_BUTTON_DOWN
INPUT_BUTTON_LEFT
INPUT_BUTTON_RIGHT
INPUT_STICK_RIGHT
FIGHTER_ENTRY_ID_SELF
MII_TYPE_FIGHTER
MII_TYPE_SWORDSMAN
MII_TYPE_GUNNER
MAKE_MII_CAMERA_DEFAULT
MAKE_MII_CAMERA_RIGHT_SIDE_0
MAKE_MII_CAMERA_RIGHT_SIDE_1
MAKE_MII_CAMERA_HEAD
MAKE_MII_CAMERA_NUM
controller_handheld
controller_pro
controller_gc
MII_FIGHTER_DEFAULT_ROTATE
F_CAMERA_DEFAULT_POSITION_X
F_CAMERA_DEFAULT_POSITION_Y
F_CAMERA_DEFAULT_POSITION_Z
S_CAMERA_DEFAULT_POSITION_X
S_CAMERA_DEFAULT_POSITION_Y
S_CAMERA_DEFAULT_POSITION_Z
G_CAMERA_DEFAULT_POSITION_X
G_CAMERA_DEFAULT_POSITION_Y
G_CAMERA_DEFAULT_POSITION_Z
set_parts_stick
set_reload
is_voice_none
NUM_VOICE_TYPE
NUM_VOICE_PITCH
set_mii_type
set_voice_id
get_voice_type
get_voice_pitch
amiibo_load
amiibo_set
set_part_amiibo_status
set_part_help_amiibo
fp_loading_txt_on
fp_loading_txt_off
set_lct_chara_color_sele
set_rep_face_%02d
set_btn_chara_color_hit
set_rep_chara_color
set_txt_color
chara_color_on
set_txt_cp
set_lct_chara_cp
chara_cp_on
set_lct_hd_setup
set_lct_hd_help
set_parts_hd_00
set_parts_hd_01
set_parts_hd_02
set_parts_hd_04
set_parts_hd_05
set_parts_hd_06
set_parts_hd_03
hd_p
set_txt_pw_up
hd_m
set_txt_pw_down
hd_help_off
hd_help_on
set_lct_chara_hd
chara_hd_on
dmg_s
dmg_l
set_lct_chara_hp
chara_hp_on
hp_s
hp_l
window_size_%02d
set_chr_area
set_parts_chr_s_00
set_parts_chr_s_%02d
name_line1
black_off
bg_set_hd
compe_bg_on
compe_bg_hd_on
set_parts_chr_bg_s_%02d
compe_bg_off
set_txt_name_l
set_txt_name_s
name_line2
set_rep_chara_2
set_txt_all_l
set_txt_all_s
dash_off
row%02d_num
black_on
window_on
window_off
set_lct_mii
mii_select_on
nam_name_preset_*
btn_icon_0
txt_max
txt_entry
mel_chara_select_key_shift_%s
mel_chara_select_key_%s_%02d
btn_txt
mel_chara_select_key_switching_%s
hiragana
katakana
alphabet
european
russian
btn_icon_1
btn_icon_2
btn_size_00
btn_size_01
btn_size_02
btn_size_03
btn_size_04
btn_size_05
btn_size_06
btn_color_00
btn_on
set_btn_0_%02d
mel_chara_select_key_space
btn_color_01
btn_icon_delete
mel_chara_select_key_random_nam
btn_color_02
mel_chara_select_key_ok
set_txt
color_bg_new
mel_chara_select_key_input
color_bg_noname
color_bg_normal
set_lct_name_select
set_lct_name_applet
name_applet_on
name_select_on
controller_entry_cut_off
gekitui_off
dash_pokemon_off
local_off
set_cursor
set_parts_controller_res
fp_level_off
set_txt_player_off
set_txt_local_entry
set_part_all_win
lizhi_winner_off
win_anim
win_off
lizhi_off
set_btn_dash_chara_hit
local_on
set_tips
set_%d_btn_option
set_%d_btn_s_h
set_%d_btn_h
set_%d_btn_s
set_all_player_fp
set_all_player
switch_in
set_parts_gekitui
gekitui_on
mel_chara_select_local_setting
mel_chara_select_local_check_rule
mel_chara_select_local_sele_stage
mel_chara_select_local_sele_fighter
fp_level_on
amiibo_on
amiibo_off
controller_cut
dash_on
set_rep_mark_l
set_rep_dash_chara
all_on
clear_kumite_on
clear_standard_on
player_color_invalidity
win_on
set_txt_win_00
set_txt_win_01
set_part_lizhi_wenner
winner_on
lizhi
lizhi_on
set_lct_sp
set_part_help_sp_l
set_part_help_sp_s
set_part_help_sp
pos_scroll_on
pos_scroll_off
sp_select_on
window_l
window_s
window_m
window_ll
size_ll
hd_non
hd_p_1
hd_p_2
hd_p_3
hd_m_1
hd_m_2
hd_m_3
mel_chara_select_opt_fighter_hc_off
mel_chara_select_opt_fighter_hc_on
set_txt_tips_chara
set_txt_tips_list
tips_list_4
tips_list_3
set_txt_tips_%02d
tips_list_0
set_parts_score_0
standard_pic
mel_chara_select_high_score_none
standard_pic_off
training_combo
mel_chara_select_training_max_combo_n
training_combo_0
score_color_%d
set_txt_match
mel_chara_select_world_pw_n
score_color_1
set_txt_score_l
set_txt_score_m
mel_chara_select_kumite_clear_time
mel_chara_select_kumite_defeated_score
set_txt_worldscore
set_rep_chara%d
chara_off
chara_on
mel_chara_select_high_score_n
set_txt_route
set_txt_standard_sub
black_base_vip
set_txt_all_gamenum_00
set_txt_all_gamenum_01
mel_chara_select_allbattle_match_final
mel_chara_select_allbattle_remaining
mel_chara_select_various_normal
mel_chara_select_suddendeath_normal
mel_chara_select_melee_normal
match_waiting_on
match_1_chara_score
set_parts_score_1
match_1_no1_score
set_parts_score_2
match_1_all_score
day_on
kumite_on
kumite_%d
kumite_1_chara_score
kumite_1_no1_score
kumite_1_all_score
standard_on
standard_2
standard_1_chara_score
standard_1_no1_score
standard_1_all_score
standard_player_%dp
kumite_player_number_%dp
headcount_on
black_base_all_battle
back_btn_short
set_btn_02_back
set_txt_onoff
scene_title_btn
mel_chara_select_challengeboard
mel_chara_select_campaign
mel_chara_select_setorg
mel_chara_select_standard
mel_chara_select_training
mel_chara_select_challenger
mel_chara_select_online_room
match_waiting_1p
mel_chara_select_anyone_single
match_waiting_2p
mel_chara_select_anyone_double
mel_chara_select_coop_mission
replay
mel_chara_select_replay
mel_chara_select_smaknowledge
option_hd
txt_pos_hnd
mel_chara_select_opt_fighter_hc
set_parts_balloon_plus
set_parts_balloon_minus
set_parts_balloon_shuffl
controller_max
mel_return_01
mel_over_return_01
vs_3
vs_5
count_%dvs%d
set_part_vs_3
set_part_vs_5
size_5
set_btn
window_type_off
select_hl
set_part_chara_pk
set_lct_hd
bg_set_ch
set_txt_fp
set_compe
set_8
change
window_type_select
subwindow_on
subwindow_off
set_btn_s
size_%d
mel_chara_select_fp_lv_n
mel_chara_select_without
set_rep_chara_change00
set_rep_chara_pk
set_rep_chara_pk_sd
set_rep_silhouette
hd_off
hd_on
set_parts_icon_l
set_parts_icon_m
subwindow_%dp_on
subwindow_%dp_off
subwindow_%dp
set_btn_%dp_hd
set_btn_%dp_help
indicator_1
set_part_cp
selector_%d
set_panel_%dp_%02d
controller_fp
set_medal_area
bg_anime
black_base_def
bg_melee
chara_bg_color_00
chara_bg_color_01
back_btn_long
set_btn_02_title
txt_pos_normal
title_on
headcount_off
day_off
controller_entry_off
controller_out
tournament
scene_title_txt_00
mel_chara_select_tournament
set_parts_balloon_rule
set_btn_03_rule
set_btn_06_shuffle
controller_in
set_part_chara_%02d
empty_off
scroll_in
set_parts_btn_nb
set_txt_number_sh
set_parts_btn_chara
entry_off
set_txt_early
sp_handi_on
handi_on
handi_off
set_1_btn_s_h
set_1_btn_h
set_1
empty_on
scroll_out
disable_onoff
disable_size
entry_on
mel_chara_select_lv_n
amiibo_wait
player_color_fp_entry
amiibo
set_txt_hp_00
set_txt_hp_01
set_txt_dmg_00
set_txt_dmg_01
cancel_on
cancel_off
set_part_tournament
set_group_root
set_ctrl_area
set_group_%02d
set_key_help_next
set_txt_card_count
sell_mode_out
check_color_on
check_color_off
sell_mode_in
set_pic_sell
txt_guide
set_txt_sell_gold
set_txt_sell_count
set_parts_total_gold
mnu_opponents_sell_gold_n
set_parts_key_help_sell
set_parts_key_help_favorite
set_parts_key_help_favor
set_parts_key_help_check
set_parts_key_help_cance
scroll_list
set_txt_mongon
honbun
mnu_record_count_n
mnu_record_count_decimal_n
mnu_record_count_time
mnu_record_count_kumite_time
category%02d
txt_pos_scroll
txt_pos_fix
name_to_num
part_%02d
numlist_on
namelist_off
set_parts_btn_toggle
set_part_name
set_txt_name_nam
mnu_record_fighters_nam
set_part_btn_num
set_txt_records_num
mnu_record_fighters_help_records_%02d
unit
namelist_on
num_to_name
num_off
numlist_off
toggle_btn_on
toggle_btn_off
name_btn_off
name_btn_on
set_txt_fighters_records
mnu_record_fighters_records_decimal_n
bargraph_bg_00
bargraph_hi_00
bargraph_bg_01
bargraph_hi_01
set_txt_rank_00
mnu_record_fighters_no_rank
mnu_record_fighters_ranking
scroll_01
set_rep_chara0
mnu_record_fighters_fighter_nam
bg_col_00
bg_col_01
mnu_record_fighters_records_%02d
set_txt_unit_count
mnu_record_fighters_records_n
unit_count
mnu_record_fighters_count
mnu_record_fighters_count_decimal
set_txt_unit_percent
mnu_record_fighters_percent
unit_percent
mnu_record_fighters_percent_decimal
set_txt_unit_time
mnu_record_fighters_time
unit_time
set_txt_unit_meter
mnu_record_fighters_meter
unit_meter
set_txt_unit_meter_00
mnu_record_fighters_no_rank_bracket
mnu_record_fighters_rank
lank_middle
lank_hi
lank_low
set_txt_all
mnu_record_fighters_all
name_all
set_txt_nam
mnu_record_fighters_player_nam
name_nam
set_ing_%s
offline
online
mnu_record_fighters_help_%s
fighter_panel_r
fighter_panel_l
set_parts_cur_hammer
set_parts_in_%d%02d
set_parts_out_%d%02d
blink_c_01
pausequit_disp_on
hammer_swing
target_off
set_fxui_break
set_parts_btn_hammer
set_txt_hammer_n
hammer_standby
hammer_start
target_on
pausequit_disp_off
blink_c_00
hammer_not_have
hammer_have
set_parts_txt_ham_bln
mnu_clear_getter_need_clear
in_pic_%d00_off
out_pic_%d00_off
out_pic_%d00_on
in_pic_%d00_on
layer_color_%02d
mnu_clear_getter_page_name_unknown
mnu_clear_getter_page_name_melee
mnu_clear_getter_page_name_standard
mnu_clear_getter_page_name_spirits
mnu_clear_getter_page_name_spirits_2
mnu_clear_getter_page_name_campaign
mnu_clear_getter_page_name_other
mnu_clear_getter_page_name_online
mnu_clear_getter_page_name_etc
set_txt_clear_n
set_rep_pic_silhouette
set_rep_pic_colr
btn_open
btn_close
btn_lock
open_fighter_disp_off
set_rep_fighter_art
open_fighter_disp_on
complete_on_ani
hammer_get_efe_on
set_anim_need_bar
set_part_footer
set_rep_pic_reward_00
set_txt_mission
mnu_clear_getter_title_lock
mnu_clear_getter_mission_lock
mnu_clear_getter_item_lock
txt_item_name_def
hammer_on
hammer_off
dammy
txt_item_name_gold
txt_item_name_sp
lock
unsel
rep_goods
lock_icon
icon_miihat
icon_miibody
icon_sp_plus
rep_sp_pic
icon_gold
icon_sp
zoom_disp_off
set_parts_cur_hand
zoom_disp_on
set_txt_clear
hdr_dot_disp_8
hdr_dot_disp_7
attention_off
part_l
part_r
selector_17
selector_19
selector_%02d
mnu_movie_time
play_btn_decide
play_btn_disable
set_txt_movie_title
nam_movie_title_%02d
type_play_00
type_pause_00
shortcutkey_inout
movie_title
mnu_replay_movie_play_previous_next
mnu_movie_change
mnu_playing_together_report
mnu_playing_together_reported
submenu_item_01
submenu_off
submenu_out
set_pic_icon_00
submenu_pos
submenu_item_00
set2_right
mnu_playing_together_past_opponents_profile
submenu
set_part_btn_00
select_after
mnu_online_report_bug_cheat
mnu_online_report_cut_com
mnu_online_report_low_com
mnu_online_report_attack_onlyone_impede
mnu_online_report_leaving
mnu_online_report_inappropriate_nickname
set_part_btn_01
set_txt_text_count
set_txt_report_count
mnu_online_report_sixhour_count
select_before
set_btn_00
set_btn_01
set_btn_02
set_btn_03
set_btn_04
set_part_receive_all
disable
set_txt_detail
set_img_present
set_btn_00_r
set_btn_00_l
size_03
mailbox
set_btn_01_l
bnd_00
mnu_insert_popup_detail
skip
set_txt_skip
mnu_insert_popup_receive_btn
mnu_insert_popup_next_time_btn
mnu_insert_popup_receive_already_btn
mnu_insert_popup_receive_expired_btn
mnu_insert_popup_ok_btn
set_txt_day
set_txt_receive
mnu_present_deadline_date
present
received
expired
set_rep_pic_stage
set_rep_stockicon_%02d
set_rep_stockicon_%02d_
stockicon_3vs3
stockicon_5vs5
stockicon%02d
set_txt_modename
set_txt_modename_00
set_parts_filter
pop_out_movset
mnu_replay_detail_help_rec_info_on
mnu_replay_detail_help_rec_info_off
mnu_replay_detail_help_rec_music_yes
mnu_replay_detail_help_rec_music_no
mnu_replay_detail_help_rec_se_yes
mnu_replay_detail_help_rec_se_no
mnu_replay_detail_help_rec_quality_high
mnu_replay_detail_help_rec_quality_normal
pop_in_movset
contents_on
set_parts_detail_btn
contents_off
set_txt_mode_02
mnu_replay_detail_melee_normal
mel_chara_select_melee_team
mnu_replay_detail_melee_various
mel_chara_select_various_team
mnu_replay_detail_melee_suddendeath
mel_chara_select_suddendeath_team
mnu_replay_detail_room
mnu_replay_detail_anyone
mnu_replay_detail_melee_tournament
mnu_replay_detail_melee_team
mnu_replay_detail_anyone_vip
mnu_replay_detail_melee_allbattle
set_txt_mode_03
set_txt_header_rule_00
set_parts_tag_disp_00
set_parts_detail_pane_00
set_rep_movie_pic_00
set_txt_stagename
mnu_replay_detail_stage_name
tag_off
tag_on
btl_field_on
set_txt_tag
mnu_replay_detail_battlefield
endpoint_on
mnu_replay_detail_end
mnu_replay_detail_rule_time
mel_rule_select_time_inifinity
mel_rule_select_time
mnu_replay_detail_rule_stock
mel_rule_select_time_stock
mel_rule_select_time_inifinity_stock
mnu_replay_detail_rule_stamina
set_txt_mode_00
set_txt_mode_01
set_rep_movie_pic
size_s_on
size_s_off
size_m_on
set_rep_icn_fighter_%02d
set_txt_bar_title_00
mel_result_team_red
set_txt_bar_title_04
mel_result_team_blue
ly_05_fighter_2_
ly_04_fighter_5_
ly_02_dantai_3vs3
ly_03_dantai_5vs5
set_txt_header_rule
set_parts_tag_disp
set_txt_version
mnu_replay_detail_data_version
set_rep_icn_fiter_color
set_rep_icn_fiter_ds
team_color_1
team_color_2
team_color_3
team_color_4
set_txt_bar_title_%02d
mnu_replay_detail_fighter_name_cp_level
selector_05
set_parts_sub_btns_00
set_parts_sub_btns_01
set_parts_sub_btns_02
set_parts_sub_btns_03
set_txt_settingtitle
mnu_replay_detail_rec_info
mnu_replay_detail_rec_info_on
mnu_replay_detail_rec_info_off
mnu_replay_detail_rec_music
mnu_replay_detail_rec_yes
mnu_replay_detail_rec_no
mnu_replay_detail_rec_se
mnu_replay_detail_rec_quality
mnu_replay_detail_rec_quality_high
mnu_replay_detail_rec_quality_normal
set_txt_help_movset
submenu_btn_cursor_00
detail_btn_cursor_00
play_btn_cursor_00
set_parts_detail_panel
in_r_01
header_txt_in
mnu_replay_refinement_spirits
set_parts_btn_11
mnu_replay_refinement_spirits_help_off
mnu_replay_refinement_spirits_help_all
mnu_replay_refinement_spirits_help_on
out_r_01
in_l_00
header_txt_out
in_r_00
mnu_replay_refinement_mode
mnu_replay_refinement_mode_help_melee
mnu_replay_refinement_mode_help_all
mnu_replay_refinement_mode_help_online
out_r_00
init_btn_off
init_btn_on
out_l_00
mnu_replay_refinement_mode_melee
mnu_replay_refinement_all
mnu_replay_refinement_mode_online_match
mnu_replay_refinement_spirits_no
mnu_replay_refinement_spirits_yes
mnu_replay_refinement_fighter_name
mnu_replay_refinement_stage_name
title_center
set_parts_caption_00
btn_00_cursor
icon_spirit_all
icon_spirit_no
icon_spirit_yes
disp_thm
disp_cap
pop_replay_detail_delete
pop_replay_movie_detail_delete
mnu_replay_data_title_default
anim_get_multi
effect_get_show
effect_get_hide
mnu_shop_buy_possession_n
set_parts_gold_count
set_parts_gold
have_counter
category_mii_hat
category_mii_body
miitype_fight_equip_on
miitype_fight_equip_off
miitype_sword_equip_on
miitype_sword_equip_off
miitype_gun_equip_on
miitype_gun_equip_off
category_music
music_noarrange
music_arrange
music_newarrange
category_ticket
category_energy
category_item
set_txt_other_caption
category_spirit
set_txt_pow_num
set_txt_pow_num_sdw
slot_count%d
spirit_fighter
explain
g_item_num
reset_selector
g_decided_item_id
set_btn_item_%02d
g_selected_item_id
anim_card_arrival
open_detail_window
decided_detail_window
close_detail_window
is_finish_popup
set_effect
button_ctrl_func
g_gold
g_is_buy
g_is_shop_lv_up
get_item_is_sold_out
set_rep_fighter_icon
set_txt_subcat_l
set_txt_subcat_c
total
mnu_smaknowledge_list_n
is_font_cache_ready
update_tips_list
IS_FADE_OUT
SUB_CATEGORY_ANIM_TAG
SUB_CATEGORY_NUM
SUB_CATEGORY_INIT
BUTTON_ID_FIGHTER
BUTTON_ID_TECHNIQUE
BUTTON_ID_SPIRIT
BUTTON_ID_ITEM
BUTTON_ID_STAGE
BUTTON_ID_OTHER
HELP_MSG_FIGHTER
mnu_smaknowledge_category_help_fighter_each
HELP_MSG_TECHNIQUE
mnu_smaknowledge_category_help_fighter_common
HELP_MSG_SPIRIT
mnu_smaknowledge_category_help_spirit
HELP_MSG_ITEM
mnu_smaknowledge_category_help_item
HELP_MSG_STAGE
mnu_smaknowledge_category_help_stage
HELP_MSG_OTHER
mnu_smaknowledge_category_help_etc
IS_FROM_SELECT
set_rep_img_af
set_rep_img_pokemon
set_rep_img_item
set_rep_img_stage
set_rep_img_fighter
set_rep_img_fighter_00
category05
category02
category00_01
category00
category01
category03
category04
slide_panel_out
set_parts_btn_playbtn
set_parts_arrow_l
set_parts_arrow_r
set_rep_pic_cap
set_txt_date_num
set_parts_text_scroll_00
set_rep_pic_cap_00
set_txt_time_00
set_txt_date_num_00
notfound_off
notfound_on
btn_size_m
btn_size_del
mnu_replay_detail_time_movie
mnu_replay_detail_creation_date
turn_on
turn_off
mnu_opt_online_nickname
set_txt_win_count
mnu_opponents_card_win_n
favorite_on
favorite_off
check_on
check_off
uncheck_on
uncheck_off
flag_on
set_rep_pic_natio_flag
flag_off
nomal
list
skip_out
popup_out
popup_in
skip_in
set_parts_btn_tricircle
set_parts_btn_skip
set_txt_string
set_btn_l_decide
footer_btn_pos_00
footer_btn_pos_01
footer_btn_none
footer_help_none
footer_help_btn_on
footer_help_btn_off
footer_help_plt_btn_on
footer_help_plt_on
footer_help_plt_on_main
footer_btn_m_decide_80
footer_btn_m_decide_85
footer_btn_m_decide_90
footer_btn_m_decide_95
footer_btn_m_decide_100
footer_btn_l_decide_80
footer_btn_l_decide_85
footer_btn_l_decide_90
footer_btn_l_decide_95
footer_btn_l_decide_100
header_cap_txt_out_t
header_txt_size_00
header_cap_txt_in_t
header_cap_bg_out
header_back_out
footer_help_out
header_bg_size_m
header_bg_size_s
header_cap_bg_in
header_back_in
set_content_area
color_melee
color_online
color_colle
color_help
color_standard
set_btn_embargo
plt_off
plt_on
type_02
set_parts_waiting_info
set_rep_icn_1
set_rep_icn_2
set_gauge_waiting
set_parts_key_00
all_off
hit_area
set_parts_05
set_txt_clock_00
waitingplayer_2
waitingplayer_1
battlewait
battlewait_cancel
battlewait_ready
battlewait_pause
anim_glow_on
anim_glow_off
btn_next_hide
btn_help_hide
finalize
btn_next_show
btn_help_show
in_standard_score
countup_score
countfinish_score
set_txt_score
set_parts_num_value
set_parts_ticket
anim_glow
anim_burn_out
set_parts_aura
view_event
view_ticket
text_exp
text_reward
mnu_reward_n
anim_num
in_03
set_view_search_bg
blank_on
blank_off
view_spirits_board
view_campaign_search
view_standard
view_amiibo
set_txt_title_sdw
set_txt_num_prize
mnu_reward_souvenir_num
mnu_reward_num
set_parts_btn_next
set_parts_det_key_detail
set_parts_det_key_replay
set_parts_spirit_s%d
set_parts_spirit_p%d
spirit_gauge_single
spirit_gauge_multi
mnu_reward_value_n
set_parts_num_bonus_game
mnu_reward_bonusgame_n
set_parts_num_ending
mnu_reward_ending_n
view_standard_ending_on
view_standard_ending_off
mnu_reward_title_finalresult
mnu_reward_title_result
mnu_reward_title_gift
set_rep_goods
set_rep_sp_%02d
panel_type_popup
panel_type_list
set_parts_gold_sp
anim_00
set_txt_num_sdw
num_hide
set_txt_num_gs
set_txt_prize
mnu_reward_gold_n
mnu_reward_sp_n
prize_gold
bg_gold
prize_sp
bg_sp
volume_s
volume_m
volume_l
prize_goods
bg_spirits_energy
bg_spirits_item
bg_standard_ticket
bg_skill_ball
mnu_reward_item_n
num_show
prize_spirit
bg_%s
bg_music
bg_mii_item
size_m
all_show
all_hide
set_rep_class
anim_in_sm_00
anim_in_01
anim_in_sm_01
anim_%02d
anim_out
set_link_base
set_parts_paramset
mnu_insert_popup_sound_stop
mnu_insert_popup_sound_try
anim_serial_in
parts_btn_tricircle_00
set_parts_btn_skip_00
set_parts_btn_link
set_fxui_light_00
set_txt_item_name_00
set_txt_item_name_01
set_txt_item_caption
mnu_insert_popup_move_guide
mnu_insert_popup_move_spboard
mnu_insert_popup_move_soundtest
mnu_insert_popup_move_challengers
mnu_insert_popup_skip_guide
mnu_insert_popup_skip
set_rep_spirit_aw_sdw
prize_popup
category_color_none
category_color_00
category_color_01
category_color_02
category_color_03
category_color_04
category_color_05
category_color_06
category_color_07
set_parts_txt_gold
mnu_insert_popup_reward_g
set_parts_txt_sp
mnu_insert_popup_reward_sp
set_txt_spirit_name_00
set_txt_item_music
data_get_01
data_get_02
data_get_03
data_get_00
data_spirit_01
data_spirit_00
layout_other
layout_shop
data_release_01
data_release_00
set_txt_header_shadow
mnu_insert_popup_unlock
mnu_insert_popup_get
mnu_insert_popup_grade_up
mnu_insert_popup_recall
set_parts_new_r
sunshaft
shine_s_%02d
m_player_view_stop
m_player_view_play
mel_stage_select_song_n
set_parts_btn_bgm_player
view_random
view_bgm
view_init
view_my_bgm
on_my_bgm_pos
off_my_bgm_pos
set_txt_game_title
set_txt_game_title_scr
source_scroll
source_def
set_line_00
set_line_01
mnu_opt_select_song_sort_0%d
my_music_scroller_
my_music_sort_window_
my_music_sort_window_facade_
reset_incidence_my_music
control_incidence_my_music
control_block_incidence_my_music
is_both_ends_incidence_my_music
is_hold_incidence_my_music
release_incidence_my_music
sort_list_my_music
get_sort_id_my_music
backup_selected_bgm_my_music
select_bgm_from_backup_my_music
get_pitch_bar_loop_se_my_music
on_my_bgm_pos_current_my_music
locus_%02d_pos_%02d
locus_%02d_transparence_%02d
locus_%02d_rotate_%02d
locus_%02d_speed_%02d
preview_1_00
preview_2_00
preview_3_00
arrows
header_tips
btn_back
set_parts_txt_head_00
set_txt_scene
mnu_header_arrow
header_stage
set_preview_st_0%d
set_txt_num_medal
mel_stage_select_art_n
un_decide
off_atteintion
anim_stage_select
set_parts_btn_stage
view_stage
icon_normal
color_able_shortcut
unable_shortcut
set_parts_btn_music
view_music
icon_music
mel_stage_select_medal_n
set_parts_n_stage_%03d
view_lock
view_rep_stage
null_medal_num
set_medal_00
set_parts_btn_back
set_txt_back
IS_EMPTY_STAGE_SUB_LIST
is_valid_entrance_param
is_sub_entrance_param
get_panel_id_entrance_param
get_stage_form_type_entrance_param
setup_bgm
set_hand_medal_range
not_use_medal
is_position_on_panel
get_hand_on_stage_panel_id
get_hand_on_stage_preview_id
set_hand_position_from_panel
set_hand_enable
set_hand_grabable
is_hand_grabable
set_hand_grabbed
is_hand_grabbed
is_hand_interpolated_moving
set_hand_operatable
play_hand_released
play_hand_release_freezed
play_hand_operated
move_hand_interpolated
move_hand_interpolated_from_medal
get_hand_position_x
get_hand_position_y
is_medal_display_from_hand
get_hand_on_medal_index
set_medal_visible
is_medal_visible
set_medal_grabbed
is_medal_grabbed
set_medal_position
set_medal_position_from_hand
set_medal_position_from_panel
set_medal_collect_range_from_panel
move_medal_interpolated_from_hand
set_medal_outside_operated
is_lock_stage_panel
is_empty_stage_preview
is_random_stage_preview
is_training_stage_preview
is_battle_field_stage_preview
is_battle_field_l_stage_preview
is_end_stage_preview
is_menu_music_preview
set_stage_preview_empty_exit
set_stage_form_type_stage_preview
set_enable_shortcut_button_stage_preview
update_bgm_stage_preview
set_selected_icon_from_decide
set_extra_command_stage_preview
stage_bgm_make_list
set_stage_bgm_enable
is_selected_random_bgm
finalize_bgm
play_rumble_input_device
UI_INVALID_INDEX
USE_STAGE_MAX
USE_STAGE_NUM
RETURN_TEXT_ID
BACK_POPUP_ID
IS_MODE_STAGE_2_CHANGE
IS_MODE_KUMITE
IS_MENU_FILTER
IS_MY_MUSIC
IS_SIMPLE_CANCEL
IS_INVISIBLE_CANCEL
IS_SELECT_FROM_FIRST
ENABLE_STAGE_FORM_TYPE
ENABLE_SELECT_BGM
BUTTON_BACK
BUTTON_TAB_NORMAL
BUTTON_TAB_SUB
BUTTON_FORM_TYPE_0
BUTTON_MUSIC_0
BUTTON_FORM_TYPE_1
BUTTON_MUSIC_1
BUTTON_FORM_TYPE_2
BUTTON_MUSIC_2
BUTTON_KIND_NUM
BUTTON_KIND_MAIN_NUM
BUTTON_KIND_STAGE_PREVIEW_NUM
TAB_SWITCH_NORMAL
TAB_SWITCH_SUB
INPUT_STAGE_TYPE
INPUT_BGM_SELECT
INPUT_TAB_CHANGE_L
INPUT_TAB_CHANGE_R
INPUT_NEXT_SCENE
INPUT_DECIDE
INPUT_CANCEL
INPUT_BGM_SELECTOR_TEST
INPUT_MY_MUSIC_INCIDENCE_UP
INPUT_MY_MUSIC_INCIDENCE_DOWN
INPUT_MY_MUSIC_INCIDENCE_BLOCK_UP
INPUT_MY_MUSIC_INCIDENCE_BLOCK_DOWN
INPUT_MY_MUSIC_SORT
INPUT_MY_MUSIC_INIT
DEFAULT_STAGE_FORM_TYPE
STAGE_FORM_TYPE_NORMAL
STAGE_FORM_TYPE_BATTLE
STAGE_FORM_TYPE_END
STAGE_FORM_TYPE_NUM
IS_RETURN_MENU
IS_DECIDE_SE_AUDIENCE
view_size_s
view_size_m
set_txt_music_title
able_shortcut
color_unable_shortcut
view_content_normal
view_content_all
view_content_random
set_bg_make_rect
set_bg_normal_rect
set_txt_normal
set_medal_0%d
stage_normal
stage_battlefield
stage_end
mel_stage_select_normal
mel_stage_select_battlefield
mel_stage_select_end
icon_battlefield
icon_end
type_normal
type_battlefield
type_end
mark_none
on_gimmick
off_gimmick
dig_1p
dig_2p
num_1p_1
num_1p_2
num_2p_1
num_2p_2
stock_1p
stock_2p
set_rep_stock_1p_00
set_rep_stock_1p_01
set_rep_stock_1p_02
set_rep_stock_1p_03
set_rep_stock_1p_04
set_txt_stock_1p_00
set_rep_stock_2p_00
set_rep_stock_2p_01
set_rep_stock_2p_02
set_rep_stock_2p_03
set_rep_stock_2p_04
set_txt_stock_2p_00
mel_info_stock_over_6
on_right_blank
on_right_snake
on_left_blank
on_left_campbell
on_left_meilin
on_left_otacon
on_left_slippy
in_serif
out_serif
loop_left_eye_00
loop_left_eye_01
loop_left_eye_02
loop_left_eye_03
loop_left_mouth_00
loop_left_mouth_01
loop_left_mouth_02
loop_left_mouth_03
loop_right_eye_00
loop_right_eye_01
loop_right_eye_02
loop_right_eye_03
loop_right_mouth_00
loop_right_mouth_01
loop_right_mouth_02
loop_right_mouth_03
loop_gauge_stop
loop_gauge
text_in
text_out
set_parts_left
set_parts_right
slide_in_00
slide_out_00
fade_in_00
fade_out_00
crossfade_00
crossfade_01
a2_off
a2_on
set_rep_a2
set_rep_a
set_rep_b
on_noise
on_fox
on_peppy
on_slippy
on_falco
loop_noise
loop_mouth_00
loop_mouth_01
loop_mouth_02
loop_mouth_03
serif_speed_00
serif_speed_01
serif_speed_02
serif_speed_03
serif_speed_04
serif_speed_05
set_txt_chara
set_txt_serif
on_krystal
on_wolf
on_panther
on_nus64
on_leon
loop_eye_00
loop_eye_01
loop_eye_02
loop_eye_03
scr_appeal_starfox_line2
scr_appeal_starfox_line3
scr_appeal_starfox_line4
on_finish
score_p1
score_p2
type_pokesta1_info
type_pokesta2_info
type_pokesta1
type_pokesta2
bg_pokesta1
bg_pokesta2
count_txt_off
count_04
count_02
count_01
txt_01
txt_02
txt_04
txt_05
txt_07
txt_08
teambattle_pokesta1_little
teambattle_pokesta2_little
teambattle_pokesta1_many
teambattle_pokesta2_many
set_txt_info_00
set_txt_info_01
set_txt_info_02
set_txt_info_03
set_txt_info_04
set_txt_05
set_txt_06
set_txt_07
set_txt_08
set_txt_count_01
set_txt_count_02
set_txt_count_03
set_txt_count_04
set_txt_count_05
set_part_%02d
txt_color
txt_off
mel_info_stage_poke_stadium_time
mel_info_time
mel_info_stage_poke_stadium_defeated
type_punchout
type_ko
type_suddendeath
player_color
blink
set_txt_ko
set_rep_ko_k
set_rep_ko_o
set_rep_sudden_00
set_rep_sudden_01
set_part_curtain_l
chr_bg_color
set_part_curtain_r
info_aurora_punchout_ko_k
info_aurora_punchout_ko_o
info_aurora_punchout_sudden
set_part_second%d
fight_count
set_part_minute%d
set_part_rank
set_part_ko_count%d
total_count
set_part_damage_total%d
mel_info_stage_punchout_top
mel_info_stage_punchout_rank_%d
mel_info_ko_n
gauge_sec_onoff
name_bg_col
gauge_00
gauge_01
gauge_colanim_00
gauge_colanim_01
bg_colanim_00
boss_face
set_rep_face
count_05
count_03
timeup
suddendeath
gameset
complete
success
failure
ready
txt_sudden
SUDDEN\nDEATH
txt_complete_00
COMPLETE!
txt_success_00
SUCCESS!
txt_failure_00
FAILURE!
txt_ready_00
Ready!
victory
lose
pos_ptn
cut_in_pib
set_rep_cutin_00
set_pic_bg_line
set_pic_bg_center
gauge_move
countup_hit
in_corp
in_grats
out_grats
set_txt_hit_num_00
fg_00
set_parts_pointer_00
icon_off
icon_in
set_parts_pointer_01
set_parts_pointer_02
set_parts_pointer_03
set_parts_pointer_04
set_parts_score_00
set_parts_score_01
set_parts_score_02
cloud_on
cloud_off
pokemon_on
pokemon_off
pokemon_txt_on
pokemon_txt_off
starfox_on
starfox_off
set_txt_pokemon
set_txt_starfox
set_tex_stock
result_type
highscore_type
palyer_count
gold
highscore
clear_off
key_help
set_txt_enemycount
set_txt_gold
set_parts_playericon_%02d
set_key_help_02
set_fxui_iconflash_00
set_fxui_score
set_fxui_iconflash_01
mel_kumite_back_btn
mel_kumite_back_chr
mel_kumite_back_stg
mel_kumite_defeated_score
mel_kumite_clear_time
mel_kumite_world_pw_score
set_parts_loupe_p%d
set_arrow_pib
set_pic_00
p_col
flashing_off
flashing_on
flame
set_parts_arrow_%s_%02d
arrow_anim
arrow_color
set_rep_time_pil_s
info_melee_timer_pil_s
time_onoff
time_num_00
time_num_01
time_num_02
time_num_03
time_num_04
time_num_05
set_parts_enemy_01
set_txt_enemy
enemy_1_off
enemy_1_on
set_txt_bgm
bgm_in
bgm_out
set_txt_title_special
title_special_in
title_special_out
set_parts_gsp
set_txt_gsp_count
gsp_onoff
set_rep_stock_%02d
p%d_2
dig_0_restore_1
dig_0_restore_2
dig_0_restore_3
dig_1_restore_1
dig_1_restore_2
dig_1_restore_3
dig_2_restore_1
dig_2_restore_2
dig_2_restore_3
dig_3_restore_1
dig_3_restore_2
dig_3_restore_3
dig_dec_01_restore_1
dig_dec_01_restore_2
dig_dec_01_restore_3
stock
coin
spirits_type
face_bg_anim
charge_bar
charge
charge_max_off
charge_max_00
limit
villager
magic
monad
pointplus_00
pointplus_01
pointminus_00
pointminus_01
pointplus_num_00
pointplus_num_01
pointminus_num_00
pointminus_num_01
reach
coin_num_1
coin_num_2
coin_num_3
pokemon
mii_on
mii_off
star_reach
set_txt_lv_00
set_rep_stock_00
set_rep_stock_01
set_rep_stock_02
set_rep_stock_03
set_rep_stock_04
set_txt_stock_00
set_info_alpha
set_rep_02
dig_0_anim
set_fxui_smoke
set_fxui_fire
set_fxui_heal
set_fxui_final
set_fxui_flash
set_fxui_dead1
set_fxui_dead2
set_fxui_dead3
sp_00
set_fxui_sp_get
sp_01
sp_02
sp_03
set_fxui_sp_use
ko_guage
ko_guage_max
set_ko_max_00
info_melee_lct_ko_max_00
set_ko_max_01
info_melee_lct_ko_max_01
in_all
set_parts_villager
item_drop
out_all
limit_guage
limit_guage_max
info_melee_lct_limit_localize_bg_00
magic_charge
magic_sword
magic_thunder
magic_fire
magic_wind
magic_rizaia
magic_icon
magic_max_flash
ink_guage
ink_guage_max
ink_guage_up
ink_guage_down
ink_sub_charge_max
ink_sub_csr
ink_all
ink_empty
ink_bg
ink_csr
gauge_all_off
gauge_all_on
gauge_all_in
gauge_all_out
mode_all_in
mode_all_out
guage_empty
guage_00
guage_01
guage_02
guage_03
guage_04
mode_empty_00
mode_empty_01
mode_empty_02
mode_empty_03
mode_empty_04
mode_select_00
mode_select_01
mode_select_02
mode_select_03
mode_select_04
mode_decide_00
mode_decide_01
mode_decide_02
mode_decide_03
mode_decide_04
mode_old
mode_change
mode_flashing_00
mode_flashing_01
mode_flashing_02
mode_flashing_03
mode_flashing_04
set_pic_mode_old
set_pic_mode_now
set_pic_mode_eff
sp_%02d
sp_anim_in
sp_anim_out
sp_anim_loop
info_melee_lct_monad_jump
info_melee_lct_monad_speed
info_melee_lct_monad_shield
info_melee_lct_monad_buster
info_melee_lct_monad_smash
mel_kumite_opponent
mel_info_shotdown_plus_n
mel_info_shotdown_minus_n
mel_info_lv
set_parts_message_p%d
line_00
line_01
set_parts_txt_time
bottom_out
time_now
time_rec
set_parts_timebar_rec
set_parts_recbtn
remain_time_disp_off
remain_time_disp_on
bottom_in
play_mov_fade_out
load_end
turn_loop
set_parts_key
mnu_replay_play_next
set_rep_pic_mov
next_mov_fade_in
set_parts_lct_playbtn
set_txt_header
set_txt_header_titlename
btn_ptn
p_color
set_txt_pause_any
set_parts_00
set_parts_01
set_parts_02
set_parts_03
set_parts_04
set_txt_key_00
set_icn_00
grayout
mel_pause_restart
mel_pause_restart_camera
mel_pause_sp_move_list
mel_pause_con_connect
mel_pause_end
mel_pause_end_btn
mel_pause_kumite_retry
mel_pause_player
mel_pause_apply_total
view_pause_camera
view_pause_replay
view_pause_record
view_play
view_off
mode_gc
mode_joycon_single
frame_disable
camera_disable
set_btn1_00
set_btn1_01
set_btn1_02
set_btn1_04
txt_btn_end_bg
txt_btn_end
txt_btn_capture
txt_btn_scale
txt_btn_scale_gc
txt_btn_turn
txt_btn_turn_gc
txt_btn_shift
txt_btn_shift_gc
txt_btn_roll
txt_btn_roll_gc
txt_btn_roll_mel
txt_btn_roll_gc_mel
txt_btn_angle
txt_btn_angle_gc
txt_btn_angle_mel
txt_btn_angle_gc_mel
txt_btn_next
txt_btn_next_gc
txt_btn_back
txt_btn_back_gc
txt_btn_frame
txt_btn_frame_gc
txt_btn_reset
txt_btn_reset_gc
txt_btn_delete
txt_btn_delete_gc
txt_effect_ctrl
txt_frame_ctrl
txt_filter_ctrl
set_btn1_03
txt_gylo_r
txt_gylo_l
set_btn1_05
txt_start_btn
set_parts_edge
edge
out_r
in_u
out_u
in_d
out_d
mnu_replay_movie_camera_free
mnu_replay_movie_camera_fighter
mnu_replay_movie_camera_melee
info_melee_num_hp
info_melee_lct_cursor_player_fp_00
info_melee_lct_cursor_player_fp_r
info_melee_lct_cursor_player_fp_b
info_melee_lct_cursor_player_fp_y
info_melee_lct_cursor_player_fp_g
info_melee_lct_cursor_player_lvup
set_cursor_p%d
fp_levelup
num_onoff
changedig
num_1
num_2
num_3
name_bg_onoff
set_dmg_num_1
set_dmg_num_2
set_dmg_num_3
set_dmg_hp
set_pic_fp
pic_fp_lvup
set_pic_fp_lvup
set_parts_marker_%02d
marker_col
set_anim_alpha
set_anim_frame_00
radar_pos
bg_col
marker_P1
marker_P2
marker_P3
marker_P4
marker_P5
marker_P6
marker_P7
marker_P8
radar
group_header_arrow
set_parts_ft_left
set_parts_ft_right
group_detail_arrow
set_parts_arrow_00
set_parts_arrow_01
group_header_keyhelp
set_parts_listkey
no_assign
single
stick_lr_btn
stick_t_btn
stick_b_btn
group_list_navi
set_parts_arrow_02
set_parts_arrow_03
selector_list%d
checkmark_off
checkmark_on
set_parts_loading
set_txt_explain_%02d
set_rep_skill_%02d
set_parts_keyassign_%02d
set_txt_extratitle_%02d
set_txt_extratxta_%02d
set_txt_extratxtb_%02d
set_rep_extraimg_%02d
set_txt_list_page
set_txt_list_all
set_txt_list_slash
mel_wazalist_open_guide_03
loading_on
loading_off
in_detail
out_detail
detail_page_0
detail_page_1
detail_page_2
detail_extra1_type1
detail_extra1_type2
detail_extra2_type1
detail_extra2_type2
detail_navi_up_show
detail_navi_up_hide
detail_navi_down_show
detail_navi_down_hide
detail_0
detail_0_to_1
detail_1_to_2
detail_2_to_1
detail_1_to_0
detail_2_to_0
detail_next_in
detail_next_out
detail_previous_in
detail_previous_out
in_list
out_list
list_line1
list_line2
list_navi_left_show
list_navi_left_hide
list_navi_right_show
list_navi_right_hide
list_0
list_1
list_0_to_1
list_0_to_2
list_0_to_3
list_1_to_2
list_2_to_3
list_2_to_1
list_3_to_2
set_menu
set_info
mel_wazalist_open_guide_04
set_txt_fighter
set_txt_fighter_entried
mel_wazalist_fighter_ptrainer_num
mel_wazalist_fighter_ptrainer
mel_wazalist_fighter_num
mel_wazalist_fighter_mii_num
mel_wazalist_open_guide_01
set_txt_rule_02
on_00
on_01
on_02
off_00
off_01
off_02
time_00
time_01
time_02
icon_on_stagegimmic_00
icon_on_stagegimmic_01
icon_on_stagegimmic_02
icon_on_specialrule_00
icon_on_specialrule_01
icon_on_specialrule_02
icon_blink_stagegimmic_00
icon_blink_stagegimmic_01
icon_blink_stagegimmic_02
icon_blink_specialrule_00
icon_blink_specialrule_01
icon_blink_specialrule_02
set_sp_p%d
icon_ptn_00
icon_ptn
anim_up
anim_down
on_enemy
off_enemy
on_power
off_power
set_rep_enemy_%02d
set_parts_score
set_txt_score_count
mel_standard_score_n
set_parts_scr_item_00
set_txt_cmd_name
set_txt_cmd
mnu_opt_btn_button_smash
set_btn_back
set_btn_fighter_select
set_txt_kye
mode_spirits_board_set
color_spirits
mode_make_mii_edit
color_other
mode_option_button_controller
color_option
set_txt_num_d
mnu_try_dmg_n
mnu_try_dmg_decimal_n
set_current_main
set_current_others
set_current_items
menu_main_to_others
menu_main_to_items
menu_others_to_main
menu_items_to_main
menu_item_out
menu_item_in
menu_itemset_default
menu_itemset_monsterball
menu_itemset_assist
menu_itemset_masterball
in_numbers
out_numbers
in_speed
out_speed
help_off
help_items_default
help_items_finish
category_00
category_01
category_02
category_03
category_04
category_05
category_06
category_07
category_08
category_09
category_10
category_11
category_12
category_13
category_14
category_15
camera_change
hit_color_black
hit_color_red
set_txt_num_00
set_txt_num_00_d
set_txt_num_01
set_txt_num_02
set_txt_num_02_d
set_txt_speed
set_txt_help_01
set_txt_item_01
set_txt_camera_00
set_rep_item_category
set_main_02
set_main_03
set_main_04
set_others_00
set_others_01
set_others_02
set_others_03
set_others_04
set_others_05
btn_keyhelp_camera
btn_keyhelp_refresh
selector_lr_main
selector_lr_others
set_main_items
set_main_others
hit_finish
set_parts_csr_l_main
set_parts_csr_r_main
set_parts_csr_l_others
set_parts_csr_r_others
selector_finish
btn_finish
keyhelp_grp
scroll_items
fp_disable
panel_main
panel_others
mel_training_off
mel_training_on
mel_training_help_same_offset_off
mel_training_help_same_offset
mel_training_shift0
mel_training_shift1
mel_training_shift2
mel_training_invincible1
mel_training_invincible0
mel_training_help_invincible_off
mel_training_help_invincible
mel_training_hit0
mel_training_hit1
mel_training_help_hit_off
mel_training_help_hit
mel_training_speed0
mel_training_speed1
mel_training_speed2
mel_training_speed3
mel_training_speed4
mel_training_speed7
mel_training_speed_control_frame
mel_training_speed_slow0
mel_training_speed_slow1
mel_training_speed_slow2
mel_training_speed_quick
mel_training_cp_stop
mel_training_cp_lv_n
mel_training_cp_walk
mel_training_cp_escape
mel_training_cp_jump
mel_training_cp_attack
mel_training_cp_smash_side
mel_training_cp_operation
mel_training_help_trajectory_off
mel_training_help_trajectory
mel_training_help_cp_dmg_fixing_off
mel_training_help_cp_dmg_fixing
type_off
type_monster
type_assist
type_master
extra_master
extra_off
random_monster
replace
random_assist
random_master
back_items
back_monster
back_assist
back_master
extra_monster
extra_assist
mel_training_camera_expand
mel_training_camera_more_expand
mel_training_camera_fixing
mel_training_camera_normal
mel_training_help_end
mel_training_back_training
mel_training_back_item
mel_training_help_time_frame
mel_training_help_time_slow2
mel_training_help_time_slow1
mel_training_help_time_slow0
mel_training_help_time_normal
mel_training_help_time_quick
mel_training_help_shift0
mel_training_help_shift1
mel_training_help_shift2
mel_training_help_dmg_pl1
mel_training_help_cp_quantity
mel_training_help_cp_dmg
mel_training_help_cp_movement_stop
mel_training_help_cp_movement_lv_n
mel_training_help_cp_movement_walk
mel_training_help_cp_movement_escape
mel_training_help_cp_movement_jump
mel_training_help_cp_movement_attack
mel_training_help_cp_movement_smash_side
mel_training_help_cp_movement_operation
mel_training_help_item
mel_training_help_menu_change2
mel_training_dmg_n
mel_training_dmg_decimal_n
mel_training_hit_n
mel_training_dmg_sum_n
mel_training_dmg_sum_decimal_n
stat_change
layout_def
layout_pn2
layout_pn3
layout_pn4
layout_pn5
layout_pn6
layout_pn7
layout_pn8
in_menu
out_menu
in_layout_change
out_layout_change
in_battlestart
out_battlestart
game_start_ok
game_start_stop
tp_total_00
tp_total_01
tp_total_02
tp_total_03
leave_show
leave_hidden
set_main_00
set_main_01
set_main_leave
txt_start_keyhelp
selector_option
btn_dummy
selector_leave
option_csr_grp
btn_menu_cursor
progress_gauge
linear
color_default
color_battlestart
loop_light
in_allready
loop_allready
set_txt_status
set_txt_status_next
set_txt_numa_tp_%02d
set_txt_numb_tp_%02d
set_rep_tp_%02d
set_txt_shoot
set_txt_timer
player_%02d
frame_delete_p4
frame_set_p4
frame_delete_p8
frame_set_p8
size_p4
size_p8
popin_newentry
popout_newentry
in_readyok
in_progress
in_wanted
player_1p
player_2p
player_3p
player_4p
player_5p
player_6p
player_7p
player_8p
profile_hidden
profile_show
in_closed
out_closed
trans_readyok
in_statustxt
out_statustxt
trans_progress
trans_bye
set_rep_picon
player_gauge
progress
glow_loop
set_txt_val_old
mel_mockbattle_cp_attack
mel_mockbattle_cp_stop
mel_mockbattle_cp_auto
mel_mockbattle_cp_n
mel_mockbattle_state_wait
mel_mockbattle_state_soon
mel_mockbattle_state_mel_start
mel_mockbattle_remaining_time
mel_mockbattle_dmg_n
mel_mockbattle_dmg_decimal_n
mel_mockbattle_entry
mel_mockbattle_hope_join
mel_mockbattle_preparation
mel_mockbattle_setting_rule
mel_mockbattle_sel_stage
mel_mockbattle_sel_fighter
mel_mockbattle_check_rule
mel_mockbattle_result
mel_mockbattle_bye
mel_mockbattle_battle
MELEE_NORMAL
MELEE_TEAM_COMPE
MELEE_SPECIAL_VARIOS
MELEE_SPECIAL_SUDDENDEATH
SPIRITS_CHALLENGE
OTHER_KUMITE_100
OTHER_KUMITE_ALLSTAR
OTHER_KUMITE_CRUEL
ROOT_TYPE
CANCELLED
set_mode
set_text_dev_count
mnu_local_display_rm_n
set_parts_room_info
set_parts_profileicon_00
set_parts_load
dev_wave_loop
dev_count_0
dev_count_1
dev_count_up
list_ptn_normal
set_parts_cursor_dec
list_ptn_scroll
set_txt_room_sel_name
room_member_name_on
room_member_name_off
room_bg_name_hige
type_new
icon_type_new
play_off
type_lock
room_status_info_ng
icon_type_melee_lock
icon_type_spirits_lock
icon_type_any_lock
set_txt_room_info_ng
mnu_local_status_%02d
mnu_local_rule_join_limit
mnu_local_rule_not_join
room_status_info_ok
type_melee
icon_type_melee
type_spirits
icon_type_spirits
type_any
icon_type_any
set_txt_room_info
mnu_local_status_01
set_txt_title_main
set_txt_title_sub
set_txt_title_sub_01
icon_rule_melee_time
mnu_local_rule_bottom_01
icon_rule_melee_stock
mnu_local_rule_bottom_02
icon_rule_melee_hp
mnu_local_rule_bottom_03
mnu_local_rule_bottom_04
title_line_2
title_line_3
title_line_1
room_member_count_%d
set_parts_profileicon_%02d
friend_on
friend_off
type_%02d
play_on_lock
play_on_unlock
room_status_friend_lock
mnu_local_status_range_%02d
mnu_local_rule_bottom_mel_normal
mnu_local_rule_bottom_mel_compe
mnu_local_rule_bottom_mel_various
mnu_local_rule_bottom_mel_suddendeath
mnu_local_rule_upper_00
mnu_local_rule_upper_03
mnu_local_rule_upper_06
mnu_local_rule_upper_07
mnu_local_rule_upper_05
btn_new
set_icn_room_new
lock_off
btn_melee
btn_spirits
btn_any
lock_on_lock
btn_disable
set_txt_mode
mnu_local_new_rm_mel_btn_00
pic_melee
mark_melee
mnu_local_new_rm_mel_btn_02
pic_verious
mark_verious
mnu_local_new_rm_mel_btn_03
pic_ssdn
mark_ssdn
set_txt_modecategory
mnu_local_new_rm_mel_btn_top
mode_melee
mnu_local_new_rm_oth_btn_01
pic_100
mark_100
mnu_local_new_rm_oth_btn_02
pic_all
mnu_local_new_rm_oth_btn_03
pic_nasake
mark_nasake
mode_standard
set_txt_mode_on
set_txt_mode_off
ly01_melee
ly02_standard
room_status_any
set_txt_balloon
mnu_local_new_rm_mode_range_00
room_status_acq
mnu_local_new_rm_mode_range_01
room_status_friend
selector_mode00
set_parts_btn00
set_parts_btn01
set_parts_btn02
set_parts_btn03
set_txt_jump_00
set_txt_jump_01
set_txt_jump_02
set_txt_attack_00
set_txt_attack_01
set_txt_attack_02
set_txt_special_00
set_txt_special_01
set_txt_special_02
set_txt_special_03
set_txt_shield
set_txt_flick
set_txt_title_01
set_txt_title_02
set_txt_title_03
set_txt_title_04
set_txt_title_05
set_txt_title_06
set_txt_plus_00
set_txt_plus_01
set_txt_plus_02
set_txt_04
SEQUENCE_NONE
SEQUENCE_TITLE
SEQUENCE_TITLE_DEMO
SEQUENCE_MELEE
SEQUENCE_MELEE_NORMAL
SEQUENCE_MELEE_TEAM_COMPE
SEQUENCE_MELEE_SPECIAL
SEQUENCE_MELEE_SPECIAL_VARIOUS
SEQUENCE_MELEE_SPECIAL_SUDDENDEATH
SEQUENCE_MELEE_SPECIAL_ALL_BATTLE
SEQUENCE_MELEE_TOURNAMENT
SEQUENCE_SPIRITS
SEQUENCE_SPIRITS_CHALLENGE
SEQUENCE_SPIRITS_CANPAIGN
SEQUENCE_SPIRITS_FORMATION
SEQUENCE_OTHER
SEQUENCE_OTHER_STANDARD
SEQUENCE_OTHER_KUMITE
SEQUENCE_OTHER_KUMITE_100
SEQUENCE_OTHER_KUMITE_ALLSTAR
SEQUENCE_OTHER_KUMITE_CRUEL
SEQUENCE_OTHER_TRAINING
SEQUENCE_OTHER_CHARA_MAKE
SEQUENCE_OTHER_AMIIBO
SEQUENCE_OTHER_CHALLENGER
SEQUENCE_COLLECTION
SEQUENCE_COLLECTION_REPLAY
SEQUENCE_COLLECTION_REPLAY_DATA
SEQUENCE_COLLECTION_REPLAY_VIDEO
SEQUENCE_COLLECTION_CLEARGETTER
SEQUENCE_COLLECTION_SOUND
SEQUENCE_COLLECTION_SMAKNOWLEDGE
SEQUENCE_COLLECTION_MOVIE
SEQUENCE_COLLECTION_RECORD
SEQUENCE_COLLECTION_RECORD_COUNT
SEQUENCE_COLLECTION_RECORD_MEMORIAL
SEQUENCE_COLLECTION_RECORD_FIGHTER
SEQUENCE_COLLECTION_RECORD_CARD
SEQUENCE_COLLECTION_RECORD_PLAYING
SEQUENCE_COLLECTION_SHOP
SEQUENCE_COLLECTION_PRESENT
SEQUENCE_OPTION
SEQUENCE_OPTION_MELEE
SEQUENCE_OPTION_BUTTON
SEQUENCE_OPTION_PICTURE
SEQUENCE_OPTION_SOUND
SEQUENCE_OPTION_ONLINE
SEQUENCE_OPTION_LANGUAGE
SEQUENCE_ONLINE
SEQUENCE_ONLINE_MELEE
SEQUENCE_ONLINE_MELEE_ANYONE
SEQUENCE_ONLINE_MELEE_ROOM
SEQUENCE_ONLINE_MELEE_ANYONE_VIP
SEQUENCE_ONLINE_MELEE_WAIT_PARALLEL
SEQUENCE_ONLINE_WATCH
CHALLENGER_HIDE
CHALLENGER_CLOSE
CHALLENGER_OPEN
prg_func
INPUT_HOWTO
get_information_data
set_resume_button_id
get_resume_button_id
get_challenger_state
get_opponent_tag_count
is_valid_profile
is_valid_present
is_valid_new_present
open_pallet
root_type
title_in_01
mnu_technique_topic_all
mnu_technique_topic_common
mnu_technique_topic_fighter
nam_technique_title_%s
stream:/movie/technique/%s.webm
_mode_all
cat_%s%s
set_icon_02
set_icon_01
set_icon_00
set_txt_topic_title
col_unique
col_com
fighter_icon_off
fighter_icon_02
fighter_icon_01
fighter_icon_00
set_keyhelp
set_txt_topic_num_bb
set_txt_topic_num
set_txt_topic_category
set_movie_preview
set_txt_explanation_00
mnu_technique_scroll_joy_guide
mnu_technique_scroll_guide
nam_technique_explain_%s
press_any
set_btn_press_any
insert_01
set_txt_vernum
set_parts_panel_%02d
set_rep_b_01
set_rep_s_01
set_rep_b_00
set_rep_s_00
set_rep_m
lay_winner
set_parts_ico_%02d
set_rep_ico
set_panel_eff_%02d
set_txt_winner_player
mel_sp_allbattle_player_n
mel_sp_allbattle_computer_n
mel_sp_allbattle_nam
lay_draw
draw_%1dp
set_parts_player_%02d
set_parts_player_1%1d
eff_off
winner_anm
winner
draw_on
draw_in
mark_loop
mel_rule_cond_%d
mel_rule_launch_launch_rate_unit
mel_rule_recovery_percent
mel_rule_edit_tournament_random
mel_rule_stage_change_without
mel_rule_stage_change_any
mel_rule_stage_change_time
mel_rule_spirit_with
mel_rule_spirit_without
mel_rule_team_attack_with
mel_rule_team_attack_without
mel_rule_charge_with
mel_rule_charge_without
mel_rule_stage_gimmick_with
mel_rule_stage_gimmick_without
mel_rule_pause_with
mel_rule_pause_without
mel_rule_score_with
mel_rule_score_without
mel_rule_damage_with
mel_rule_damage_without
mel_rule_edit_allbattle_unreversal_with
mel_rule_edit_allbattle_unreversal_without
mel_rule_edit_suddendeath_shrink_with
mel_rule_edit_suddendeath_shrink_without
mel_rule_edit_suddendeath_bomb_with
mel_rule_edit_suddendeath_bomb_without
indent_on
bg_banner_rule_time
bg_banner_rule_stock
bg_banner_rule_hp
bg_banner_team_com
bg_banner_time_limit
bg_banner_stock_num
bg_banner_hp_mode
bg_banner_victory_cond
bg_banner_spirit_icon
bg_banner_cp_level
bg_banner_handicap_damage
bg_banner_stage_select
bg_banner_item_switch
bg_banner_stage_switch
bg_banner_team_attack
bg_banner_def_reaction
bg_banner_charge_final
bg_banner_handicap_boost
bg_banner_stage_gimmick
bg_banner_stage_number
bg_banner_stage_change
bg_banner_recovery_value
bg_banner_pause
bg_banner_score_disp
bg_banner_damage_disp
bg_banner_rule_detail
bg_banner_battle_max_num
bg_banner_allbattle_unreversal
bg_banner_scaledown_stage
bg_banner_drop_bomb
set_parts_det_00
set_txt_det_title_01
set_txt_det_title_00_sd
mel_rule_edit_stock_em
mel_rule_edit_stamina_em
mel_rule_edit_time_inifinity_stock_em
mel_rule_edit_time_stock_em
mel_rule_team_edit_time_inifinity_stock_stamina
mel_rule_team_edit_time_stock_stamina
set_txt_rule_00_old
txt_move_l
txt_move_r
rule_detail
btntype_all
btntype_normal
set_txt_rule_01
set_txt_title_sel
set_icn_rule_det_pl
set_selected_icon
set_txt_00_off
set_txt_00_on
set_txt_01_off
set_txt_01_on
window_size_l
window_size_m
csr_l
csr_r
csr_b
csr_t
icon_%d_%02d
view_%d_00
size_%d_%02d
set_parts_freq_crs_area
update_info_item_selector
update_info_appear_selector
get_global_parameter_appear
get_global_parameter_on_off
ITEM_PANEL_MAX
ITEM_PANEL_LIST_NUM
ITEM_PANEL_ALL_ON_OFF
ITEM_APPEAR_NUM
set_part_item_%02d
get_item_appear
get_item_on_off
set_rep_item_sdw
bg_category
set_txt_item_name
mel_rule_item_help_freq_0%d
txt_positoin_01
mel_rule_item_help_allbutton_on
mel_rule_item_help_allbutton_off
set_txt_item_category
category_%02d
txt_positoin_00
sort_in
set_parts_title_00
det_etc_on
det_etc_off
rule_icon_compe
rule_icon_tourn
rule_icon_in
rule_icon_out
set_rep_etc_00
icn_etc_off
icn_etc_on
set_rep_det_title_00
det_win_time
det_win_3
det_win_stock
det_win_4
det_win_stamina
det_win_5
set_txt_det_title_00
set_txt_det_val_00
det_win_off
det_win_on
mel_rule_select_edit
mel_rule_select_guide1
mel_rule_select_sort%d
sub_off
mel_rule_select_guide2
sub_on
set_icn_preset
rule_preset
set_icn_etc
rule_etc
rule_make
rule_new
set_icn_rule
set_icn_rule_sel
rule_time
rule_stock
rule_stamina
rule_icon_off
rule_icon_on
set_preview_st_00
view_size_l
view_content_random_stage
btns
set_stage_preview_from_panel
get_global_parameter
set_edit_parameter
out_com_frame
is_can_edit
STAGE_PANEL_MAX
STAGE_PANEL_LIST_NUM
STAGE_PANEL_ALL_ON_OFF
create_data
set_part_stage_%03d
set_rep_stage
get_stage_on_off
set_rep_st_mark
view_content_empty
set_rep_st_logo
set_txt_st_name
BUTTON_ID_BODY_SIZE
BUTTON_ID_HEAD_OPTION
BUTTON_ID_BODY_OPTION
BUTTON_ID_STATE_OPTION
BUTTON_ID_WEIGHT
BUTTON_ID_SPEED
BUTTON_ID_CAMERA
BODY_SIZE_TITLE_MSG
HEAD_OPTION_TITLE_MSG
BODY_OPTION_TITLE_MSG
STATE_OPTION_TITLE_MSG
WEIGHT_TITLE_MSG
SPEED_TITLE_MSG
CAMERA_TITLE_MSG
BODY_SIZE_BUTTON_NUM
HEAD_OPTION_BUTTON_NUM
BODY_OPTION_BUTTON_NUM
STATE_OPTION_BUTTON_NUM
WEIGHT_BUTTON_NUM
SPEED_BUTTON_NUM
CAMERA_BUTTON_NUM
CAMERA_NORMAL
CAMERA_FIX
CAMERA_LOOK_DOWN
get_sub_selector_item_text
set_rule_special
get_help_text
help_text
sub_button_text
IS_READ_ONLY
BODY_SIZE_INIT
HEAD_OPTION_INIT
BODY_OPTION_INIT
STATE_OPTION_INIT
WEIGHT_INIT
SPEED_INIT
CAMERA_INIT
IS_HOST
IS_JOIN_ROOM
fighter_scale_small
fighter_scale_big
openeyes
mel_tournament_standby_rule
mel_tournament_standby_date
shuffle_inout_%02d
shuffle_inout_00
mel_tournament_title_default
set_parts_title
set_txt_tnmt_title
mel_tournament_confirm_title
set_parts_header
advance_in
advance_out
set_rep_logo
mel_tournament_confirm_rule
set_panel_00
set_size_00
set_size_01
set_parts_btn_decide
set_icon_%02d
set_parts_btn_start
side_l
side_r
taken
info_off
set_txt_name_bo
set_txt_missed
mel_tournament_chart_absence
mel_tournament_chart_rule
set_txt_tnmt_progress
mel_tournament_chart_round
mel_tournament_chart_round_semifinal
mel_tournament_chart_round_final
mel_tournament_chart_final_result
set_pic_overlay
set_txt_player_id
set_parts_winner_panel
fighter_name_%d
set_txt_fighter_%d
set_txt_player_name_edge
mel_tournament_match_cp
mel_tournament_match_fp
set_rep_icon_series_fp
figter_name_%d
set_rep_fighter_1
set_rep_fighter_2
set_rep_fighter_3
set_rep_fighter_4
set_rep_shadow2
size_stay_%d
size_go_%d
loser
aft_anime_hl_%s
stat_%s
pos_anime_forward_%s
pos_stay_forward_%s
pos_anime_backward_%s
pre_anime_normal_hl
stat_highlight
pos_stay_normal
info_on
player_undecided
player_cp
player_fp
side_%s_amiibo
info_next
set_final_area
final_p8
set_rep_final_p%d
champion
champion_loop
blank_p%d
inout_title_prog
progress_delay_in
set_txt_title_prog
mel_tournament_chart_round_title
vc_narration_round%d
mel_tournament_chart_round_title_semifinal
mel_tournament_chart_round_title_final
progress_on
lookback_on
progress_off
in_win
out_win
in_win_left
out_win_left
pop_p1
pop_p%d
trophy_on
effect_off
01_to_00
set_txt_val
set_txt_sum
mel_tournament_member_sum_n
set_txt_sum_pre
on_number_%02d
cp_number_%02d
mel_tournament_type_select_a
mel_tournament_type_select_b
mel_tournament_type_select_c
mel_tournament_type_select_d
set_parts_btn2_%02d
finalist_number_%d
final_p%d
set_txt_compe
mel_tournament_type_active_txt_04
mel_tournament_type_pattern_%d
set_txt_compe_detail
00_to_01
type_number_%d
set_pic_final_base
set_final_pos_p%d
set_parts_csr_l
set_parts_csr_r
loopanime_00
loopanime_01
loopanime_02
set_parts_btn2_00
set_parts_btn2_01
set_parts_btn2_02
set_parts_btn2_03
selector_csr
trophy_loop
set_parts_mp_%02d
set_current_table
set_pic_panel
missed
participate
size_h1
size_h2
BUTTON_HELP
MODE_NORMAL
MODE_VIP
BUTTON_ID_SINGLE
BUTTON_ID_DOUBLE
BUTTON_ID_VIP
BUTTON_ID_PRIORITY
open_priority_sub_window
decided_priority_sub_window
close_priority_sub_window
PRIORITY_RULE
g_melee_type
TYPE_NONE
ANYONE_SINGLE
ANYONE_DOUBLE
ANYONE_VIP
TOURNAMENT
g_fighter_name_1p
mnu_while_wait_fighter_not_set
g_fighter_name_2p
g_is_vip_fighter
g_is_rule_priority
SCENE_EXIT_CODE_SELECT
g_is_chara_select_back
open_guide
is_guide_decided
decided_sub_window
close_sub_window
open_priority_window
decided_priority_window
close_priority_window
open_popup_window
is_popup_finished
is_popup_result_yes
g_result_melee_type
g_exit_code
set_txt_help_00
mnu_while_wait_await_anyone_help_single
mnu_while_wait_await_anyone_help_double
mnu_while_wait_await_anyone_help_vip
mnu_while_wait_await_anyone_help_tournament
mode_00
size_type_00
mode_01
size_type_01
set_fxui_spark
txt_disp_loop
txt_disp_on
txt_next
txt_melee
txt_disp_off
rank_off
bln_put_off
bln_put_on
anim_fight_finish_%02d
anim_fight_loop_%02d
anim_fight_set_%02d
ol_flag_icon_on
figher_panel_in
txt_03
mnu_online_room_inside_time
ol_flag_icon_off
figher_panel_out
anim_ready
slide_out
area_medal
mel_over_return_02
mel_return_02
pic_stage
set_rep_stg
stage_random
stage_other
pic_fighter
set_rep_fig
rule_btn_disp_on
btn_disp_1_on
mnu_online_room_inside_room_nam
vc_disp_on
mnu_online_room_search_room_id_n
detail_disp_03
set_parts_bln_fig_%02d
room_count%d
pos_fight_%02d
pos_fight_%02d_pri
pos_c_%02d
pos_c_%02d_pri
pos_l_%02d
pos_l_%02d_pri
pos_r_%02d
pos_r_%02d_pri
pos_b_%02d
pos_b_%02d_pri
pos_r_ly01
pos_r_ly02
pos_r_ly_move
set_parts_pnl_%02d
set_4
name_con_4
ol_flag_off
ol_flag_on
ol_s_h
ol_s
txt_06
mnu_online_room_inside_team_change_guide
set_btn_flag_team
set_btn_hd
set_btn_sp
spirits_unset
ol_cancel_on
ol_footer_off
ol_bln_disp_off
set_btn_ready
chara_select_btn3_05_ready_00
set_pic_ready
set_pic_ready_in_00
set_pic_ready_in_01
set_pic_ready_out_00
set_pic_ready_line_00
offvc_icon_off
offvc_icon_on
stage_show
stage_hide
slide_stay
slide_in
ring_fighter_%02d
set_txt_chara_name_00
chara_size_mii
set_rep_icn_fighter_01
set_txt_pl_num
set_parts_icon_s
set_rep_sp
set_rep_sp_sd
set_rep_sp_mini
set_rep_sp_sd_mini
spirits_set
ol_bln_disp_txt
ol_bln_disp_time
ol_bln_disp_ok
_gray
ol_bln_player_color_%dp%s
set_1_btn_s
set_txt_dmg
ol_cancel_off
ol_footer_on
ol_bln_disp_on
mnu_online_room_inside_host_nam
mnu_online_room_search_host_account
set_txt_03
mnu_online_room_inside_msg_enter
mnu_online_room_inside_msg_leave
mnu_online_room_inside_msg_drive_out
mnu_online_room_inside_msg_10ko
mnu_online_room_inside_msg_30ko
mnu_online_room_inside_msg_50ko
mnu_online_room_inside_msg_100ko
mnu_online_room_inside_msg_battle_start
mnu_online_room_inside_msg_battle_finish
mnu_online_room_inside_msg_cannot_battle
set_parts_logw
set_txt_chw_new
set_txt_chw_%02d
set_txt_chw_old_%02d
sel_off
newtext_in
newtext_in_close
sel_on
balloon_off
balloon_on
baloon_type_00
set_txt_balloon_00
mnu_online_room_inside_entry
mnu_online_room_inside_watch
baloon_type_01
set_txt_balloon_01
mnu_online_room_inside_watching
baloon_type_02
mnu_online_room_inside_selected
medal_type_player
medal_type_other
owner_caption
player_caption
guide_btn_off
mnu_online_room_inside_ok_btn
mnu_online_room_inside_back_btn
guide_btn_on
btn_%02d_off
btn_%02d_on
color_member
color_me
own_off
own_on
fri_off
fri_on
mnu_online_room_inside_account_nam
mnu_online_room_inside_ko_total_n
anim_bg
set_parts_header_btn
set_rep_icn_fighter_00
btn_disp_2_on
mnu_online_room_cancel_btn
mnu_online_room_create_make_btn
mnu_online_room_participate_btn
btn_disp_off
baln_clr_b
baln_tit_any
baln_clr_r
baln_tit_fri
mnu_online_room_create_password
mnu_online_room_search_password
mnu_online_room_search_password_not
set_txt_hd_title
set_txt_hd_u_cont_00
rule_btn_disp_off
set_txt_hd_b_cont_00
txt_sub_hd_00
set_txt_sub_hd_00
txt_sub_hd_%02d
set_txt_sub_hd_%02d
detail_disp_%02d
vc_disp_off
mnu_online_room_create_host_account
set_txt_cate
set_txt_cate_00
set_txt_rule_00
set_txt_center
num_disp_center
key_off
set_txt_now
mnu_online_room_search_participants_n
set_txt_max
num_disp_max
num_on
num_max
key_on
color_00
indent
size_l
size_s
indent_off
set_txt_filter_00
set_txt_filter_00_old
txt_move_%s
color_05
color_04
color_03
color_02
mnu_online_room_replace_loser_two
mnu_online_room_replace_loser_one
mnu_online_room_replace_loser
mnu_online_room_replace_winner_two
mnu_online_room_replace_winner_one
mnu_online_room_replace_winner
mnu_online_room_form_four
mnu_online_room_form_three
mnu_online_room_form_one_one
mnu_online_room_form_team
mnu_online_room_limit_anyone
mnu_online_room_limit_friend
mnu_online_room_purpose_anyone
mnu_online_room_purpose_serious
mnu_online_room_purpose_beginner
mnu_online_room_purpose_intermediate_senior
mnu_online_room_purpose_anything
mnu_online_room_purpose_free
indent_00
set_txt_filter_01
set_txt_filter_01_old
color_g
color_r
mnu_online_room_spirits_all
mnu_online_room_spirits_off
mnu_online_room_spirits_on
mnu_online_room_rule_all
mnu_online_room_rule_time
mnu_online_room_rule_stock
mnu_online_room_rule_stamina
mnu_online_room_form_all
mnu_online_room_purpose_all
indent_0m_off
indent_1s_off
mnu_online_room_help_setting_player_number
mnu_online_room_help_stage_previously_select
mnu_online_room_help_stage_random
mnu_online_room_help_stage_random_battlefield
mnu_online_room_help_stage_random_end
mnu_online_room_help_spirits_off
mnu_online_room_help_spirits_on
mnu_online_room_help_voicechat_off
mnu_online_room_help_voicechat_on
mnu_online_room_help_setting_roombgm
mnu_online_room_player_number_n
mnu_online_room_voicechat_off
mnu_online_room_voicechat_on
mnu_online_room_stage_previously_select
mnu_online_room_stage_random
mnu_online_room_stage_random_battlefield
mnu_online_room_stage_random_end
pop_out
pop_in
con_0_m
txt_header_01
mnu_online_room_create_detail
con_1_s
txt_header_00
mnu_online_room_create_search
set_txt_filter_title_sel
pic_disp_off
pic_disp_on
icon_00_number
icon_01_stage
icon_03_sp
icon_04_vc
icon_05_bgm
mnu_online_room_setting_player_number
mnu_online_room_setting_stage
mnu_online_room_setting_spirits
mnu_online_room_setting_voicechat
mnu_online_room_setting_roombgm
mnu_anyone_rule_edit_help_mel
mnu_anyone_rule_edit_help_mel_team
mnu_anyone_rule_edit_help_1on1
mnu_anyone_rule_edit_help_time
mnu_anyone_rule_edit_help_stock
mnu_anyone_rule_edit_help_stamina
mnu_anyone_rule_edit_help_time_n
mnu_anyone_rule_edit_help_time_end_n
mnu_anyone_rule_edit_help_stock_n
mnu_anyone_rule_edit_help_stamina_n
mnu_anyone_rule_edit_help_stg_all
mnu_anyone_rule_edit_help_no_gimmick
mnu_anyone_rule_edit_help_battlefield
mnu_anyone_rule_edit_help_end
mnu_anyone_rule_edit_help_customize
set_itemstat_%02d
stat_on
stat_off
txt_one_switch_on
txt_one_switch_off
set_parts_items_%02d
txt_all_switch_on
txt_all_switch_off
limit_rule_00
limit_rule_01
limit_rule_02
view_all_switch_base
view_one_switch_base
itemswitch_off
itemselect_%02d
set_txt_item_help
mnu_anyone_rule_edit_item_help_on_all
mnu_anyone_rule_edit_item_help_off_all
mnu_anyone_rule_edit_item_help_on
mnu_anyone_rule_edit_item_help_off
mode_edit
itemswitch_on
mode_select_off
mnu_anyone_rule_set_help_off
mode_select_on
mnu_anyone_rule_set_help_on
selector_select
set_parts_mode_00
set_parts_mode_01
type_others
type_item
selector_guide
btn_init
set_parts_category_%02d
mode_other
mode_item
selected
not_selected
flag_%d
set_icon
set_txt_rule
mnu_spectate_rule
set_flag_%02d
set_panel_%02d
mnu_spectate_nam
set_txt_pw
panel_team
panel_%d
WAIT_SECONDS
PLAYER_COUNT
IS_TEAM_BATTLE
get_country_code
get_global_smash_power
get_current_seconds
start_timer
time_over
load_replay_data
chara_size
CONTROLLER_FULL_KEY
CONTROLLER_JOY_CON
CONTROLLER_GC_CON
MSG_LABEL_FULL_KEY
pop_opt_btn_ctrl_fullcon
MSG_LABEL_JOY_CON
pop_opt_btn_ctrl_joycon
MSG_LABEL_GC_CON
pop_opt_btn_ctrl_gccon
BUTTON_ID_FK_TRIGGER_L
BUTTON_ID_FK_TRIGGER_R
BUTTON_ID_FK_TRIGGER_ZL
BUTTON_ID_FK_TRIGGER_ZR
BUTTON_ID_FK_UP
BUTTON_ID_FK_SIDE
BUTTON_ID_FK_DOWN
BUTTON_ID_FK_BUTTON_A
BUTTON_ID_FK_BUTTON_B
BUTTON_ID_FK_STICK_R
BUTTON_ID_FK_BUTTON_X
BUTTON_ID_FK_BUTTON_Y
BUTTON_ID_JC_TRIGGER_LR
BUTTON_ID_JC_TRIGGER_ZLR
BUTTON_ID_JC_TRIGGER_SL
BUTTON_ID_JC_TRIGGER_SR
BUTTON_ID_JC_UP
BUTTON_ID_JC_RIGHT
BUTTON_ID_JC_LEFT
BUTTON_ID_JC_DOWN
BUTTON_ID_GC_TRIGGER_L
BUTTON_ID_GC_TRIGGER_R
BUTTON_ID_GC_TRIGGER_Z
BUTTON_ID_GC_UP
BUTTON_ID_GC_SIDE
BUTTON_ID_GC_DOWN
BUTTON_ID_GC_BUTTON_A
BUTTON_ID_GC_BUTTON_B
BUTTON_ID_GC_STICK_C
BUTTON_ID_GC_BUTTON_X
BUTTON_ID_GC_BUTTON_Y
BUTTON_ID_OPTION
BUTTON_ID_TEST
BUTTON_ID_RESET
BUTTON_RESET
OPERATE_ATTACK
OPERATE_SPECIAL
OPERATE_JUMP
OPERATE_GUARD
OPERATE_CATCH
OPERATE_SMASH
OPERATE_SMASH_UP
OPERATE_SMASH_SIDE
OPERATE_SMASH_DOWN
OPERATE_APPEAL
OPERATE_APPEAL_UP
OPERATE_APPEAL_SIDE
OPERATE_APPEAL_DOWN
OPERATE_NONE
MSG_LABEL_ATTACK
MSG_LABEL_ATTACK_STRONG
MSG_LABEL_SPECIAL
MSG_LABEL_JUMP
MSG_LABEL_GUARD
MSG_LABEL_CATCH
MSG_LABEL_SMASH
MSG_LABEL_SMASH_UP
MSG_LABEL_SMASH_SIDE
MSG_LABEL_SMASH_DOWN
MSG_LABEL_APPEAL
MSG_LABEL_APPEAL_UP
MSG_LABEL_APPEAL_SIDE
MSG_LABEL_APPEAL_DOWN
MSG_LABEL_NONE
DELIMITER_MSG_LABEL
FLICK_SENSOR_LOW
FLICK_SENSOR_NORMAL
FLICK_SENSOR_HIGH
restore_settings
get_operation
get_option_vibration
get_option_smash_attack
get_option_flick_up_jump
get_option_flick_sensor
open_sub_window
is_setting_changed
is_button_setting_changed
is_default_settings
get_not_assigned_operation_num
can_test_play
start_test_play
option_button_ctrl_func
selector_setup_bind_func
select_button_func
CONTROLLER_TYPE
IS_PRO
button_is_edited
updated_button_id
btn_00
BUTTON_ID_FULL_KEY_CON
BUTTON_ID_JOY_CON
BUTTON_ID_GC_CON
bg_in
is_reset
%s_is_connected
%s_is_edited
%s_vibe_enable
full_key_con
joy_con
gc_con
decided_button_id
bg_out
set_txt_btn_02
mnu_opt_btn_key_oth_help_hang
subwin_00_l
subwin_00_r
set_txt_btn_00
set_txt_btn_01
subwin_00_type_5
subwin_00_type_6
set_parts_subwin_%02d
set_txt_name_%02d
nosetting_on
namecol_unset
nosetting_off
namecol_set
namecol_def
subwin_01
selector_edit
set_parts_category_00
set_parts_category_01
set_parts_category_02
set_parts_category_03
set_parts_sub_btns_%02d
view_%d
set_parts_btn_sub_%02d
mnu_opt_btn_key_oth_off
mnu_opt_btn_key_oth_on
mnu_opt_btn_new
onamaeinput_on
onamaenashi
onamae
controller_joy_dual_%s
controller_joy_l_%s
controller_gc_%s
scroller
BUTTON_DELETE
ITEM_INDEX_NONE
ITEM_INDEX_FIRST
ITEM_INDEX_LAST
FOCUS_NONE
FOCUS_VIBRATION
FOCUS_SCROLLER
HELP_MSG_VIBRATION_ON
mnu_opt_btn_help_vib_on
HELP_MSG_VIBRATION_OFF
mnu_opt_btn_help_vib_off
HELP_MSG_NO_NAME
mnu_opt_btn_help_noname
HELP_MSG_NEW_NAME
mnu_opt_btn_help_new
decided_oname
delete_oname
is_oname
is_no_name_oname
set_help_message
vibrate
ENABLE_PALLET
MENU_VIBRATION
ITEM_INDEX_INIT
FOCUS_INIT
edited_menu_vibration
language_name_label
request
is_requested
open_popup
current_language
LANGUAGE_NUM
radar_edited
dash_edited
invisible_edited
set_rep_peach
set_rep_daisy
SCENE_EXIT_CODE_RULE
SCENE_EXIT_CODE_HANDI
BUTTON_EX_LEFT
BUTTON_EX_RIGHT
BUTTON_ID_RULE
BUTTON_ID_HANDICAP
BUTTON_ID_RADAR
BUTTON_ID_DASH_FIGHTER
BUTTON_ID_INVISIBLE
BUTTON_ID_SAVE
RADAR_NONE
RADAR_SMALL
RADAR_BIG
RADAR_NUM
DASH_CLOSE
DASH_OPEN
DASH_NUM
RADAR_INIT
DASH_INIT
INVISIBLE_INIT
IS_EDITED
RADAR_EDITED
DASH_EDITED
INVISIBLE_EDITED
color_sel_pop_out
fighter_sel_pop_out
color_sel_pop_in
btn01_color_%02d
tagcolor_%02d
fighter_sel_pop_in
set_parts_sub_btn_01
set_parts_sub_btn_00
type_03
set_icn_profile
set_icn_profile_bg
set_parts_oppo_tag
size0_icon
size1_color
size2_shortmail
size3_message
lct_oppo_tag_pos
RootPane
set_parts_btn_03_sub
set_parts_colorplt_%02d
set_rep_icn_fighter
pic_count_bg
pic_friend
pic_favorite
set_parts_newitem
off_online_btn
on_online_btn
in_r
in_l
offset_lr
plt_menu_lyt_00
pop_off
pop_on
pop_offset_r
pop_offset_l
text_on
text_off
set_parts_btn_00_lt
set_parts_btn_01_ll
set_parts_btn_02_lr
set_parts_btn_03_lb
set_parts_btn_04_rt
set_parts_btn_05_rl
set_parts_btn_06_rr
set_parts_btn_07_rb
lt_off
lr_off
lb_off
ll_off
rt_off
rr_off
rb_off
rl_off
current_on
current_off
set_parts_btn_08_header
set_parts_sub_btns
set_parts_radiobtn_00
set_parts_radiobtn_01
line_l
selector_04
line_r
out_l
mnu_opt_shortmsg_help_transmit_receive
mnu_opt_shortmsg_help_transmit_receive_off
mnu_opt_shortmsg_help_end
mnu_opt_shortmsg_help_start
update_operation_mode
SCENE_EXIT_CODE_ORE_SOUND
SCENE_EXIT_CODE_TEST
BUTTON_ID_MODE
BUTTON_ID_PLAY_ALL
BUTTON_ID_SOUND_TYPE
BUTTON_ID_BGM
BUTTON_ID_SE
BUTTON_ID_VOICE
BUTTON_ID_EXIT_MENU
BUTTON_ID_OK
MODE_TELEVISION
MODE_PORTABLE
MODE_HEADPHONE
MODE_NUM
SOUND_TYPE_LOW
SOUND_TYPE_NORMAL
SOUND_TYPE_HIGH
SOUND_TYPE_NUM
SOUND_TYPE_DEFAULT
VOLUME_MIN
VOLUME_MAX
VOLUME_DEFAULT
EXIT_MENU_ORE_SOUND
EXIT_MENU_TEST
EXIT_MENU_SAVE
set_edited_setting_data
update_edited_sound_type
update_edited_bgm_volume
update_edited_se_volume
update_edited_voice_volume
is_not_change
switch_sample_all
switch_sample_bgm
is_playing_sample_bgm
play_sample_se
is_playing_sample_se
play_sample_voice
is_playing_sample_voice
set_enable_auto_sound_setting
SOUND_TYPE_EDITED
VOLUME_BGM_EDITED
VOLUME_SE_EDITED
VOLUME_VOICE_EDITED
last_selected_mode_
exit_code_
MODE_INIT
EXIT_MENU_INIT
mnu_opt_top_language
set_btn_05
text_2
text_1
BUTTON_ID_MELEE
BUTTON_ID_SOUND
BUTTON_ID_ONLINE
BUTTON_ID_BUTTON
BUTTON_ID_VIDEO
BUTTON_ID_LANGUAGE
BUTTON_ID_INTERLOCK
INPUT_HOW_TO_PLAY
IS_BACK
BUTTON_ID_INIT
slider_00
set_bar_00
slider_btn_00
set_parts_btn_tab_0_00
set_parts_btn_tab_0_01
set_cursor_%02d
set_info_%02d
set_rep_00
set_rep_01
face_bg
set_txt_score_00
info_melee_localize_pil
set_dmg_num_p
num_dec_01
set_dmg_p
set_dmg_num_dec
info_melee_num_p
num_%d
set_dmg_num_%d
test_on
test_off
txt_light_off
txt_light_on
set_txt_light
pop_opt_sound_change_tv
pop_opt_sound_change_carry
set_rep_screen_00
in_nocontest
ptn_02
ptn_01
ptn_01_back
ptn_%02d
ptn_%02d_for_duckhunt
panel_move_01
panel_move_00
set_parts_tag
set_fxui_card
gsp_type
txt_gsp_count
gsp_up
gsp_down
gsp_arrow
ready_eff
in_panel_%dp
score_title_onoff
set_parts_message
line_%02d
parts_fp_lv
count_up_1s
set_parts_fp_levelup
pos_center
txt_lvup
ptn_00
%dp_%02d
txt_det_title_04
mel_result_item_%02d
set_rep_char_icn
set_rep_char_icn_sd
set_rep_series00
set_rep_series01
set_txt_p_num
rank_num_off
set_txt_rank
set_txt_p_name
set_txt_p_name_break
set_txt_u_name
set_txt_u_name_fp
mel_result_fp_nam
set_parts_fp_type
spirit_attacker_%s
mel_result_player_n
mel_result_computer_n
mel_result_player_nam
set_txt_det_01_%02d
mel_result_not_dead
mel_result_dead_time
scr_item_ptn_%d
set_parts_det_26
set_parts_csr_t
set_parts_csr_b
set_parts_det_%02d
set_txt_item_00
mel_result_item_unit_%02d
set_parts_det_02
set_parts_det_03
set_parts_det_25
keyhelp_onoff
txt_btn_01
spirit
set_parts_sp_00
set_parts_sp_01
card_get_in
set_tag_plate
tag_bg_%d
set_txt_item_%02d
set_rep_%d_%02d
offense
throw
defense
count_1
count_%d
set_txt_rank_01
set_txt_name_01
star_count
nocontest_on
team_off
player_%d
star_on
set_parts_win_%d_%02d
set_window_sd
rank_%d
parts_star_%d_%02d
parts_star_1_00
team_on
in_team
flash_eff_on
set_fxui_rankflash
set_%s
badge_fullplay
badge_play_one
badge_repeat_all
badge_repeat_one
badge_shuffle
mark_pause
list_source_off
ser_source_off
timebar_off
playlist_icon_00
other_00
voi_source_off
set_txt_sound_sou_04
mnu_sound_test_voice_actor_nam
voi_source_on
list_source_on
ser_source_on
timebar_on
set_parts_btn_list_sc
ser_icon
playlist_icon_01
other_01
time
mnu_sound_test_seriese_playback_time
mark_play
bgm_btn_off
bgm_btn_on
set_parts_btn_ser_sc
set_txt_sound_ser
ser_all
set_parts_scr_sound_list
playlist_name_on
playlist_name_off
mark_repeat_all
mark_repeat_1
mark_shuffle
mark_fullplay
holding_down_button
release_button
set_ctl_btn_00
set_ctl_btn_01
set_ctl_btn_02
set_ctl_btn_03
mark_backtrack
mark_nexttrack
set_parts_bg_wave_ser
plylst
set_parts_bg_wave_plylst
set_parts_bg_wave_voi
btn_off
keyhelp_minus_off
keyhelp_minus_on
set_parts_scr_s_name_00
set_txt_arranger_01
set_timebar_ser
set_parts_scr_s_name_01
set_txt_scr_sound_sou_01
set_txt_arranger_00
set_timebar_list
set_parts_scr_voi_nam
keyhelp_off
order_change_fix
playlist_delite
keyhelp_delite_off
mnu_sound_test_playlist_submenu_permutate
mnu_sound_test_playlist_submenu_change_name
mnu_sound_test_playlist_submenu_delete
mnu_sound_test_playlist_submenu_detail
mnu_sound_test_series_add
music_list
ser_off
vois_list
keyhelp_on
ser_list
ser_on
chara_list
set_part_album_image
set_txt_album_nam
mark_all
mnu_sound_test_series_album_nam
set_rep_ser_pic
mark_ser
mnu_sound_test_series_last
set_txt_song_n
mnu_sound_test_series_song_n
set_song_time
mnu_sound_test_series_song_time
mnu_sound_test_playlist_sele_time_sum
set_mark
mark_etc
set_chara_icon
mark_chara
set_txt_charactor
set_mark_playing_00
onoff
playing_select
playing
select_keep
new_off
set_txt_detail_s_num_on
mnu_sound_test_voice_number
set_txt_vois_title_off
mnu_sound_test_voice_chara_voice_nam
mnu_sound_test_voice_nam
new_on
order_change_off
order_change_on
mnu_sound_test_series_detail_sonb_number
set_txt_detail_song_time
mnu_sound_test_playlist_sele_time
mnu_sound_test_series_detail_song_time
order_change_select
set_txt_playlist_name_00
set_txt_playlist_time_00
scroll_00
set_parts_keyhelp_00
set_parts_keyhelp_01
key_01_on
set_parts_keyhelp_02
key_01_off
lamp_anim0%d
popup_change_02
popup_change_03
arrange
new_arrange
arrange_off
set_txt_scr_sound_name
set_txt_scr_sound_source
bar_detail_position_%d
set_txt_detail_00_0
set_txt_detail_00_1
set_txt_detail_01_0
set_txt_detail_01_1
sound_add
popup_change_01
popup_change_00_01
popup_change_00_00
popup_change_00
added_off
btn_list_make
set_txt_playlist_name
mnu_sound_test_playlist_nam
set_txt_song_n_00
mnu_sound_test_playlist_song_n
set_txt_playlist_time
mnu_sound_test_playlist_time
time_on
time_off
added_on
btn_list
set_dummy
pop_btn_ok
set_part_0%d
set_tab_bottom_area
set_parts_tab_bottom
series
playlist
voice
my_music
mnu_sound_test_%s_title
mnu_sound_test_help_%s
set_parts_btn_arrow_l
set_parts_btn_arrow_r
set_parts_btn_help_00
set_txt_name_spirit_00
set_parts_paramset_00
spirit_fighter_caption
set_txt_name_spirit_pv
mnu_spirits_recall_question
set_parts_summon_view_00
show_num_have
mnu_spirits_recall_spirit_possess
%s %u
set_txt_num_have
summon_after
hide_not_enough_base
show_not_enough_base
show_return_sp
set_txt_num_return_sp
mnu_spirits_recall_return_sp_n
hide_return_sp
set_txt_num_cost_sp
mnu_spirits_recall_need_sp_n
mnu_spirits_recall_sp_n
not_enough_sp
enough_sp
set_txt_num_preview
mnu_spirits_directory_view_spirit_n
set_parts_btn_style
set_parts_param_03
nextlevel
mnu_spirits_raise_next_lv
set_txt_next_lv_exp
set_txt_lv_add
set_bar_exp_add
mnu_spirits_raise_lv
mnu_spirits_raise_exp_add_n
set_txt_exp_add
mnu_spirits_raise_exp_next_n
set_txt_lv_up
anim_lv_up
effect_lv_up
txt_help
mnu_spirits_select_detail
slot_01
view_spt_set_%02d
fighter_none
set_rep_fighter_front
set_rep_fighter_back
fighter_back
position_set
set_fxui_back_nothing
set_fxui_back_attack
set_fxui_back_defence
set_fxui_back_throw
set_fxui_back_supporter
set_fxui_ef_mirage
show_icon_series
set_rep_icon_series
hide_icon_series
position_center
position_preview_directory
view_spirits_list_preview
position_spirits_select
view_spirits_select
position_raise_exp
view_raise_exp
view_prize_detail
position_spirits_set
anim_spirits_set_in_preview
position_campaign_menu
anim_spirits_summon_edit_back
position_spirits_summon
view_spirits_summon
anim_spirits_summon_edit
anim_out_left
anim_out_right
anim_exp_add
effect_exp
anim_exp
aw_position
set_fxui_exp_s
set_fxui_exp_m
set_fxui_exp_l
set_fxui_exp_ll
set_fxui_atr_bns_offense
set_fxui_atr_bns_defense
set_fxui_atr_bns_throw
set_fxui_atr_bns_non
set_rep_spirit_aw_in
anim_spirits_set_out_preview
set_parts_lv_max
pic_eff_02
pic_eff_03
pic_flare_lenz_00
pic_flare_base
pic_flare_lenz
pic_flare_base_01
anim_in_exp
anim_out_exp
anim_out_edit_spirit
anim_in_edit_spirit
view_spirits_summon_todetail
view_spirits_summon_tosp
wnd_00
txt_base
part_icon_txt
mnu_spirits_challengeboard_list_item_btn
set_txt_spirits_num
mnu_spirits_challengeboard_list_stock_n
anim_countup
set_parts_use_item
set_txt_time_limit
set_txt_time_wait
set_rep_spirits_0
set_rep_spirits_0_sdw
in_00
in_01
in_02
eff_appear_vanish
out_00
out_01
out_02
out_03
out_04
in_%02d
stay_00
eff_appear_legend
eff_appear_ace
eff_appear_hope
eff_appear_novice
on_event
off_event
blink_on
blink_off
base_spirit
base_wait
base_lock
mnu_spirits_challengeboard_list_time_02
mnu_spirits_challengeboard_list_time_01
view_change_item
view_take_item
mnu_spirits_challengeboard_item_n
nam_goods_spirit_all_shuffle
nam_goods_help_spirit_all_shuffle
nam_goods_spirit_all_attacker
nam_goods_help_spirit_all_attacker
nam_goods_spirit_all_supporter
nam_goods_help_spirit_all_supporter
nam_goods_spirit_reloaded
nam_goods_help_spirit_reloaded
nam_goods_spirit_retry_ticket
nam_goods_help_spirit_retry_ticket
nam_goods_spirit_charge_jamming
nam_goods_help_spirit_charge_jamming
nam_goods_spirit_apply_flower
nam_goods_help_spirit_apply_flower
nam_goods_spirit_escort_weaken
nam_goods_help_spirit_escort_weaken
nam_goods_spirit_item_lock
nam_goods_help_spirit_item_lock
nam_goods_spirit_damage_50
nam_goods_help_spirit_damage_50
player
player_sp_exp_p%d
set_parts_sp_00_p%d
set_parts_sp_01_p%d
parts_key
mel_info_next
anim_rule_in_out
set_parts_rule_01
set_parts_rule_03
set_parts_btn_edit
set_rep_screen
on_limit
rule_spirits_board
rule_spirits_campaign_boss
set_rep_fighter_fb
set_rep_fighter_fb_sdw
rule_spirits_campaign_fb_dark
rule_spirits_campaign_fb_light
set_rep_fighter_ld
rule_spirits_campaign_sb_dark
rule_spirits_campaign_sb_light
time_show
time_hide
set_parts_escort_00
view_gimmick
view_rule
set_parts_rule_04
set_parts_rule_00
view_escort
set_parts_escort_0%d
set_parts_stage
set_rep_stage_normal
set_rep_stage_end
battlefield
set_rep_stage_battle
set_pic_txt
set_txt_series
tit_series_%s
mnu_spirits_directory_view_series
set_parts_caption
set_parts_titlle_atr
fighter_name_show_fighter
headline_class
fighter_name_hide
fighter_name_show
headline_boss
headline_dark
headline_light
headline_master
mnu_spirits_challengeboard_detail_target
set_txt_caption
set_txt_time
mnu_spirits_challengeboard_detail_time_02
off_limit
set_parts_det_key_05
set_parts_det_key_06
edit_spirit_set
anim_play_boost
eff_series_boost
set_rep_series_boost
anim_stop_boost
view_spt_my_edit_%02d
set_parts_btn_rule
anim_on_gimmick_edit
set_fxui_energy
color_unedit
anim_on_gimmick_unedit
view_on_gimmick
show_icon_check
hide_icon_check
set_parts_it_gimmick
set_rep_gimmick
view_off_gimmick
set_parts_btn_spirit
hide_chara
view_spirits
show_chara
mnu_spirits_challengeboard_organize_strength_n
mnu_spirits_challengeboard_organize_status_atk_n
mnu_spirits_challengeboard_organize_status_def_n
unedit_spirit_set
select_spirit_set
anim_set_select_spirit_set
select_fighter
anim_set_select_fighter
position_edit
show_item
hide_item
in_adv
anim_set_in_out
set_parts_border_00
set_parts_border_01
set_parts_btn_s_item
set_parts_btn_fighter
bg_fighter_name_00
set_rep_series_sdw
set_txt_fighter_name_sdw
set_txt_fighter_name
bg_player_00
txt_colon
set_txt_player_num
set_parts_controller
view_fighter_av
set_rep_fighter_av_00
set_rep_fighter_av_01
set_rep_fighter_av_02
view_fighter_sb
cmn_player_n
set_parts_item
set_txt_help_item
hide_icon_item
item_off
show_icon_item
item_on
set_parts_btn_load_set
set_parts_btn_save_set
set_rep_spirit_00
set_txt_00_l
mel_spirits_roulette_good_luck_roulette_n
available_l
unusable_l
info_use_slow_in
spark_on_l
set_parts_use_slow
set_txt_item
nam_goods_spirit_roulette_luck_up
set_rep_item
mel_spirits_roulette_slow_roulette_n
available_r
unusable_r
spark_on_r
nam_goods_spirit_roulette_speed
info_event_in
set_parts_event
mel_spirits_roulette_event_bonus
show_sp
hide_sp
in_campaign
set_parts_bg_00
set_parts_bg_01
fighter_cp_boss
fighter_cp_default
fighter_cp_light
fighter_cp_dark
hint_%02d
set_txt_hint_%02d
set_parts_rule_02
icon_hp
limit_time_off
limit_time_on
icon_stock
icon
set_txt_limit_time
mnu_spirits_challengeboard_detail_time_01
set_txt_stage
mnu_spirits_challengeboard_detail_stage
set_parts_cp_0%d
hide_icon_atr
set_parts_player_0%d
set_rep_fighter_00
set_rep_fighter_00_sdw
boss_silhouette
boss_art
set_rep_boss_sdw
set_rep_fighter_01
set_rep_fighter_01_sdw
set_parts_spirit_00
set_parts_spirit_01
spirit_cp_show
spirit_cp_hide
set_parts_hbg_00
spirit_null
set_txt_fighter_00
set_parts_spirit_name_00
set_parts_hbg_01
campaign_boss
campaign_light
campaign_dark
set_txt_fighter_01
mnu_spirits_challengeboard_detail_target_fighter
set_parts_spirit_name_01
set_txt_spirit_01
set_parts_spirit_name_02
mnu_spirits_directory_spirit_n_00
show_type_02
show_type_01
show_type_00
mnu_spirits_sort_20
mnu_spirits_sort_01
mnu_spirits_sort_22
mnu_spirits_sort_03
mnu_spirits_sort_00
set_txt_count_num
mnu_spirits_directory_unlock_n
set_txt_tabname_active
select_tab_00
mnu_spirits_directory_select_sort_all
select_tab_01
mnu_spirits_directory_select_sort_attacker
select_tab_02
mnu_spirits_directory_select_sort_supporter
select_tab_03
mnu_spirits_directory_select_sort_fighter
select_tab_04
mnu_spirits_directory_select_sort_master
set_btn_tab_04
set_spirits_tab_l_btn
set_spirits_tab_r_btn
tab_setting_00
tab_setting_01
set_txt_select_name
hidden
set_txt_select_num
mnu_spirits_directory_spirit_n_01
mnu_spirits_directory_unknown
left_data_on
left_data_off
set_parts_sp_anim_%02d
set_txt_num_anim_sp
anim_wait
set_btn_keyhelp
mnu_spirits_itemview_ped_name
view_normal
view_silhouette
nam_goods_help_%s
view_supportitem
nam_goods_category_%s
support_ingame
support_board
support_roulette
class_novice
mnu_spirits_itemview_ped_type_none
mnu_spirits_itemview_ped_type_attack
mnu_spirits_itemview_ped_type_guard
mnu_spirits_itemview_ped_type_throw
right_pos
sort_window
set_blinder
summon_spirits_%02d
set_parts_spirits_%02d
set_rep_spirits_shadow
set_txt_attribute
set_txt_support_type
set_txt_support
set_txt_energy
mnu_spirits_itemview_hold_sp_n
set_parts_sp_sell
set_txt_num_sell_sp
anim_start
mnu_spirits_itemview__item_n
anim_sell
set_scr_sort
size_07
mnu_spirits_itemview_sort_guide
view_icon_support
view_icon_energy
set_parts_icon_support
set_parts_btn_support_%02d
set_menu_preview_org
footer_help_in
select_directory
select_setorg
select_raise
select_return
select_recall
select_facility
select_shop
preview_00
preview_01
unread_on
set_parts_badge
unread_off
set_part_aw_01
init_anim_in
play_se_start
mnu_spirits_select_pedestal_n
off_empty
set_parts_btn_energy_00
set_parts_btn_energy_01
set_parts_btn_energy_02
set_parts_btn_energy_%02d
set_parts_btn_base_%02d
set_parts_anim_icon_%02d
anim_sp_spend
mnu_spirits_raise_sp_use_n
nam_goods_spirit_energy_s
nam_goods_spirit_energy_m
nam_goods_spirit_energy_l
set_parts_icon_energy
view_energy
view_base
mnu_spirits_raise_pedestal_blow_n
anim_on_atr_bonus
anim_off_atr_bonus
mnu_spirits_raise_pedestal_def_n
mnu_spirits_raise_pedestal_throw_n
mnu_spirits_raise_pedestal_non_n
mnu_spirits_raise_pedestal_support_n
set_parts_icon_energy_l
spirit_energy_l
set_parts_icon_energy_m
spirit_energy_m
set_parts_icon_energy_s
spirit_energy_s
set_txt_num_l
mnu_spirits_raise_energy_l_n
set_txt_num_m
mnu_spirits_raise_energy_m_n
set_txt_num_s
mnu_spirits_raise_energy_s_n
set_part_aw_%02d
set_parts_atr_class
set_fxui_%02d
play_se_display_spirits
play_se_fly
play_se_inhale
play_se_display_stand
stop_se_display_spirits
set_parts_sl0_btn_00
set_parts_sl0_btn_01
pop_btn_back
pop_btn_no
pop_btn_yes
set_parts_sp_icon_txt
view_num_%02d
set_parts_%02d
view_scroll
scroll_grp
mnu_spirits_return_confirm_txt_00
mnu_spirits_return_confirm_txt_02
mnu_spirits_return_confirm_txt_03
mnu_spirits_return_confirm_legend
mnu_spirits_return_confirm_txt_01_punctuation
mnu_spirits_return_confirm_level99
mnu_spirits_return_confirm_grade_up
mnu_spirits_return_confirm_setting
mnu_spirits_return_confirm_txt_01
set_parts_icon_pre_super
mnu_spirits_recall_return_and_recall_2
mnu_spirits_recall_return_and_recall
mnu_spirits_recall_do_not_return
mnu_spirits_recall_spirit_set_dissection
mnu_spirits_recall_attacker_set_dissection
mnu_spirits_recall_supporter_set_dissection
show_rule
hide_rule
icon_text
center_text
set_txt_title_00
set_icon_skill_00
set_icon_skill_01
set_parts_num_sp
mnu_spirits_raise_sp_n
set_parts_dialog_base
set_sp_visible
mnu_spirits_return_sp
set_txt_sp_spend
mnu_spirits_return_confirm_sp
set_check_visible
set_txt_num_check
mnu_spirits_return_check_n
set_parts_icon_base_%02d
set_txt_%02d
mnu_spirits_return_confirm_n_%02d
list_num_%02d
view_on_btn_filter
view_off_btn_filter
bg_favorite
bg_normal
set_pic
tired
show_disable_cover
good
set_parts_it_indiv
set_txt_help_individual
set_parts_it_super
set_txt_help_super
set_txt_nowstyle
view_school_off
view_school_on_01
view_school_on_00
set_parts_style_%02d
set_rep_spirit_sdw
set_txt_style
spirits_attacker_super
spirits_attacker_pre_super
hide_caption_up
hide_caption_down
view_none
view_open
view_close
view_student
view_none_select
view_select
view_expert
individual_posi_01
individual_posi_00
in_preview
out_preview
set_parts_individual
set_parts_it_offense_00
set_parts_it_defense_00
set_parts_it_throw_00
set_parts_it_non_00
set_parts_skill_%02d
set_parts_skill
view_spt_%02d
view_new
view_set
btn_cursor
mnu_spirits_setorg_submenu
submenu_in
submenu_on
set_parts_rule
mnu_spirits_challengeboard_organize_power_n
set_parts_det_key_00
set_parts_det_key_01
set_parts_det_key_02
set_parts_det_key_04
set_parts_det_key_03
set_parts_slot
set_parts_btn_spter_02
set_parts_btn_spter_%02d
set_parts_csr_01
set_parts_csr_02
set_parts_csr_03
anim_out_slot
anim_key
set_parts_btn_attacker
anim_change_slot
set_parts_btn_spter_00
set_parts_btn_spter_01
set_parts_set_power
set_txt_power
mnu_spirits_setorg_sel_strength_n
anim_open_detail
anim_close_detail
view_unset
set_parts_btn_spter_0%d
color_edit_unset
color_edit_set
set_parts_eff_aura_0%d
in_slot_view_00
out_slot
in_slot
in_slot_view_0%d
set_rep_icon_skill
set_parts_aw
hide_spirit
show_spirit
set_parts_lv_individual
view_lv_individual
view_lv
set_parts_series
set_txt_name_attacker
set_txt_set_name
set_parts_btn_try_set
parts_it_try_off
parts_it_try_on
cmn_controller_nx
cmn_controller_joy_both
cmn_controller_joy_left
cmn_controller_joy_right
cmn_controller_pro
cmn_controller_gc
set_parts_aw_bg
directory
on_plt_seach_lyt_00
off_plt_seach_lyt_00
set_txt_num_strength
in_tab_menu
anim_edit_view_list_%02d_%02d
slide_01
slide_02
slide_00
set_parts_param_01
set_parts_list_%02d
set_parts_base_%02d
anim_show_add
icon_add_base
show_use_base
hide_use_spirit
icon_add_spirit
possible_super
lv_hide
set_parts_have
set_parts_class_legend
set_parts_class_ace
set_parts_class_hope
set_parts_class_none
slot_00
cost_00
show_use_spirit
hide_use_base
pos_arrow_%02d
set_txt_dtl
set_txt_numl_have_dtl
mnu_spirits_recall_spirit_n
show_detail
hide_detail
show_txt_help_remove
cursor_pre_add
set_parts_anim_base
on_empty
set_parts_anim_spirit
slot_%02d
cost_%02d
set_fxui_stand_trace
set_txt_name_spirit
set_parts_power
scr_sort_00
scr_sort_01
in_12
view_tab_base_01
view_tab_base_00
hide_spirit_param
view_tab_spirit_01
show_spirit_param
view_tab_spirit_00
scr_ctrl_00
set_txt_key
mnu_spirits_sort_guide
blinder
anim_hide_add
hide_txt_help_remove
icon_detail_spirit
set_btn_01_cursor
icon_detail_base
set_btn_00_cursor
set_parts_btn_recommend
selector_3
scroll_0
mnu_spirits_select_switch_pedestal_n
mnu_spirits_select_switch_spirit_n
scroll_1
out_tab_menu
cursor_normal
set_txt_num_spirit_have
color_bright_spirit
color_nomal_spirit
set_txt_num_base_have
color_bright_base
color_nomal_base
color_bright_txt_have
color_nomal_txt_have
view_unique
icon_base_class
nam_spirits_pedestal_type_attack
nam_spirits_pedestal_type_guard
nam_spirits_pedestal_type_throw
nam_spirits_pedestal_type_none
nam_spirits_pedestal_type_support
view_atr
icon_base_atr
icon_caution
set_txt_atr
view_list_00
view_list_01
view_list_02
set_btn_key_l
set_btn_key_r
set_parts_btn_spirit_%02d
anim_class_legend
anim_class_ace
anim_class_hope
anim_class_none
class_noen
scr_sort
view_no_list
view_list
size_04
color_01
out_edit
in_efit
set_parts_btn_rev_lookup
txt_rev_lookup
mnu_spirits_recall_rev_lookup
txt_key_rev_lookup
mnu_spirits_recall_rev_lookup_guide
size_11
on_plt_menu_lyt_00
off_plt_menu_lyt_00
set_part_aw_00
set_parts_atr_class_%02d
layout_root
spirit_count
num_base
is_aw_ready
init_param
start_effect_aura
play_rumble_pad
play_se_production_1
play_se_production_2
anim_in_spirits_summon
set_fxui_smn_light
set_fxui_smn_shine
set_rep_aura
set_parts_atr_icon
set_parts_class_star
set_parts_icon_new
set_parts_icon_condition
set_parts_icon_using
set_parts_icon_indvi
set_parts_icon_skill
set_parts_icon_counter
set_parts_icon_favorite
hide_nohave
show_nohave
txt_nohave
mnu_spirits_recall_not_have
view_possible
view_impossible_owned
view_impossible
view_sort_level
view_sort_get
view_sort_atr
view_sort_owned_num
view_sort_class
view_sort_strength
set_txt_num_status
view_sort_offense
mnu_spirits_select_attack_n
view_sort_defense
mnu_spirits_select_defense_n
view_sort_series
view_sort_individuality
view_sort_style
view_sort_skill
view_sort_counter
view_sort_cost
view_sort_favorite
set_txt_num_slot
mnu_spirits_select_sort_n
set_txt_base
mnu_spirits_select_ped_nam
mnu_spirits_recall_rev_pedestal_all
view_all
set_txt_num_base
mnu_spirits_recall_rev_pedestal_n
view_one
set_parts_icon_base
parts_btn_02
in_btn
out_btn
set_btn_tab_00
set_btn_tab_01
set_btn_tab_02
set_btn_tab_03
tab_l_btn
tab_r_btn
scroll
view_00
set_txt_facility
set_rep_facility_bg
data_updown
item_up_1
item_down_0
set_txt_up_00
cam_fac_menu_exp_up
view_01
view_02
cam_school_title
set_parts_txt_name
data_text
set_txt_data
cam_fac_menu_forget_school
set_txt_up_%02d
set_txt_down_%02d
set_txt_searchtime
cam_fac_menu_accessible_sp
cam_searchfield_required_time_0
cam_fac_menu_accessible_support_item
cam_searchfield_required_time_1
cam_fac_menu_accessible_energy
cam_searchfield_required_time_2
header_on
btn_type_gym
btn_type_school
btn_type_search
header_off
set_rep_master_sdw
bg_search_%02d
bg_school_%02d
bg_gym_%02d
tab_count_0
tab_count_%d
set_btn_tab_%02d
tab_type_all
tab_type_gym
tab_type_search
tab_type_school
cam_gym_dialog_select
cam_gym_dialog_wait
cam_gym_dialog_out
cam_gym_continue
cam_gym_receive
cam_gym_dialog_in
cam_gym_dialog_start
cam_gym_dialog_receive_max
cam_gym_dialog_receive_halfway
pic_02
set_parts_battle
set_parts_atr
set_parts_facility
set_btn_01_back
color_adventure
set_txt_back_01
mel_return_00
set_txt_back_00
mel_over_return_00
set_parts_menubtn
set_parts_shop
set_parts_other
set_pos_atr
pos_guide
set_txt_submap
set_txt_bullet
set_txt_namazu
set_txt_food
set_txt_hint
set_txt_zoom
cam_info_zoom
btn_grp
facility_shop_other
facility_shop
facility_other
facility_none
color_diff_02
color_diff_01
color_diff_00
show_icon_fighter
hide_icon_fighter
spirit_attacker_offense
spirit_attacker_defense
spirit_attacker_throw
spirit_attacker_non
arrow
arrow_up_in
arrow_down_in_own
arrow_down_in
arrow_up_in_own
view_spirit
master_on
master_off
redeye_00
star_%d
side_light
com_attribute
set_txt_name_00
set_txt_name_00_edge
view_fighter
atr_non
side_shadow
set_rep_boss
set_rep_boss_shadow
side_boss
view_boss
boss_siluette_off
boss_siluette_on
cam_info_piece_boss_unknown
set_txt_facility_00
set_txt_facility_01
view_gym_%02d
cam_gym_title
set_rep_gym_owner
set_rep_gym_shadow
header_type_01
set_parts_spirit_%02d
type_gym
set_rep_school_owner
set_rep_school_shadow
header_type_00
type_school
cam_searchfield_title
set_rep_search_owner
set_rep_search_shadow
type_search
finish_off
cam_fac_menu_shop_title
set_rep_shop_owner
set_rep_shop_shadow
set_parts_shop_%02d
set_txt_rest
progress_finish_stop
finish_on
fighter_atr_in
fighter_atr_out
guide_pop_decide
guide_attention_on
guide_attention_loop
guide_attention_off
guide_pop_in
guide_pop_out
submap_in
submap_out
keyhelp
cam_info_return_short
mapitem_namazu
mapitem_bullet
mapitem_food
mapitem_in
mapitem_out
hint_in
hint_out
special_on
special_off
complete_on
complete_off
redeye_%02d
set_eye_pos_%02d
set_parts_btn_05
set_parts_btn_06
set_parts_btn_07
set_parts_btn_08
set_parts_btn_09
set_parts_btn_10
selector_03
color_menu
set_rep_fighter_sdw
set_parts_border
set_parts_border2
menu_switch_spirits
badge_exc_on
badge_exc_off
badg_on_shop
badg_off
set_parts_facility_badge
cam_info_menu_new_n
badg_on_facility
menu_switch_edit
set_rep_map
facility_show
facility_hide
shop_show
shop_hide
set_part_00
set_part_01
set_part_02
set_part_03
set_part_04
selector_02
set_part_05
set_part_06
top_out
directory_in
etc_top_out
set_txt_01
set_txt_02
cam_menu_etc_easy
icon_type_easy
cam_menu_etc_normal
icon_type_normal
cam_menu_etc_hard
icon_type_hard
anim_select
set_scr_txt_footer_00
set_scr_txt_footer_01
cam_menu_etc_help_grade
cam_menu_etc_help_button_option
cam_menu_etc_help_directory
cam_menu_etc_help_how_to_play
cam_menu_etc_help_save
cam_menu_etc_help_spirits_directory
cam_menu_etc_help_item_list
top_in
set_parts_symbl_%03d
anim_in_boss_00
anim_in_02
anim_in_00
anim_in_hint_00
anim_in_switch_00
anim_out_00
cam_school%d_dialog_detail
subwindow_out
cam_school%d_dialog_oblivion
cam_school%d_dialog_break_confirm
cam_school_continue
cam_school_break
cam_school%d_dialog_mastery_soon
cam_school_stop
cam_school_immediately
cam_school%d_dialog_training_select
cam_school_break_training
cam_school%d_dialog_wait
cam_school%d_dialog_exit
cam_school%d_dialog_in
set_txt_schoolstyle
subwindow_unlearn
set_txt_unlearn
cam_school_unlearn
subwindow_wide
subwindow_narrow
item_up_%d
set_txt_up_item_%02d
item_down_%d
set_txt_down_item_%02d
caption_largeup
caption_up
caption_largedown
caption_down
btn_keyhelp_skill
cam_school_detail_guide
cam_school_detail
set_parts_mastery_%02d
set_fxui_confetti
yadon_on
yadon_off
subwindow_in
cam_school%d_dialog_training_start_again
cam_school%d_dialog_training_start
cam_school%d_dialog_training_finish
cam_school%d_dialog_break_completion
cam_school%d_dialog_complete
cam_school%d_dialog_sp_not_enough
cam_searchfield%d_dialog_member_dispersion
cam_searchfield%d_dialog_member_cancel
cam_searchfield%d_dialog_member
menu_btn_1
cam_searchfield_go
go_00
set_parts_cursor
selector_keyhelp
btn_keyhelp_remove
go_reset
cam_searchfield%d_dialog_again
cam_searchfield%d_dialog_welcome
cam_searchfield%d_dialog_go
menu_btn_2
cam_searchfield%d_dialog_cancel
txt_cancel_in
txt_cancel_out
cam_searchfield%d_dialog_cancel_confirm
cam_searchfield%d_dialog_complete
txt_complete_out
txt_complete_in
talk_in
talk_out
menu_number_2
cam_searchfield_continue
cam_searchfield_cancel_btn
cam_shop%d_dialog_thanks
anime_soldout
anim_get_standard
anim_loop_radiant
anim_get_default
menu_out
cam_shop%d_dialog_return
cam_shop_buy_dialog_spirit
cam_shop_buy_dialog_item
cam_shop%d_dialog_buy
cam_shop%d_dialog_spirits_sp
cam_shop%d_dialog_spirits_att
cam_shop%d_dialog_spirits_skill_stg
cam_shop%d_dialog_spirits_skill_etc
cam_shop%d_dialog_spirits_skill_heal
cam_shop%d_dialog_spirits_skill_stat
cam_shop%d_dialog_spirits_skill_item
cam_shop%d_dialog_spirits_skill_def
cam_shop%d_dialog_spirits_skill_atk
cam_shop%d_dialog_spirits_skill_mov
cam_shop_dialog_2line
cam_shop%d_dialog_%s
item_enforce
item_skill
item_support
set_txt_name
cam_shop_camp_skill_n
cam_shop_item_possess_n
cam_shop_item_name
spirit_attacker
spirit_supporter
set_rep_spskill
cam_shop%d_dialog_spirits_grade_novice
cam_shop%d_dialog_spirits_grade_hope
cam_shop%d_dialog_spirits_grade_ace
cam_shop%d_dialog_spirits_grade_legend
eff_bg_show
cam_shop%d_dialog_exit
cam_shop%d_dialog_in
header_band
selector_menu
set_parts_menu_%02d
set_parts_talk
selector_return
selector_slot
set_parts_skillpiece
set_txt_price_sp
shop_campaign
card_null
set_parts_name
set_parts_name_pre
name_in
name_out
name_cross_right
name_cross_left
cam_shop_buy_get_btn
cam_shop_buy_cancel_btn
menu_in
get_pos_slot_%02d
cam_shop%d_dialog_sp_lack
cam_shop%d_dialog_none
card_item_support
card_item_energy
card_item_skillpiece
spirit_skillpiece
nam_goods_category_energy
nam_goods_category_camp_skill
nam_goods_category_sp_item
default_soldout
cam_shop_item_sale_n
cam_shop_item_price_n
nam_goods_category_attacker
nam_goods_category_supporter
set_btn_%02d
set_txt_store_name
set_parts_item_%02d
lay_shop
type_00
type_01
soldout_off
soldout_on
set_parts_new
set_parts_excl
anim_out_all
anim_in_all
help_forget_show
help_forget_hide
help_hide
cam_skill_necessary_fragment_n
help_show
hide_icon_caution
states_close_enable_open
show_icon_caution
show_txt_num_in_out
cam_skill_return_fragment_minus_n
hide_txt_num_in_out
set_parts_skill_piece
set_parts_eff_open
anim_open_text
anim_fotget
set_parts_eff_enable_%02d
set_txt_num_in_out
set_parts_num
set_parts_det_key
set_txt_num_forget
set_parts_sp
cam_skill_use_sp_minus_n
set_parts_help
set_txt_skill
cam_skill_forget_skill_n
view_open_reset
cam_skill_return_fragment_plus_n
view_open_normal
set_hand_00
set_skill_map
set_btn_return
color_common
set_parts_line_%02d_to_%02d
linked_open
linked_enable_open
linked_off
set_parts_btn_skill_%02d
set_txt_num_skill_piece
cam_skill_tree_necessary_fragment_n
anim_cursor_loop
states_open_on
states_open_off
states_enable_open
states_close
anim_bright_loop
cursor_visible_low
color_forget_on
states_forget
linked_reset
cursor_visible_normal
color_forget_off
anim_open
anim_enable_open
set_part_txt
set_part_txt_words
movie
set_parts_text
mnu_movie_skip_guide
mnu_movie_skip
set_moive_player
battle_spirits_in
vs_spirits
battle_fighter_in
vs_fighter
battle_boss_in
vs_boss
battle_kiila_in 
vs_kiila 
battle_darz_in
vs_darz
battle_final_in
vs_final
facility_common_in
facility_cmn
map_sub_in
map_main_in
fadeout_white
fade_white
fadeout_black
fade_black
facility_common_out
map_sub_out
map_main_out
fadein_white
fadein_black
caption_out
words_out
patch_off
selector_1
set_btn_m_decide
set_btn_m_00
selector_2
set_parts_btn_03
set_parts_btn_04
cmn_no
cam_save_help_easy
cam_save_help_normal
cam_save_help_hard
view_caution
caution_anim
set_txt_caution
cam_save_overwrite_data
cam_save_delete_not_regret_btn
cam_save_overwrite_start
cmn_yes
cam_save_delete_really
cam_save_delete
delete_anim
select_off
select_on
hold_on
hold_off
btn_01_cursor
lay_continue_01
lay_continue_02
lay_continue_00
set_parts_caption_con
cam_save_num_area
set_txt_play_time
cam_save_playtime_time
set_txt_difficulty
cam_save_level_type
cam_save_level_easy
cam_save_level_normal
cam_save_level_hard
set_txt_fighter_num
cam_save_fighter_n
set_txt_clear_num
cam_save_clear_n
set_txt_complete
cam_save_complete_percent
set_txt_clear_times_num
cam_save_clear_times_n
selector_00
set_parts_btn_00
set_parts_btn_01
set_parts_btn_02
selector_01
btn_press_any
chr_r_on
chr_l_on
chr_l_off
anim_loop
anim_in
spirits_campaign_top_maintitle
set_rep_maintitle
spirits_campaign_top_subtitle
set_rep_subtitle
pos_%02d
eff_on
view_new_game
clear_hide
view_continue
set_txt_date
cam_save_date
set_parts_clear
set_parts_clear_s
clear_show
cam_save_data_%d
in_back
title_loop
title_off
set_rep_sc
set_parts_sp_num
cam_fac_sp_n
focus_in
focus_out
set_txt_message
set_txt_master
set_rep_master
anim_txt
view_gym_00
view_school_%02d
view_search_%02d
view_shop_%02d
yadon
next_off
next_on
color_gym
color_school
color_search
color_shop
cam_school4_taller_name
set_txt_place
set_txt_on
set_txt_off
set_txt_disable
sp_off
plus_off
plus_on
sp_on
set_enemy_pos
enemy_type_%02d
anime_enemy_def_%02d
anime_enemy_attack_%02d
anime_tresure_light
treasure_out
anime_star_03
anime_star_02
anime_star_04
anime_star_01
anime_star_05
anime_star_00
rank_treasure_%02d
anime_treasure_boxin
treasure_in
treasure_liftup
treasure_liftdown
set_parts_star_00
set_parts_star_01
set_parts_star_02
bg_inner_scene_%02d
bg_move
overlay_in_%02d
overlay_out_%02d
overlay_out_complete
bg_init
tunnel_on
tunnel_off
gauge_in
gauge_out
gauge_loop
set_txt_resttime
cam_searchfield_time
/dev/urandom
set_parts_slot_%02d
set_parts_effect
move_%02d
slot_sum_%d
enemy_attack
se_menu_serch_foot_%d_%d
party_in
party_center
party_out
party_forward
set_rep_bg
search_in
in_%s_00
out_%s_00
slot_exist
slot_empty
offset_normal
offset_first
cam_school_leave
cam_gym_leave
set_parts_condition
set_parts_lvup
aura_anim_loop
set_parts_spirit
set_rep_shadow
gauge_progress
gauge_parts_off
gauge_parts_on
base_loop
gauge_off
training_stop
progress_loop_init
progress_finish_init
progress_lvmax_reset
up_possible_off
training_high_%02d
training_middle_%02d
training_low_%02d
gauge_on
rank_supporter
rank_non
cam_gym_level
type_supporter_on
type_supporter_off
rank_novice
rank_hope
rank_ace
rank_legend
set_txt_lvup
set_txt_lvup_bg
progress_finish
up_possible_on
progress_lvmax
slot_default
slot_in
slot_out
slot_out_hanabi
selected_on
selected_off
question_on
question_off
progress_loop
textbox_param
string_length_small
string_length_mid
string_length_big
grp_small
grp_mid
grp_big
grp_pic
stf_nam_chong_pick_chean_pc
stf_nam_ace_tomori_kudo_chico
stf_nam_yusuke_yamauchi
stf_nam_benoit_du_pac
stf_nam_javier_fernandez_pena
stf_nam_francois_goeske
